
Symbol table '.dynsym' contains 21576 entries:
   Num:    Value  Size Type    Bind   Vis      Ndx Name
     0: 00000000     0 NOTYPE  LOCAL  DEFAULT  UND 
     1: 00000000     0 FUNC    GLOBAL DEFAULT  UND __cxa_finalize
     2: 00000000     0 FUNC    GLOBAL DEFAULT  UND __cxa_atexit
     3: 00000000     0 FUNC    GLOBAL DEFAULT  UND __stack_chk_fail
     4: 00000000     0 OBJECT  GLOBAL DEFAULT  UND __stack_chk_guard
     5: 002104bc   228 FUNC    GLOBAL DEFAULT    8 JNI_OnLoad
     6: 002c0e11   128 FUNC    GLOBAL DEFAULT    8 _ZN9twiliosdk9TSCLogger8instanceEv
     7: 002c11b1   242 FUNC    GLOBAL DEFAULT    8 _ZN9twiliosdk9TSCLogger3logENS_20_TSCoreLogModuleTypeENS_15_TSCoreLogLevelEPKcS4_iS4_z
     8: 002105a0   108 FUNC    GLOBAL DEFAULT    8 JNI_OnUnLoad
     9: 00894af1     0 FUNC    GLOBAL DEFAULT    8 __cxa_end_cleanup
    10: 00210700   460 FUNC    GLOBAL DEFAULT    8 Java_com_twilio_conversations_impl_TwilioConversationsImpl_initCore
    11: 002bb2e1   120 FUNC    GLOBAL DEFAULT    8 _ZN9twiliosdk6TSCSDK8instanceEv
    12: 002bb3a1    48 FUNC    GLOBAL DEFAULT    8 _ZNK9twiliosdk6TSCSDK13isInitializedEv
    13: 002108cc   108 FUNC    GLOBAL DEFAULT    8 Java_com_twilio_conversations_impl_TwilioConversationsImpl_destroyCore
    14: 002bb359    72 FUNC    GLOBAL DEFAULT    8 _ZN9twiliosdk6TSCSDK7destroyEv
    15: 00210938    48 FUNC    WEAK   DEFAULT    8 _ZNSt3__13mapINS_12basic_stringIcNS_11char_traitsIcEENS_9allocatorIcEEEES6_NS_4lessIS6_EENS4_INS_4pairIKS6_S6_EEEEED2Ev
    16: 00210938    48 FUNC    WEAK   DEFAULT    8 _ZNSt3__13mapINS_12basic_stringIcNS_11char_traitsIcEENS_9allocatorIcEEEES6_NS_4lessIS6_EENS4_INS_4pairIKS6_S6_EEEEED1Ev
    17: 00210968  1388 FUNC    GLOBAL DEFAULT    8 Java_com_twilio_conversations_impl_TwilioConversationsImpl_createEndpoint
    18: 006f7f91    32 FUNC    GLOBAL DEFAULT    8 _ZN12TwilioCommon13AccessManager8getTokenEv
    19: 002c1d2d   284 FUNC    GLOBAL DEFAULT    8 _ZN9twiliosdk9TSCLogger5loglnENS_20_TSCoreLogModuleTypeENS_15_TSCoreLogLevelEPKcS4_iS4_z
    20: 00895865    92 FUNC    WEAK   DEFAULT    8 _Znwj
    21: 002bb479   304 FUNC    GLOBAL DEFAULT    8 _ZN9twiliosdk6TSCSDK14createEndpointERKNSt3__13mapINS1_12basic_stringIcNS1_11char_traitsIcEENS1_9allocatorIcEEEES8_NS1_4lessIS8_EENS6_INS1_4pairIKS8_S8_EEEEEEPN12TwilioCommon13AccessManagerERKNS1_10shared_ptrINS_19TSCEndpointObserverEEE
    22: 00210ed4   136 FUNC    GLOBAL DEFAULT    8 Java_com_twilio_conversations_impl_TwilioConversationsImpl_setCoreLogLevel
    23: 002c109d   170 FUNC    GLOBAL DEFAULT    8 _ZN9twiliosdk9TSCLogger11setLogLevelENS_15_TSCoreLogLevelE
    24: 00210f5c   128 FUNC    GLOBAL DEFAULT    8 Java_com_twilio_conversations_impl_TwilioConversationsImpl_getCoreLogLevel
    25: 002c1149    24 FUNC    GLOBAL DEFAULT    8 _ZNK9twiliosdk9TSCLogger11getLogLevelEv
    26: 00210fdc    44 FUNC    GLOBAL DEFAULT    8 Java_com_twilio_conversations_impl_TwilioConversationsImpl_refreshRegistrations
    27: 002bb8c1    18 FUNC    GLOBAL DEFAULT    8 _ZN9twiliosdk6TSCSDK20refreshRegistrationsEv
    28: 008958fd    10 FUNC    WEAK   DEFAULT    8 _ZdlPv
    29: 002110f4    36 FUNC    WEAK   DEFAULT    8 _ZNSt3__121__basic_string_commonILb1EEC2Ev
    30: 002110f4    36 FUNC    WEAK   DEFAULT    8 _ZNSt3__121__basic_string_commonILb1EEC1Ev
    31: 00000000     0 FUNC    GLOBAL DEFAULT  UND strlen
    32: 00213f48    36 FUNC    WEAK   DEFAULT    8 _ZNSt3__18iteratorINS_19output_iterator_tagEvvvvEC2Ev
    33: 00894fe1   174 FUNC    GLOBAL DEFAULT    8 __cxa_end_catch
    34: 00894f69   120 FUNC    GLOBAL DEFAULT    8 __cxa_begin_catch
    35: 002119a4   120 FUNC    WEAK   DEFAULT    8 _ZNSt3__115basic_stringbufIcNS_11char_traitsIcEENS_9allocatorIcEEED2Ev
    36: 00a73008    64 OBJECT  WEAK   DEFAULT   14 _ZTVNSt3__115basic_stringbufIcNS_11char_traitsIcEENS_9allocatorIcEEEE
    37: 002119a4   120 FUNC    WEAK   DEFAULT    8 _ZNSt3__115basic_stringbufIcNS_11char_traitsIcEENS_9allocatorIcEEED1Ev
    38: 00211a1c    52 FUNC    WEAK   DEFAULT    8 _ZNSt3__115basic_stringbufIcNS_11char_traitsIcEENS_9allocatorIcEEED0Ev
    39: 00216b78  1932 FUNC    WEAK   DEFAULT    8 _ZNSt3__115basic_stringbufIcNS_11char_traitsIcEENS_9allocatorIcEEE3strERKNS_12basic_stringIcS2_S4_EE
    40: 00214ab4   520 FUNC    WEAK   DEFAULT    8 _ZNKSt3__115basic_stringbufIcNS_11char_traitsIcEENS_9allocatorIcEEE3strEv
    41: 0021b0d0   212 FUNC    WEAK   DEFAULT    8 _ZNSt3__119basic_ostringstreamIcNS_11char_traitsIcEENS_9allocatorIcEEED1Ev
    42: 00a8e744    16 OBJECT  GLOBAL DEFAULT   14 _ZTVNSt3__18ios_baseE
    43: 00a73048    16 OBJECT  WEAK   DEFAULT   14 _ZTVNSt3__19basic_iosIcNS_11char_traitsIcEEEE
    44: 00a72ff8    16 OBJECT  WEAK   DEFAULT   14 _ZTTNSt3__119basic_ostringstreamIcNS_11char_traitsIcEENS_9allocatorIcEEEE
    45: 00a72fd0    40 OBJECT  WEAK   DEFAULT   14 _ZTVNSt3__119basic_ostringstreamIcNS_11char_traitsIcEENS_9allocatorIcEEEE
    46: 00864729     4 FUNC    GLOBAL DEFAULT    8 _ZSt18uncaught_exceptionv
    47: 00213f48    36 FUNC    WEAK   DEFAULT    8 _ZNSt3__18iteratorINS_19output_iterator_tagEvvvvEC1Ev
    48: 00000000     0 FUNC    GLOBAL DEFAULT  UND memcpy
    49: 00a73058    64 OBJECT  WEAK   DEFAULT   14 _ZTVNSt3__115basic_streambufIcNS_11char_traitsIcEEEE
    50: 00218df8   772 FUNC    WEAK   DEFAULT    8 _ZNSt3__112basic_stringIcNS_11char_traitsIcEENS_9allocatorIcEEE6__initIPcEENS_9enable_ifIXsrNS_21__is_forward_iteratorIT_EE5valueEvE4typeESA_SA_
    51: 0021a648    64 FUNC    WEAK   DEFAULT    8 _ZNSt3__14pairIKNS_12basic_stringIcNS_11char_traitsIcEENS_9allocatorIcEEEES6_ED1Ev
    52: 00894b01    44 FUNC    GLOBAL DEFAULT    8 __cxa_allocate_exception
    53: 0088d031    92 FUNC    GLOBAL DEFAULT    8 _ZNSt11logic_errorC2EPKc
    54: 00894d69   220 FUNC    GLOBAL DEFAULT    8 __cxa_throw
    55: 00894c1d    16 FUNC    GLOBAL DEFAULT    8 __cxa_free_exception
    56: 00a901d8    20 OBJECT  GLOBAL DEFAULT   14 _ZTVSt12length_error
    57: 00a901ec    12 OBJECT  GLOBAL DEFAULT   14 _ZTISt12length_error
    58: 00897059    76 FUNC    GLOBAL DEFAULT    8 _ZNSt12length_errorD1Ev
    59: 00000000     0 FUNC    GLOBAL DEFAULT  UND memmove
    60: 00000000     0 FUNC    GLOBAL DEFAULT  UND memset
    61: 0021a648    64 FUNC    WEAK   DEFAULT    8 _ZNSt3__14pairIKNS_12basic_stringIcNS_11char_traitsIcEENS_9allocatorIcEEEES6_ED2Ev
    62: 0021b1e8    52 FUNC    WEAK   DEFAULT    8 _ZNSt3__119basic_ostringstreamIcNS_11char_traitsIcEENS_9allocatorIcEEED0Ev
    63: 0021b1a4    68 FUNC    WEAK   DEFAULT    8 _ZTv0_n12_NSt3__119basic_ostringstreamIcNS_11char_traitsIcEENS_9allocatorIcEEED1Ev
    64: 0021b21c    68 FUNC    WEAK   DEFAULT    8 _ZTv0_n12_NSt3__119basic_ostringstreamIcNS_11char_traitsIcEENS_9allocatorIcEEED0Ev
    65: 0021b2ac  1564 FUNC    WEAK   DEFAULT    8 _ZNSt3__115basic_stringbufIcNS_11char_traitsIcEENS_9allocatorIcEEE7seekoffExNS_8ios_base7seekdirEj
    66: 0021ba50   364 FUNC    WEAK   DEFAULT    8 _ZNSt3__115basic_stringbufIcNS_11char_traitsIcEENS_9allocatorIcEEE9underflowEv
    67: 0021bbbc   660 FUNC    WEAK   DEFAULT    8 _ZNSt3__115basic_stringbufIcNS_11char_traitsIcEENS_9allocatorIcEEE9pbackfailEi
    68: 0021be50  1652 FUNC    WEAK   DEFAULT    8 _ZNSt3__115basic_stringbufIcNS_11char_traitsIcEENS_9allocatorIcEEE8overflowEi
    69: 00a5e960    17 OBJECT  GLOBAL DEFAULT   11 _ZTSSt12length_error
    70: 00a9009c    40 OBJECT  GLOBAL DEFAULT   14 _ZTVN10__cxxabiv120__si_class_type_infoE
    71: 00a9018c    12 OBJECT  GLOBAL DEFAULT   14 _ZTISt11logic_error
    72: 00a5e910    16 OBJECT  GLOBAL DEFAULT   11 _ZTSSt11logic_error
    73: 00a8fc18     8 OBJECT  GLOBAL DEFAULT   14 _ZTISt9exception
    74: 00a5e600    13 OBJECT  GLOBAL DEFAULT   11 _ZTSSt9exception
    75: 00a90074    40 OBJECT  GLOBAL DEFAULT   14 _ZTVN10__cxxabiv117__class_type_infoE
    76: 0021c5b4   140 FUNC    GLOBAL DEFAULT    8 Java_com_twilio_conversations_impl_ConversationsClientImpl_listen
    77: 002c9b65   128 FUNC    GLOBAL DEFAULT    8 _ZN9twiliosdk11TSCEndpoint16registerEndpointEbb
    78: 0021c640   132 FUNC    GLOBAL DEFAULT    8 Java_com_twilio_conversations_impl_ConversationsClientImpl_unlisten
    79: 002ca535   112 FUNC    GLOBAL DEFAULT    8 _ZN9twiliosdk11TSCEndpoint18unregisterEndpointEv
    80: 0021c6c4   144 FUNC    GLOBAL DEFAULT    8 Java_com_twilio_conversations_impl_ConversationsClientImpl_reject
    81: 002cbcbd    30 FUNC    GLOBAL DEFAULT    8 _ZN9twiliosdk11TSCEndpoint6rejectERNSt3__110shared_ptrINS_10TSCSessionEEE
    82: 0021c754   440 FUNC    GLOBAL DEFAULT    8 Java_com_twilio_conversations_impl_ConversationsClientImpl_freeNativeHandle
    83: 002bb5a9   460 FUNC    GLOBAL DEFAULT    8 _ZN9twiliosdk6TSCSDK15destroyEndpointERNSt3__110shared_ptrINS_11TSCEndpointEEE
    84: 00a78218    32 OBJECT  GLOBAL DEFAULT   14 _ZTVN9twiliosdk19TSCEndpointObserverE
    85: 002c6d71    56 FUNC    GLOBAL DEFAULT    8 _ZN9twiliosdk19TSCEndpointObserverD2Ev
    86: 00220864    48 FUNC    WEAK   DEFAULT    8 _ZNSt3__16vectorINS_4pairINS_12basic_stringIcNS_11char_traitsIcEENS_9allocatorIcEEEES7_EENS5_IS8_EEED2Ev
    87: 00220864    48 FUNC    WEAK   DEFAULT    8 _ZNSt3__16vectorINS_4pairINS_12basic_stringIcNS_11char_traitsIcEENS_9allocatorIcEEEES7_EENS5_IS8_EEED1Ev
    88: 002f0d3d  1944 FUNC    GLOBAL DEFAULT    8 _ZNK9twiliosdk10TSCSession15getParticipantsEv
    89: 00220eac   512 FUNC    GLOBAL DEFAULT    8 Java_com_twilio_conversations_impl_ConversationsClientImpl_00024EndpointObserverInternal_wrapNativeObserver
    90: 002210ac   420 FUNC    GLOBAL DEFAULT    8 Java_com_twilio_conversations_impl_ConversationsClientImpl_00024EndpointObserverInternal_freeNativeObserver
    91: 00224ffc    64 FUNC    WEAK   DEFAULT    8 _ZNSt3__14pairINS_12basic_stringIcNS_11char_traitsIcEENS_9allocatorIcEEEES6_ED1Ev
    92: 00a8fab0    20 OBJECT  GLOBAL DEFAULT   14 _ZTVNSt3__114__shared_countE
    93: 00a8facc    28 OBJECT  GLOBAL DEFAULT   14 _ZTVNSt3__119__shared_weak_countE
    94: 00224ffc    64 FUNC    WEAK   DEFAULT    8 _ZNSt3__14pairINS_12basic_stringIcNS_11char_traitsIcEENS_9allocatorIcEEEES6_ED2Ev
    95: 00225474    48 FUNC    WEAK   DEFAULT    8 _ZNSt3__16vectorINS_12basic_stringIcNS_11char_traitsIcEENS_9allocatorIcEEEENS4_IS6_EEED2Ev
    96: 00225474    48 FUNC    WEAK   DEFAULT    8 _ZNSt3__16vectorINS_12basic_stringIcNS_11char_traitsIcEENS_9allocatorIcEEEENS4_IS6_EEED1Ev
    97: 002254a4  2184 FUNC    GLOBAL DEFAULT    8 Java_com_twilio_conversations_impl_ConversationImpl_wrapOutgoingSession
    98: 002cb9e5   140 FUNC    GLOBAL DEFAULT    8 _ZN9twiliosdk11TSCEndpoint13createSessionERKNSt3__13mapINS1_12basic_stringIcNS1_11char_traitsIcEENS1_9allocatorIcEEEES8_NS1_4lessIS8_EENS6_INS1_4pairIKS8_S8_EEEEEERKNS1_10shared_ptrINS_18TSCSessionObserverEEE
    99: 00228ad0   504 FUNC    WEAK   DEFAULT    8 _ZNSt3__16vectorINS_12basic_stringIcNS_11char_traitsIcEENS_9allocatorIcEEEENS4_IS6_EEE19__annotate_increaseEj
   100: 00228cc8   844 FUNC    WEAK   DEFAULT    8 _ZNSt3__16vectorINS_12basic_stringIcNS_11char_traitsIcEENS_9allocatorIcEEEENS4_IS6_EEE21__push_back_slow_pathIRKS6_EEvOT_
   101: 002f06a5  1320 FUNC    GLOBAL DEFAULT    8 _ZN9twiliosdk10TSCSession15setParticipantsERKNSt3__16vectorINS1_12basic_stringIcNS1_11char_traitsIcEENS1_9allocatorIcEEEENS6_IS8_EEEE
   102: 00225d2c   552 FUNC    GLOBAL DEFAULT    8 Java_com_twilio_conversations_impl_ConversationImpl_start
   103: 002f2275    74 FUNC    GLOBAL DEFAULT    8 _ZN9twiliosdk10TSCSession5startEPKN3rtc16RefCountedObjectINS_26TSCSessionMediaConstraintsEEE
   104: 00225f54   140 FUNC    GLOBAL DEFAULT    8 Java_com_twilio_conversations_impl_ConversationImpl_stop
   105: 002f2f79   280 FUNC    GLOBAL DEFAULT    8 _ZN9twiliosdk10TSCSession4stopEv
   106: 00225fe0   444 FUNC    GLOBAL DEFAULT    8 Java_com_twilio_conversations_impl_ConversationImpl_setExternalCapturer
   107: 002f56fd    24 FUNC    GLOBAL DEFAULT    8 _ZNK9twiliosdk10TSCSession25getVideoCaptureControllerEv
   108: 002c3fa5    26 FUNC    GLOBAL DEFAULT    8 _ZN9twiliosdk25TSCVideoCaptureController24setExternalVideoCapturerEPN7cricket13VideoCapturerE
   109: 0022619c   152 FUNC    GLOBAL DEFAULT    8 Java_com_twilio_conversations_impl_ConversationImpl_setSessionObserver
   110: 002f42c1   158 FUNC    GLOBAL DEFAULT    8 _ZN9twiliosdk10TSCSession18setSessionObserverERKNSt3__110shared_ptrINS_18TSCSessionObserverEEE
   111: 00226234   220 FUNC    GLOBAL DEFAULT    8 Java_com_twilio_conversations_impl_ConversationImpl_enableVideo
   112: 002f3b71    96 FUNC    GLOBAL DEFAULT    8 _ZN9twiliosdk10TSCSession11enableVideoEbb
   113: 00226310   420 FUNC    GLOBAL DEFAULT    8 Java_com_twilio_conversations_impl_ConversationImpl_freeNativeHandle
   114: 002264b4   404 FUNC    GLOBAL DEFAULT    8 Java_com_twilio_conversations_impl_ConversationImpl_mute
   115: 002f56e5    24 FUNC    GLOBAL DEFAULT    8 _ZNK9twiliosdk10TSCSession23getAudioInputControllerEv
   116: 002ecb55   184 FUNC    GLOBAL DEFAULT    8 _ZN9twiliosdk23TSCAudioInputController8setMutedEb
   117: 00226648   380 FUNC    GLOBAL DEFAULT    8 Java_com_twilio_conversations_impl_ConversationImpl_isMuted
   118: 002ecb39    28 FUNC    GLOBAL DEFAULT    8 _ZNK9twiliosdk23TSCAudioInputController7isMutedEv
   119: 002267c4   892 FUNC    GLOBAL DEFAULT    8 Java_com_twilio_conversations_impl_ConversationImpl_inviteParticipants
   120: 002f0bcd   368 FUNC    GLOBAL DEFAULT    8 _ZN9twiliosdk10TSCSession18inviteParticipantsERKNSt3__16vectorINS1_12basic_stringIcNS1_11char_traitsIcEENS1_9allocatorIcEEEENS6_IS8_EEEE
   121: 00226b40   168 FUNC    GLOBAL DEFAULT    8 Java_com_twilio_conversations_impl_ConversationImpl_getConversationSid
   122: 002f48b1    24 FUNC    GLOBAL DEFAULT    8 _ZNK9twiliosdk10TSCSession18getConversationSidEv
   123: 00226be8   244 FUNC    GLOBAL DEFAULT    8 Java_com_twilio_conversations_impl_ConversationImpl_enableAudio
   124: 002f36fd   864 FUNC    GLOBAL DEFAULT    8 _ZN9twiliosdk10TSCSession11enableAudioEbb
   125: 002298d0    40 FUNC    WEAK   DEFAULT    8 _ZNSt3__16vectorINS_12basic_stringIcNS_11char_traitsIcEENS_9allocatorIcEEEENS4_IS6_EEE31__annotate_contiguous_containerEPKvSA_SA_SA_
   126: 00229604   264 FUNC    WEAK   DEFAULT    8 _ZNKSt3__16vectorINS_12basic_stringIcNS_11char_traitsIcEENS_9allocatorIcEEEENS4_IS6_EEE8max_sizeEv
   127: 00229cc4   828 FUNC    WEAK   DEFAULT    8 _ZNSt3__16vectorINS_12basic_stringIcNS_11char_traitsIcEENS_9allocatorIcEEEENS4_IS6_EEE26__swap_out_circular_bufferERNS_14__split_bufferIS6_RS7_EE
   128: 0022970c   452 FUNC    WEAK   DEFAULT    8 _ZNSt3__16vectorINS_12basic_stringIcNS_11char_traitsIcEENS_9allocatorIcEEEENS4_IS6_EEE14__annotate_newEj
   129: 0022be80   528 FUNC    WEAK   DEFAULT    8 _ZNSt3__16vectorINS_12basic_stringIcNS_11char_traitsIcEENS_9allocatorIcEEEENS4_IS6_EEE17__annotate_deleteEv
   130: 00000000     0 FUNC    GLOBAL DEFAULT  UND memcmp
   131: 00a784c0    72 OBJECT  GLOBAL DEFAULT   14 _ZTVN9twiliosdk18TSCSessionObserverE
   132: 002d80ed   104 FUNC    GLOBAL DEFAULT    8 _ZN9twiliosdk18TSCSessionObserverD2Ev
   133: 002ec7d1    24 FUNC    GLOBAL DEFAULT    8 _ZNK9twiliosdk17TSCMediaTrackInfo21getParticipantAddressEv
   134: 002ec7b1    30 FUNC    GLOBAL DEFAULT    8 _ZNK9twiliosdk17TSCMediaTrackInfo10getTrackIdEv
   135: 002ec7e9    30 FUNC    GLOBAL DEFAULT    8 _ZNK9twiliosdk17TSCMediaTrackInfo15getStreamOriginEv
   136: 00306db5    24 FUNC    GLOBAL DEFAULT    8 _ZNK9twiliosdk18TSCMediaStreamInfo21getParticipantAddressEv
   137: 00306d99    28 FUNC    GLOBAL DEFAULT    8 _ZNK9twiliosdk18TSCMediaStreamInfo11getStreamIdEv
   138: 00306d7d    28 FUNC    GLOBAL DEFAULT    8 _ZNK9twiliosdk18TSCMediaStreamInfo12getSessionIdEv
   139: 0022f134   512 FUNC    GLOBAL DEFAULT    8 Java_com_twilio_conversations_impl_ConversationImpl_00024SessionObserverInternal_wrapNativeObserver
   140: 0022f334   420 FUNC    GLOBAL DEFAULT    8 Java_com_twilio_conversations_impl_ConversationImpl_00024SessionObserverInternal_freeNativeObserver
   141: 00aa70d4    84 OBJECT  GLOBAL DEFAULT   19 _ZNSt3__14cerrE
   142: 00233579   184 FUNC    WEAK   DEFAULT    8 _ZNSt3__16vectorINS_12basic_stringIcNS_11char_traitsIcEENS_9allocatorIcEEEENS4_IS6_EEE21__push_back_slow_pathIS6_EEvOT_
   143: 00a73118    40 OBJECT  WEAK   DEFAULT   14 _ZTVNSt3__113basic_ostreamIcNS_11char_traitsIcEEEE
   144: 00234f53     8 FUNC    WEAK   DEFAULT    8 _ZNSt3__119basic_ostringstreamIcNS_11char_traitsIcEENS_9allocatorIcEEED2Ev
   145: 00a73110     8 OBJECT  WEAK   DEFAULT   14 _ZTTNSt3__113basic_ostreamIcNS_11char_traitsIcEEEE
   146: 00000000     0 FUNC    GLOBAL DEFAULT  UND __android_log_print
   147: 00235635   108 FUNC    WEAK   DEFAULT    8 _ZNSt3__16vectorIjNS_9allocatorIjEEE21__push_back_slow_pathIjEEvOT_
   148: 008c9fe0    32 FUNC    GLOBAL DEFAULT    8 __aeabi_uidivmod
   149: 002381f5     8 FUNC    GLOBAL DEFAULT    8 Java_org_webrtc_NetworkMonitor_nativeNotifyConnectionTypeChanged
   150: 00238c25   108 FUNC    WEAK   DEFAULT    8 _ZNSt3__16vectorIiNS_9allocatorIiEEE21__push_back_slow_pathIiEEvOT_
   151: 00238c91   112 FUNC    WEAK   DEFAULT    8 _ZNSt3__16vectorIxNS_9allocatorIxEEE21__push_back_slow_pathIRKxEEvOT_
   152: 00238d01   108 FUNC    WEAK   DEFAULT    8 _ZNSt3__16vectorIN6webrtc14VideoCodecTypeENS_9allocatorIS2_EEE21__push_back_slow_pathIS2_EEvOT_
   153: 008ca8cc     0 FUNC    GLOBAL DEFAULT    8 __aeabi_ldivmod
   154: 008ca000     0 FUNC    GLOBAL DEFAULT    8 __aeabi_idiv
   155: 00000000     0 FUNC    GLOBAL DEFAULT  UND pthread_once
   156: 00000000     0 FUNC    GLOBAL DEFAULT  UND pthread_key_create
   157: 00000000     0 FUNC    GLOBAL DEFAULT  UND pthread_getspecific
   158: 00000000     0 FUNC    GLOBAL DEFAULT  UND prctl
   159: 00000000     0 FUNC    GLOBAL DEFAULT  UND syscall
   160: 00000000     0 FUNC    GLOBAL DEFAULT  UND pthread_setspecific
   161: 0023eff7    30 FUNC    GLOBAL DEFAULT    8 Java_org_webrtc_DataChannel_unregisterObserverNative
   162: 0023f015    16 FUNC    GLOBAL DEFAULT    8 Java_org_webrtc_DataChannel_close
   163: 0023f025   148 FUNC    GLOBAL DEFAULT    8 Java_org_webrtc_DataChannel_sendNative
   164: 0023f0b9     6 FUNC    GLOBAL DEFAULT    8 Java_org_webrtc_Logging_nativeEnableLogThreads
   165: 0023f0bf     6 FUNC    GLOBAL DEFAULT    8 Java_org_webrtc_Logging_nativeEnableLogTimeStamps
   166: 0023f0c5    12 FUNC    GLOBAL DEFAULT    8 Java_org_webrtc_PeerConnection_freeObserver
   167: 0023f0d1    12 FUNC    GLOBAL DEFAULT    8 Java_org_webrtc_VideoCapturer_free
   168: 0023f0dd    12 FUNC    GLOBAL DEFAULT    8 Java_org_webrtc_VideoRenderer_freeGuiVideoRenderer
   169: 0023f0e9    12 FUNC    GLOBAL DEFAULT    8 Java_org_webrtc_VideoRenderer_freeWrappedVideoRenderer
   170: 0023f0f5    12 FUNC    GLOBAL DEFAULT    8 Java_org_webrtc_VideoRenderer_releaseNativeFrame
   171: 0023f101     8 FUNC    GLOBAL DEFAULT    8 Java_org_webrtc_MediaStreamTrack_free
   172: 0023f109    10 FUNC    GLOBAL DEFAULT    8 Java_org_webrtc_MediaStream_nativeAddAudioTrack
   173: 0023f113    10 FUNC    GLOBAL DEFAULT    8 Java_org_webrtc_MediaStream_nativeAddVideoTrack
   174: 0023f11d    10 FUNC    GLOBAL DEFAULT    8 Java_org_webrtc_MediaStream_nativeRemoveAudioTrack
   175: 0023f127    10 FUNC    GLOBAL DEFAULT    8 Java_org_webrtc_MediaStream_nativeRemoveVideoTrack
   176: 0023f131   128 FUNC    GLOBAL DEFAULT    8 Java_org_webrtc_PeerConnectionFactory_initializeAndroidGlobals
   177: 0023f1b1     6 FUNC    GLOBAL DEFAULT    8 Java_org_webrtc_VideoRenderer_nativeCreateGuiVideoRenderer
   178: 0023f1b7     8 FUNC    GLOBAL DEFAULT    8 Java_org_webrtc_VideoSource_stop
   179: 0023f1bf     8 FUNC    GLOBAL DEFAULT    8 Java_org_webrtc_VideoSource_restart
   180: 0023f1c7     8 FUNC    GLOBAL DEFAULT    8 Java_org_webrtc_MediaStreamTrack_nativeEnabled
   181: 0023f1cf    10 FUNC    GLOBAL DEFAULT    8 Java_org_webrtc_MediaStreamTrack_nativeSetState
   182: 0023f1d9    18 FUNC    GLOBAL DEFAULT    8 Java_org_webrtc_MediaStreamTrack_nativeSetEnabled
   183: 0023f1eb    10 FUNC    GLOBAL DEFAULT    8 Java_org_webrtc_VideoTrack_nativeAddRenderer
   184: 0023f1f5    10 FUNC    GLOBAL DEFAULT    8 Java_org_webrtc_VideoTrack_nativeRemoveRenderer
   185: 0023f1ff    26 FUNC    GLOBAL DEFAULT    8 Java_org_webrtc_CallSessionFileRotatingLogSink_nativeDeleteSink
   186: 0023f219    10 FUNC    GLOBAL DEFAULT    8 Java_org_webrtc_RtpSender_nativeSetTrack
   187: 0023f223    44 FUNC    GLOBAL DEFAULT    8 Java_org_webrtc_RtpSender_nativeGetTrack
   188: 0023f24f     8 FUNC    GLOBAL DEFAULT    8 Java_org_webrtc_RtpSender_free
   189: 0023f257    44 FUNC    GLOBAL DEFAULT    8 Java_org_webrtc_RtpReceiver_nativeGetTrack
   190: 0023f283     8 FUNC    GLOBAL DEFAULT    8 Java_org_webrtc_RtpReceiver_free
   191: 0023f28d    68 FUNC    GLOBAL DEFAULT    8 Java_org_webrtc_DataChannel_label
   192: 0023f2d1    64 FUNC    GLOBAL DEFAULT    8 Java_org_webrtc_MediaStream_nativeLabel
   193: 0023f311    64 FUNC    GLOBAL DEFAULT    8 Java_org_webrtc_MediaStreamTrack_nativeId
   194: 0023f351    64 FUNC    GLOBAL DEFAULT    8 Java_org_webrtc_MediaStreamTrack_nativeKind
   195: 0023f391    64 FUNC    GLOBAL DEFAULT    8 Java_org_webrtc_RtpSender_nativeId
   196: 0023f3d1    64 FUNC    GLOBAL DEFAULT    8 Java_org_webrtc_RtpReceiver_nativeId
   197: 0023f4dd    44 FUNC    GLOBAL DEFAULT    8 Java_org_webrtc_PeerConnection_nativeAddLocalStream
   198: 0023f509    40 FUNC    GLOBAL DEFAULT    8 Java_org_webrtc_PeerConnection_nativeRemoveLocalStream
   199: 0023f531    34 FUNC    GLOBAL DEFAULT    8 Java_org_webrtc_PeerConnection_close
   200: 0023f555   144 FUNC    GLOBAL DEFAULT    8 Java_org_webrtc_PeerConnection_nativeAddIceCandidate
   201: 0023f82d   228 FUNC    GLOBAL DEFAULT    8 Java_org_webrtc_PeerConnectionFactory_nativeSetOptions
   202: 0023f911   104 FUNC    GLOBAL DEFAULT    8 Java_org_webrtc_PeerConnectionFactory_nativeCreateLocalMediaStream
   203: 0023f979   108 FUNC    GLOBAL DEFAULT    8 Java_org_webrtc_PeerConnectionFactory_nativeCreateVideoTrack
   204: 0023f9e5   108 FUNC    GLOBAL DEFAULT    8 Java_org_webrtc_PeerConnectionFactory_nativeCreateAudioTrack
   205: 0023fc79    28 FUNC    GLOBAL DEFAULT    8 Java_org_webrtc_PeerConnectionFactory_nativeCreateObserver
   206: 0023fc95   308 FUNC    GLOBAL DEFAULT    8 Java_org_webrtc_PeerConnection_nativeGetStats
   207: 0023fdc9   320 FUNC    GLOBAL DEFAULT    8 Java_org_webrtc_DataChannel_registerObserverNative
   208: 0024048d   112 FUNC    GLOBAL DEFAULT    8 Java_org_webrtc_DataChannel_dispose
   209: 002404fd   228 FUNC    GLOBAL DEFAULT    8 Java_org_webrtc_Logging_nativeEnableTracing
   210: 002405e1   112 FUNC    GLOBAL DEFAULT    8 Java_org_webrtc_PeerConnection_freePeerConnection
   211: 00240651   112 FUNC    GLOBAL DEFAULT    8 Java_org_webrtc_MediaSource_free
   212: 002407c9   112 FUNC    GLOBAL DEFAULT    8 Java_org_webrtc_MediaStream_free
   213: 00240839   260 FUNC    GLOBAL DEFAULT    8 Java_org_webrtc_PeerConnectionFactory_initializeFieldTrials
   214: 008958dd     4 FUNC    WEAK   DEFAULT    8 _Znaj
   215: 00240be1     6 FUNC    GLOBAL DEFAULT    8 Java_org_webrtc_PeerConnectionFactory_nativeThreadsCallbacks
   216: 00240be9   124 FUNC    GLOBAL DEFAULT    8 Java_org_webrtc_PeerConnectionFactory_nativeSetVideoHwAccelerationOptions
   217: 00240d0d   720 FUNC    GLOBAL DEFAULT    8 Java_org_webrtc_VideoRenderer_nativeCopyPlane
   218: 002416f5   600 FUNC    GLOBAL DEFAULT    8 Java_org_webrtc_PeerConnectionFactory_nativeCreatePeerConnectionFactory
   219: 00241ae5    94 FUNC    GLOBAL DEFAULT    8 Java_org_webrtc_PeerConnection_setLocalDescription
   220: 00241b43    94 FUNC    GLOBAL DEFAULT    8 Java_org_webrtc_PeerConnection_setRemoteDescription
   221: 00241ba1   800 FUNC    GLOBAL DEFAULT    8 Java_org_webrtc_VideoCapturer_nativeCreateVideoCapturer
   222: 0024205d    28 FUNC    GLOBAL DEFAULT    8 Java_org_webrtc_VideoRenderer_nativeWrapVideoRenderer
   223: 002426c9    76 FUNC    GLOBAL DEFAULT    8 Java_org_webrtc_PeerConnectionFactory_nativeCreateVideoSource
   224: 00242715    70 FUNC    GLOBAL DEFAULT    8 Java_org_webrtc_PeerConnectionFactory_nativeCreateAudioSource
   225: 0024275b    98 FUNC    GLOBAL DEFAULT    8 Java_org_webrtc_PeerConnection_createOffer
   226: 002427bd    98 FUNC    GLOBAL DEFAULT    8 Java_org_webrtc_PeerConnection_createAnswer
   227: 00242821   836 FUNC    GLOBAL DEFAULT    8 Java_org_webrtc_PeerConnection_nativeGetSenders
   228: 00242b65   836 FUNC    GLOBAL DEFAULT    8 Java_org_webrtc_PeerConnection_nativeGetReceivers
   229: 00242ea9   176 FUNC    GLOBAL DEFAULT    8 Java_org_webrtc_PeerConnectionFactory_nativeFreeFactory
   230: 00242f59   132 FUNC    GLOBAL DEFAULT    8 Java_org_webrtc_Logging_nativeLog
   231: 00242fdd   184 FUNC    GLOBAL DEFAULT    8 Java_org_webrtc_CallSessionFileRotatingLogSink_nativeAddSink
   232: 00243095   348 FUNC    GLOBAL DEFAULT    8 Java_org_webrtc_CallSessionFileRotatingLogSink_nativeGetLogData
   233: 00000000     0 FUNC    GLOBAL DEFAULT  UND malloc
   234: 002435f1    50 FUNC    GLOBAL DEFAULT    8 Java_org_webrtc_PeerConnection_getLocalDescription
   235: 00243623    50 FUNC    GLOBAL DEFAULT    8 Java_org_webrtc_PeerConnection_getRemoteDescription
   236: 00244105    88 FUNC    GLOBAL DEFAULT    8 Java_org_webrtc_DataChannel_state
   237: 00244555   100 FUNC    GLOBAL DEFAULT    8 Java_org_webrtc_PeerConnection_signalingState
   238: 002445b9   100 FUNC    GLOBAL DEFAULT    8 Java_org_webrtc_PeerConnection_iceConnectionState
   239: 0024461d   100 FUNC    GLOBAL DEFAULT    8 Java_org_webrtc_PeerConnection_iceGatheringState
   240: 00244681   100 FUNC    GLOBAL DEFAULT    8 Java_org_webrtc_MediaSource_nativeState
   241: 002446e5    80 FUNC    GLOBAL DEFAULT    8 Java_org_webrtc_MediaStreamTrack_nativeState
   242: 00244e31   988 FUNC    GLOBAL DEFAULT    8 Java_org_webrtc_PeerConnection_createDataChannel
   243: 00246739   106 FUNC    GLOBAL DEFAULT    8 Java_org_webrtc_PeerConnection_setConfiguration
   244: 0024685d   712 FUNC    GLOBAL DEFAULT    8 Java_org_webrtc_PeerConnectionFactory_nativeCreatePeerConnection
   245: 00246d51   132 FUNC    GLOBAL DEFAULT    8 Java_org_webrtc_DataChannel_bufferedAmount
   246: 0024738d    96 FUNC    GLOBAL DEFAULT    8 Java_org_webrtc_VideoCapturerAndroid_nativeCreateVideoCapturer
   247: 00247f09   120 FUNC    GLOBAL DEFAULT    8 Java_org_webrtc_VideoCapturerAndroid_00024NativeObserver_nativeCapturerStarted
   248: 002481e5   248 FUNC    GLOBAL DEFAULT    8 Java_org_webrtc_VideoCapturerAndroid_00024NativeObserver_nativeOnByteBufferFrameCaptured
   249: 002483c9    44 FUNC    GLOBAL DEFAULT    8 Java_org_webrtc_VideoCapturerAndroid_00024NativeObserver_nativeOnTextureFrameCaptured
   250: 0024856d   112 FUNC    GLOBAL DEFAULT    8 Java_org_webrtc_VideoCapturerAndroid_00024NativeObserver_nativeOnOutputFormatRequest
   251: 0089590d     4 FUNC    WEAK   DEFAULT    8 _ZdaPv
   252: 00248b99   112 FUNC    WEAK   DEFAULT    8 _ZNSt3__16vectorIxNS_9allocatorIxEEE21__push_back_slow_pathIxEEvOT_
   253: 00000000     0 FUNC    GLOBAL DEFAULT  UND lrand48
   254: 0024d0b1    82 FUNC    WEAK   DEFAULT    8 _ZNSt3__112basic_stringIcNS_11char_traitsIcEENS_9allocatorIcEEE6__initIPKcEENS_9enable_ifIXsrNS_21__is_forward_iteratorIT_EE5valueEvE4typeESB_SB_
   255: 008ca0dc    32 FUNC    GLOBAL DEFAULT    8 __aeabi_idivmod
   256: 00000000     0 FUNC    GLOBAL DEFAULT  UND sscanf
   257: 008ca910     0 FUNC    GLOBAL DEFAULT    8 __aeabi_uldivmod
   258: 00000000     0 FUNC    GLOBAL DEFAULT  UND fprintf
   259: 00000000     0 FUNC    GLOBAL DEFAULT  UND strcpy
   260: 00000000     0 FUNC    GLOBAL DEFAULT  UND exit
   261: 00000000     0 OBJECT  GLOBAL DEFAULT  UND __sF
   262: 00000000     0 FUNC    GLOBAL DEFAULT  UND free
   263: 00000000     0 FUNC    GLOBAL DEFAULT  UND strcmp
   264: 008ca61c    96 FUNC    GLOBAL DEFAULT    8 __aeabi_l2d
   265: 008ca608   116 FUNC    GLOBAL DEFAULT    8 __aeabi_ul2d
   266: 008ca850   124 FUNC    GLOBAL DEFAULT    8 __aeabi_l2f
   267: 008ca840   140 FUNC    GLOBAL DEFAULT    8 __aeabi_ul2f
   268: 00000000     0 FUNC    GLOBAL DEFAULT  UND modf
   269: 008ca9dc    68 FUNC    GLOBAL DEFAULT    8 __aeabi_d2lz
   270: 008caa8c   104 FUNC    GLOBAL DEFAULT    8 __aeabi_d2ulz
   271: 00000000     0 FUNC    GLOBAL DEFAULT  UND strchr
   272: 0025e527    68 FUNC    WEAK   DEFAULT    8 _ZNSt3__16vectorIjNS_9allocatorIjEEEC2ERKS3_
   273: 0025e527    68 FUNC    WEAK   DEFAULT    8 _ZNSt3__16vectorIjNS_9allocatorIjEEEC1ERKS3_
   274: 00000000     0 FUNC    GLOBAL DEFAULT  UND memchr
   275: 00a74160    40 OBJECT  WEAK   DEFAULT   14 _ZTVNSt3__113basic_istreamIcNS_11char_traitsIcEEEE
   276: 00a74198    40 OBJECT  WEAK   DEFAULT   14 _ZTVNSt3__119basic_istringstreamIcNS_11char_traitsIcEENS_9allocatorIcEEEE
   277: 00a74188    16 OBJECT  WEAK   DEFAULT   14 _ZTTNSt3__119basic_istringstreamIcNS_11char_traitsIcEENS_9allocatorIcEEEE
   278: 00263131     8 FUNC    WEAK   DEFAULT    8 _ZNSt3__119basic_istringstreamIcNS_11char_traitsIcEENS_9allocatorIcEEED1Ev
   279: 00263139    12 FUNC    WEAK   DEFAULT    8 _ZTv0_n12_NSt3__119basic_istringstreamIcNS_11char_traitsIcEENS_9allocatorIcEEED1Ev
   280: 00263fab    18 FUNC    WEAK   DEFAULT    8 _ZNSt3__119basic_istringstreamIcNS_11char_traitsIcEENS_9allocatorIcEEED0Ev
   281: 00263fbd    12 FUNC    WEAK   DEFAULT    8 _ZTv0_n12_NSt3__119basic_istringstreamIcNS_11char_traitsIcEENS_9allocatorIcEEED0Ev
   282: 00263fc9     8 FUNC    WEAK   DEFAULT    8 _ZNSt3__119basic_istringstreamIcNS_11char_traitsIcEENS_9allocatorIcEEED2Ev
   283: 00a74158     8 OBJECT  WEAK   DEFAULT   14 _ZTTNSt3__113basic_istreamIcNS_11char_traitsIcEEEE
   284: 00000000     0 OBJECT  GLOBAL DEFAULT  UND _toupper_tab_
   285: 008c9f38     0 FUNC    GLOBAL DEFAULT    8 __aeabi_uidiv
   286: 00000000     0 FUNC    GLOBAL DEFAULT  UND sqrtf
   287: 0026c7f9    54 FUNC    WEAK   DEFAULT    8 _ZNSt3__16vectorIiNS_9allocatorIiEEEC2Ej
   288: 0026c7f9    54 FUNC    WEAK   DEFAULT    8 _ZNSt3__16vectorIiNS_9allocatorIiEEEC1Ej
   289: 0026c82f    60 FUNC    WEAK   DEFAULT    8 _ZNSt3__16vectorIdNS_9allocatorIdEEEC2Ej
   290: 0026c82f    60 FUNC    WEAK   DEFAULT    8 _ZNSt3__16vectorIdNS_9allocatorIdEEEC1Ej
   291: 00000000     0 FUNC    GLOBAL DEFAULT  UND strcasecmp
   292: 0026ffb1   254 FUNC    WEAK   DEFAULT    8 _ZNSt3__13mapINS_12basic_stringIcNS_11char_traitsIcEENS_9allocatorIcEEEES6_NS_4lessIS6_EENS4_INS_4pairIKS6_S6_EEEEEixERSA_
   293: 00000000     0 FUNC    GLOBAL DEFAULT  UND strncpy
   294: 0027dc0d   120 FUNC    WEAK   DEFAULT    8 _ZNSt3__13mapIjjNS_4lessIjEENS_9allocatorINS_4pairIKjjEEEEEixERS5_
   295: 00000000     0 FUNC    GLOBAL DEFAULT  UND slCreateEngine
   296: 00000000     0 OBJECT  GLOBAL DEFAULT  UND SL_IID_ENGINE
   297: 00000000     0 OBJECT  GLOBAL DEFAULT  UND SL_IID_ANDROIDCONFIGURATION
   298: 00000000     0 OBJECT  GLOBAL DEFAULT  UND SL_IID_BUFFERQUEUE
   299: 00000000     0 OBJECT  GLOBAL DEFAULT  UND SL_IID_VOLUME
   300: 00000000     0 OBJECT  GLOBAL DEFAULT  UND SL_IID_PLAY
   301: 00286c7b    36 FUNC    WEAK   DEFAULT    8 _ZNSt3__14listIiNS_9allocatorIiEEE9push_backERKi
   302: 00000000     0 FUNC    GLOBAL DEFAULT  UND gettid
   303: 00000000     0 FUNC    GLOBAL DEFAULT  UND __aeabi_atexit
   304: 00000000     0 FUNC    GLOBAL DEFAULT  UND strncasecmp
   305: 008ca9a4    56 FUNC    GLOBAL DEFAULT    8 __aeabi_f2lz
   306: 0028f4bd   108 FUNC    WEAK   DEFAULT    8 _ZNSt3__16vectorIPKNS_3setItNS_4lessItEENS_9allocatorItEEEENS4_IS8_EEE21__push_back_slow_pathIS8_EEvOT_
   307: 0028fc2d   276 FUNC    WEAK   DEFAULT    8 _ZNSt3__16vectorIsNS_9allocatorIsEEE6insertIPKsEENS_9enable_ifIXaasrNS_21__is_forward_iteratorIT_EE5valuesrNS_16is_constructibleIsJNS_15iterator_traitsIS9_E9referenceEEEE5valueENS_11__wrap_iterIPsEEE4typeENSG_IS6_EES9_S9_
   308: 00000000     0 FUNC    GLOBAL DEFAULT  UND log10
   309: 00297e55    62 FUNC    GLOBAL DEFAULT    8 _ZN6webrtc24DownmixInterleavedToMonoIsEEvPKT_jiPS1_
   310: 00000000     0 FUNC    GLOBAL DEFAULT  UND floorf
   311: 00000000     0 FUNC    GLOBAL DEFAULT  UND floor
   312: 00000000     0 FUNC    GLOBAL DEFAULT  UND cosf
   313: 00000000     0 FUNC    GLOBAL DEFAULT  UND sinf
   314: 00000000     0 FUNC    GLOBAL DEFAULT  UND cos
   315: 00000000     0 FUNC    GLOBAL DEFAULT  UND sin
   316: 00000000     0 FUNC    GLOBAL DEFAULT  UND powf
   317: 00000000     0 FUNC    GLOBAL DEFAULT  UND qsort
   318: 00000000     0 FUNC    GLOBAL DEFAULT  UND log
   319: 00a76d50    60 OBJECT  WEAK   DEFAULT   14 _ZTVNSt3__114basic_iostreamIcNS_11char_traitsIcEEEE
   320: 00a76d30    28 OBJECT  WEAK   DEFAULT   14 _ZTTNSt3__114basic_iostreamIcNS_11char_traitsIcEEEE
   321: 00a76db8    60 OBJECT  WEAK   DEFAULT   14 _ZTVNSt3__118basic_stringstreamIcNS_11char_traitsIcEENS_9allocatorIcEEEE
   322: 00a76d90    40 OBJECT  WEAK   DEFAULT   14 _ZTTNSt3__118basic_stringstreamIcNS_11char_traitsIcEENS_9allocatorIcEEEE
   323: 0029b501     8 FUNC    WEAK   DEFAULT    8 _ZNSt3__118basic_stringstreamIcNS_11char_traitsIcEENS_9allocatorIcEEED1Ev
   324: 0029b509     8 FUNC    WEAK   DEFAULT    8 _ZThn8_NSt3__118basic_stringstreamIcNS_11char_traitsIcEENS_9allocatorIcEEED1Ev
   325: 0029b511    12 FUNC    WEAK   DEFAULT    8 _ZTv0_n12_NSt3__118basic_stringstreamIcNS_11char_traitsIcEENS_9allocatorIcEEED1Ev
   326: 0029b67d    18 FUNC    WEAK   DEFAULT    8 _ZNSt3__118basic_stringstreamIcNS_11char_traitsIcEENS_9allocatorIcEEED0Ev
   327: 0029b68f     8 FUNC    WEAK   DEFAULT    8 _ZThn8_NSt3__118basic_stringstreamIcNS_11char_traitsIcEENS_9allocatorIcEEED0Ev
   328: 0029b697    12 FUNC    WEAK   DEFAULT    8 _ZTv0_n12_NSt3__118basic_stringstreamIcNS_11char_traitsIcEENS_9allocatorIcEEED0Ev
   329: 0029ba17     8 FUNC    WEAK   DEFAULT    8 _ZNSt3__118basic_stringstreamIcNS_11char_traitsIcEENS_9allocatorIcEEED2Ev
   330: 0029caf5    60 FUNC    WEAK   DEFAULT    8 _ZNSt3__16vectorINS_12basic_stringIcNS_11char_traitsIcEENS_9allocatorIcEEEENS4_IS6_EEEC2ERKS8_
   331: 0029caf5    60 FUNC    WEAK   DEFAULT    8 _ZNSt3__16vectorINS_12basic_stringIcNS_11char_traitsIcEENS_9allocatorIcEEEENS4_IS6_EEEC1ERKS8_
   332: 0029cb65    42 FUNC    WEAK   DEFAULT    8 _ZNSt3__16vectorINS_12basic_stringIcNS_11char_traitsIcEENS_9allocatorIcEEEENS4_IS6_EEE10deallocateEv
   333: 00000000     0 FUNC    GLOBAL DEFAULT  UND round
   334: 00000000     0 FUNC    GLOBAL DEFAULT  UND fwrite
   335: 00000000     0 FUNC    GLOBAL DEFAULT  UND pthread_attr_init
   336: 00000000     0 FUNC    GLOBAL DEFAULT  UND pthread_attr_setstacksize
   337: 00000000     0 FUNC    GLOBAL DEFAULT  UND pthread_create
   338: 00000000     0 FUNC    GLOBAL DEFAULT  UND pthread_attr_destroy
   339: 00000000     0 FUNC    GLOBAL DEFAULT  UND pthread_join
   340: 00000000     0 FUNC    GLOBAL DEFAULT  UND sched_get_priority_min
   341: 00000000     0 FUNC    GLOBAL DEFAULT  UND sched_get_priority_max
   342: 00000000     0 FUNC    GLOBAL DEFAULT  UND pthread_setschedparam
   343: 00000000     0 FUNC    GLOBAL DEFAULT  UND clock_gettime
   344: 00000000     0 FUNC    GLOBAL DEFAULT  UND strrchr
   345: 00000000     0 FUNC    GLOBAL DEFAULT  UND fclose
   346: 00000000     0 FUNC    GLOBAL DEFAULT  UND fseek
   347: 00000000     0 FUNC    GLOBAL DEFAULT  UND fopen
   348: 00000000     0 FUNC    GLOBAL DEFAULT  UND fread
   349: 00000000     0 FUNC    GLOBAL DEFAULT  UND fflush
   350: 00000000     0 FUNC    GLOBAL DEFAULT  UND gettimeofday
   351: 00000000     0 FUNC    GLOBAL DEFAULT  UND gmtime_r
   352: 00000000     0 FUNC    GLOBAL DEFAULT  UND sysconf
   353: 00000000     0 FUNC    GLOBAL DEFAULT  UND strncmp
   354: 00000000     0 FUNC    GLOBAL DEFAULT  UND strtoul
   355: 002a7fe9   484 FUNC    WEAK   DEFAULT    8 _ZNSt3__16vectorINS_12basic_stringIcNS_11char_traitsIcEENS_9allocatorIcEEEENS4_IS6_EEE6insertINS_11__wrap_iterIPS6_EEEENS_9enable_ifIXaasrNS_21__is_forward_iteratorIT_EE5valuesrNS_16is_constructibleIS6_JNS_15iterator_traitsISF_E9referenceEEEE5valueESC_E4typeENSA_IPKS6_EESF_SF_
   356: 00000000     0 FUNC    GLOBAL DEFAULT  UND pthread_self
   357: 00000000     0 FUNC    GLOBAL DEFAULT  UND pthread_equal
   358: 00000000     0 FUNC    GLOBAL DEFAULT  UND fdopen
   359: 00000000     0 FUNC    GLOBAL DEFAULT  UND close
   360: 00000000     0 FUNC    GLOBAL DEFAULT  UND time
   361: 00000000     0 FUNC    GLOBAL DEFAULT  UND __android_log_write
   362: 00000000     0 FUNC    GLOBAL DEFAULT  UND fputs
   363: 00000000     0 FUNC    GLOBAL DEFAULT  UND strerror
   364: 00000000     0 OBJECT  GLOBAL DEFAULT  UND _ctype_
   365: 00000000     0 FUNC    GLOBAL DEFAULT  UND pthread_mutex_destroy
   366: 00000000     0 FUNC    GLOBAL DEFAULT  UND pthread_cond_destroy
   367: 00000000     0 FUNC    GLOBAL DEFAULT  UND pthread_mutex_lock
   368: 00000000     0 FUNC    GLOBAL DEFAULT  UND pthread_cond_broadcast
   369: 00000000     0 FUNC    GLOBAL DEFAULT  UND pthread_mutex_unlock
   370: 00000000     0 FUNC    GLOBAL DEFAULT  UND pthread_cond_timedwait_relative_np
   371: 00000000     0 FUNC    GLOBAL DEFAULT  UND pthread_cond_wait
   372: 00000000     0 FUNC    GLOBAL DEFAULT  UND pthread_mutex_init
   373: 00000000     0 FUNC    GLOBAL DEFAULT  UND pthread_cond_init
   374: 00000000     0 FUNC    GLOBAL DEFAULT  UND pthread_mutexattr_init
   375: 00000000     0 FUNC    GLOBAL DEFAULT  UND pthread_mutexattr_settype
   376: 00000000     0 FUNC    GLOBAL DEFAULT  UND pthread_mutexattr_destroy
   377: 00000000     0 FUNC    GLOBAL DEFAULT  UND pthread_mutex_trylock
   378: 00000000     0 FUNC    GLOBAL DEFAULT  UND nanosleep
   379: 00000000     0 FUNC    GLOBAL DEFAULT  UND __android_log_vprint
   380: 00000000     0 FUNC    GLOBAL DEFAULT  UND abort
   381: 008ca2a8    28 FUNC    GLOBAL DEFAULT    8 __aeabi_llsl
   382: 00000000     0 FUNC    GLOBAL DEFAULT  UND __errno
   383: 00000000     0 FUNC    GLOBAL DEFAULT  UND pthread_key_delete
   384: 00000000     0 FUNC    GLOBAL DEFAULT  UND pthread_attr_setschedpolicy
   385: 00000000     0 FUNC    GLOBAL DEFAULT  UND pthread_attr_getschedparam
   386: 00000000     0 FUNC    GLOBAL DEFAULT  UND pthread_attr_setschedparam
   387: 00000000     0 FUNC    GLOBAL DEFAULT  UND setvbuf
   388: 00000000     0 FUNC    GLOBAL DEFAULT  UND ftell
   389: 00000000     0 FUNC    GLOBAL DEFAULT  UND fstat
   390: 00000000     0 FUNC    GLOBAL DEFAULT  UND stat
   391: 00000000     0 FUNC    GLOBAL DEFAULT  UND flock
   392: 00000000     0 FUNC    GLOBAL DEFAULT  UND inet_ntop
   393: 00000000     0 FUNC    GLOBAL DEFAULT  UND inet_pton
   394: 00000000     0 FUNC    GLOBAL DEFAULT  UND getaddrinfo
   395: 00000000     0 FUNC    GLOBAL DEFAULT  UND freeaddrinfo
   396: 00000000     0 FUNC    GLOBAL DEFAULT  UND if_indextoname
   397: 00000000     0 FUNC    GLOBAL DEFAULT  UND socket
   398: 00000000     0 FUNC    GLOBAL DEFAULT  UND ioctl
   399: 00000000     0 FUNC    GLOBAL DEFAULT  UND send
   400: 00000000     0 FUNC    GLOBAL DEFAULT  UND recv
   401: 00000000     0 FUNC    GLOBAL DEFAULT  UND closedir
   402: 00000000     0 FUNC    GLOBAL DEFAULT  UND opendir
   403: 00000000     0 FUNC    GLOBAL DEFAULT  UND readdir
   404: 00000000     0 FUNC    GLOBAL DEFAULT  UND puts
   405: 002b7b79   156 FUNC    WEAK   DEFAULT    8 _ZNSt3__16vectorIhNS_9allocatorIhEEE8__appendEj
   406: 002b81f1   100 FUNC    WEAK   DEFAULT    8 _ZNSt3__16vectorIcNS_9allocatorIcEEE21__push_back_slow_pathIcEEvOT_
   407: 00000000     0 FUNC    GLOBAL DEFAULT  UND ceil
   408: 00a9b340     4 OBJECT  GLOBAL DEFAULT   19 _ZN9twiliosdk6TSCSDK10s_instanceE
   409: 002be415    28 FUNC    WEAK   DEFAULT    8 _ZNSt3__113unordered_mapIiNS_12basic_stringIcNS_11char_traitsIcEENS_9allocatorIcEEEENS_4hashIiEENS_8equal_toIiEENS4_INS_4pairIKiS6_EEEEED2Ev
   410: 002be4bd   158 FUNC    WEAK   DEFAULT    8 _ZNSt3__112__hash_tableINS_17__hash_value_typeIiNS_12basic_stringIcNS_11char_traitsIcEENS_9allocatorIcEEEEEENS_22__unordered_map_hasherIiS8_NS_4hashIiEELb1EEENS_21__unordered_map_equalIiS8_NS_8equal_toIiEELb1EEENS5_IS8_EEED1Ev
   411: 002be415    28 FUNC    WEAK   DEFAULT    8 _ZNSt3__113unordered_mapIiNS_12basic_stringIcNS_11char_traitsIcEENS_9allocatorIcEEEENS_4hashIiEENS_8equal_toIiEENS4_INS_4pairIKiS6_EEEEED1Ev
   412: 002be431    28 FUNC    WEAK   DEFAULT    8 _ZNSt3__14listINS_10shared_ptrIN9twiliosdk11TSCEndpointEEENS_9allocatorIS4_EEED2Ev
   413: 002be55d    26 FUNC    WEAK   DEFAULT    8 _ZNSt3__110__list_impINS_10shared_ptrIN9twiliosdk11TSCEndpointEEENS_9allocatorIS4_EEED2Ev
   414: 002be431    28 FUNC    WEAK   DEFAULT    8 _ZNSt3__14listINS_10shared_ptrIN9twiliosdk11TSCEndpointEEENS_9allocatorIS4_EEED1Ev
   415: 002be44d    28 FUNC    WEAK   DEFAULT    8 _ZN3rtc10scoped_ptrINS_12AsyncInvokerENS_14DefaultDeleterIS1_EEED2Ev
   416: 002be599    42 FUNC    WEAK   DEFAULT    8 _ZN3rtc8internal15scoped_ptr_implINS_12AsyncInvokerENS_14DefaultDeleterIS2_EEED1Ev
   417: 002be44d    28 FUNC    WEAK   DEFAULT    8 _ZN3rtc10scoped_ptrINS_12AsyncInvokerENS_14DefaultDeleterIS1_EEED1Ev
   418: 002be469    28 FUNC    WEAK   DEFAULT    8 _ZN3rtc10scoped_ptrINS_6ThreadENS_14DefaultDeleterIS1_EEED2Ev
   419: 002be469    28 FUNC    WEAK   DEFAULT    8 _ZN3rtc10scoped_ptrINS_6ThreadENS_14DefaultDeleterIS1_EEED1Ev
   420: 002baf21   768 FUNC    GLOBAL DEFAULT    8 _ZN9twiliosdk6TSCSDKC2Ev
   421: 002be579    30 FUNC    WEAK   DEFAULT    8 _ZN3rtc10scoped_ptrINS_12AsyncInvokerENS_14DefaultDeleterIS1_EEEC1Ev
   422: 002be5c5    30 FUNC    WEAK   DEFAULT    8 _ZN3rtc10scoped_ptrINS_6ThreadENS_14DefaultDeleterIS1_EEEC1Ev
   423: 002be5e5    26 FUNC    WEAK   DEFAULT    8 _ZN3rtc10scoped_ptrINS_12AsyncInvokerENS_14DefaultDeleterIS1_EEE5resetEPS1_
   424: 002be601    26 FUNC    WEAK   DEFAULT    8 _ZN3rtc10scoped_ptrINS_6ThreadENS_14DefaultDeleterIS1_EEE5resetEPS1_
   425: 002be61d    80 FUNC    WEAK   DEFAULT    8 _ZNK3rtc10scoped_ptrINS_6ThreadENS_14DefaultDeleterIS1_EEEptEv
   426: 002bb8d5  1188 FUNC    GLOBAL DEFAULT    8 _ZN9twiliosdk6TSCSDK17initErrorMessagesEv
   427: 003d58b9   200 FUNC    GLOBAL DEFAULT    8 _ZN9twiliosdk11Resiprocate9initStackEv
   428: 00a78008    16 OBJECT  GLOBAL DEFAULT   14 _ZTVN9twiliosdk6TSCSDKE
   429: 002baf21   768 FUNC    GLOBAL DEFAULT    8 _ZN9twiliosdk6TSCSDKC1Ev
   430: 002bb221   160 FUNC    GLOBAL DEFAULT    8 _ZN9twiliosdk6TSCSDKD2Ev
   431: 002e1ee1   132 FUNC    GLOBAL DEFAULT    8 _ZN9twiliosdk22TSCSessionMediaContext16stopWorkerThreadEv
   432: 003d58a1    24 FUNC    GLOBAL DEFAULT    8 _ZN9twiliosdk11Resiprocate12destroyStackEv
   433: 002bef7d   190 FUNC    WEAK   DEFAULT    8 _ZNSt3__112__hash_tableINS_17__hash_value_typeIiNS_12basic_stringIcNS_11char_traitsIcEENS_9allocatorIcEEEEEENS_22__unordered_map_hasherIiS8_NS_4hashIiEELb1EEENS_21__unordered_map_equalIiS8_NS_8equal_toIiEELb1EEENS5_IS8_EEE5clearEv
   434: 002bb221   160 FUNC    GLOBAL DEFAULT    8 _ZN9twiliosdk6TSCSDKD1Ev
   435: 002bb2c1    32 FUNC    GLOBAL DEFAULT    8 _ZN9twiliosdk6TSCSDKD0Ev
   436: 002bb3d1   168 FUNC    GLOBAL DEFAULT    8 _ZN9twiliosdk6TSCSDK18enableStackTracingEv
   437: 003d57fd    16 FUNC    GLOBAL DEFAULT    8 _ZN9twiliosdk13TSCStackTrace15isBeingDebuggedEv
   438: 003d573d   104 FUNC    GLOBAL DEFAULT    8 _ZN9twiliosdk13TSCStackTraceC1Ev
   439: 002c950d   828 FUNC    GLOBAL DEFAULT    8 _ZN9twiliosdk11TSCEndpointC1ERKNSt3__13mapINS1_12basic_stringIcNS1_11char_traitsIcEENS1_9allocatorIcEEEES8_NS1_4lessIS8_EENS6_INS1_4pairIKS8_S8_EEEEEEPN12TwilioCommon13AccessManagerERKNS1_10shared_ptrINS_19TSCEndpointObserverEEE
   440: 002be66d   624 FUNC    WEAK   DEFAULT    8 _ZNSt3__110shared_ptrIN9twiliosdk11TSCEndpointEEC1IS2_EEPT_NS_9enable_ifIXsrNS_14is_convertibleIS6_PS2_EE5valueENS3_5__natEE4typeE
   441: 002be8dd   808 FUNC    WEAK   DEFAULT    8 _ZNSt3__14listINS_10shared_ptrIN9twiliosdk11TSCEndpointEEENS_9allocatorIS4_EEE9push_backERKS4_
   442: 002bec05   166 FUNC    WEAK   DEFAULT    8 _ZNSt3__14listINS_10shared_ptrIN9twiliosdk11TSCEndpointEEENS_9allocatorIS4_EEE5eraseENS_21__list_const_iteratorIS4_PvEE
   443: 002bb775    24 FUNC    GLOBAL DEFAULT    8 _ZN9twiliosdk6TSCSDK19createDeviceManagerEv
   444: 002d3bcd   160 FUNC    GLOBAL DEFAULT    8 _ZN9twiliosdk16TSCDeviceManager8instanceEv
   445: 002bb78d    24 FUNC    GLOBAL DEFAULT    8 _ZN9twiliosdk6TSCSDK21getMediaCodecRegistryEv
   446: 003e49b9   160 FUNC    GLOBAL DEFAULT    8 _ZN9twiliosdk21TSCMediaCodecRegistry8instanceEv
   447: 002bb7a5    30 FUNC    GLOBAL DEFAULT    8 _ZN9twiliosdk6TSCSDK23setPlatformDataProviderERKN3rtc13scoped_refptrINS_23TSCPlatformDataProviderEEE
   448: 002c336d   160 FUNC    GLOBAL DEFAULT    8 _ZN9twiliosdk15TSCPlatformInfo8instanceEv
   449: 002c34b1    70 FUNC    GLOBAL DEFAULT    8 _ZN9twiliosdk15TSCPlatformInfo23setPlatformDataProviderERKN3rtc13scoped_refptrINS_23TSCPlatformDataProviderEEE
   450: 002bb7c5    36 FUNC    GLOBAL DEFAULT    8 _ZNK9twiliosdk6TSCSDK15getPlatformInfoEv
   451: 002c340d   164 FUNC    GLOBAL DEFAULT    8 _ZN9twiliosdk15TSCPlatformInfo9getReportEv
   452: 002bb7e9   156 FUNC    GLOBAL DEFAULT    8 _ZNK9twiliosdk6TSCSDK15getErrorMessageEi
   453: 002bf03d   408 FUNC    WEAK   DEFAULT    8 _ZNKSt3__112__hash_tableINS_17__hash_value_typeIiNS_12basic_stringIcNS_11char_traitsIcEENS_9allocatorIcEEEEEENS_22__unordered_map_hasherIiS8_NS_4hashIiEELb1EEENS_21__unordered_map_equalIiS8_NS_8equal_toIiEELb1EEENS5_IS8_EEE4findIiEENS_21__hash_const_iteratorIPNS_11__hash_nodeIS8_PvEEEERKT_
   454: 002bb885    18 FUNC    GLOBAL DEFAULT    8 _ZN9twiliosdk6TSCSDK14onGoingToSleepEv
   455: 003d7ce5   200 FUNC    GLOBAL DEFAULT    8 _ZN9twiliosdk11Resiprocate14onGoingToSleepEv
   456: 002bb899    18 FUNC    GLOBAL DEFAULT    8 _ZN9twiliosdk6TSCSDK16onCompleteWakeUpEv
   457: 003d7dad    84 FUNC    GLOBAL DEFAULT    8 _ZN9twiliosdk11Resiprocate16onCompleteWakeUpEv
   458: 002bb8ad    18 FUNC    GLOBAL DEFAULT    8 _ZN9twiliosdk6TSCSDK13onShortWakeUpEv
   459: 003d7e01   256 FUNC    GLOBAL DEFAULT    8 _ZN9twiliosdk11Resiprocate13onShortWakeUpEv
   460: 003d7f01   124 FUNC    GLOBAL DEFAULT    8 _ZN9twiliosdk11Resiprocate20refreshRegistrationsEv
   461: 002be485    30 FUNC    WEAK   DEFAULT    8 _ZNSt3__14pairIKiNS_12basic_stringIcNS_11char_traitsIcEENS_9allocatorIcEEEEED2Ev
   462: 002be485    30 FUNC    WEAK   DEFAULT    8 _ZNSt3__14pairIKiNS_12basic_stringIcNS_11char_traitsIcEENS_9allocatorIcEEEEED1Ev
   463: 002bf1d5  1018 FUNC    WEAK   DEFAULT    8 _ZNSt3__112__hash_tableINS_17__hash_value_typeIiNS_12basic_stringIcNS_11char_traitsIcEENS_9allocatorIcEEEEEENS_22__unordered_map_hasherIiS8_NS_4hashIiEELb1EEENS_21__unordered_map_equalIiS8_NS_8equal_toIiEELb1EEENS5_IS8_EEE15__assign_uniqueIPKNS_4pairIKiS7_EEEEvT_SP_
   464: 002be4a5    24 FUNC    WEAK   DEFAULT    8 _ZN5resip13DataLocalSizeILi16EEC2Ej
   465: 002be4a5    24 FUNC    WEAK   DEFAULT    8 _ZN5resip13DataLocalSizeILi16EEC1Ej
   466: 002be4bd   158 FUNC    WEAK   DEFAULT    8 _ZNSt3__112__hash_tableINS_17__hash_value_typeIiNS_12basic_stringIcNS_11char_traitsIcEENS_9allocatorIcEEEEEENS_22__unordered_map_hasherIiS8_NS_4hashIiEELb1EEENS_21__unordered_map_equalIiS8_NS_8equal_toIiEELb1EEENS5_IS8_EEED2Ev
   467: 002becad   118 FUNC    WEAK   DEFAULT    8 _ZNSt3__112__hash_tableINS_17__hash_value_typeIiNS_12basic_stringIcNS_11char_traitsIcEENS_9allocatorIcEEEEEENS_22__unordered_map_hasherIiS8_NS_4hashIiEELb1EEENS_21__unordered_map_equalIiS8_NS_8equal_toIiEELb1EEENS5_IS8_EEE12__deallocateEPNS_11__hash_nodeIS8_PvEE
   468: 002bed25   240 FUNC    WEAK   DEFAULT    8 _ZNSt3__110__list_impINS_10shared_ptrIN9twiliosdk11TSCEndpointEEENS_9allocatorIS4_EEE5clearEv
   469: 002be55d    26 FUNC    WEAK   DEFAULT    8 _ZNSt3__110__list_impINS_10shared_ptrIN9twiliosdk11TSCEndpointEEENS_9allocatorIS4_EEED1Ev
   470: 002be579    30 FUNC    WEAK   DEFAULT    8 _ZN3rtc10scoped_ptrINS_12AsyncInvokerENS_14DefaultDeleterIS1_EEEC2Ev
   471: 002bee15    32 FUNC    WEAK   DEFAULT    8 _ZN3rtc8internal15scoped_ptr_implINS_12AsyncInvokerENS_14DefaultDeleterIS2_EEEC1EPS2_
   472: 002be599    42 FUNC    WEAK   DEFAULT    8 _ZN3rtc8internal15scoped_ptr_implINS_12AsyncInvokerENS_14DefaultDeleterIS2_EEED2Ev
   473: 002bee35    34 FUNC    WEAK   DEFAULT    8 _ZNK3rtc14DefaultDeleterINS_12AsyncInvokerEEclEPS1_
   474: 002be5c5    30 FUNC    WEAK   DEFAULT    8 _ZN3rtc10scoped_ptrINS_6ThreadENS_14DefaultDeleterIS1_EEEC2Ev
   475: 002bee59    32 FUNC    WEAK   DEFAULT    8 _ZN3rtc8internal15scoped_ptr_implINS_6ThreadENS_14DefaultDeleterIS2_EEEC1EPS2_
   476: 002bee79    34 FUNC    WEAK   DEFAULT    8 _ZNK3rtc14DefaultDeleterINS_6ThreadEEclEPS1_
   477: 002bef01   100 FUNC    WEAK   DEFAULT    8 _ZN3rtc8internal15scoped_ptr_implINS_6ThreadENS_14DefaultDeleterIS2_EEE5resetEPS2_
   478: 002bef65    24 FUNC    WEAK   DEFAULT    8 _ZNK3rtc8internal15scoped_ptr_implINS_6ThreadENS_14DefaultDeleterIS2_EEE3getEv
   479: 00000000     0 FUNC    GLOBAL DEFAULT  UND __assert2
   480: 002be66d   624 FUNC    WEAK   DEFAULT    8 _ZNSt3__110shared_ptrIN9twiliosdk11TSCEndpointEEC2IS2_EEPT_NS_9enable_ifIXsrNS_14is_convertibleIS6_PS2_EE5valueENS3_5__natEE4typeE
   481: 00a77fe8    28 OBJECT  WEAK   DEFAULT   14 _ZTVNSt3__120__shared_ptr_pointerIPN9twiliosdk11TSCEndpointENS_14default_deleteIS2_EENS_9allocatorIS2_EEEE
   482: 002bee15    32 FUNC    WEAK   DEFAULT    8 _ZN3rtc8internal15scoped_ptr_implINS_12AsyncInvokerENS_14DefaultDeleterIS2_EEEC2EPS2_
   483: 002bf5d1    34 FUNC    WEAK   DEFAULT    8 _ZN3rtc8internal15scoped_ptr_implINS_12AsyncInvokerENS_14DefaultDeleterIS2_EEE4DataC1EPS2_
   484: 002bee59    32 FUNC    WEAK   DEFAULT    8 _ZN3rtc8internal15scoped_ptr_implINS_6ThreadENS_14DefaultDeleterIS2_EEEC2EPS2_
   485: 002bf5f5    34 FUNC    WEAK   DEFAULT    8 _ZN3rtc8internal15scoped_ptr_implINS_6ThreadENS_14DefaultDeleterIS2_EEE4DataC1EPS2_
   486: 002bf619   160 FUNC    WEAK   DEFAULT    8 _ZNSt3__112__hash_tableINS_17__hash_value_typeIiNS_12basic_stringIcNS_11char_traitsIcEENS_9allocatorIcEEEEEENS_22__unordered_map_hasherIiS8_NS_4hashIiEELb1EEENS_21__unordered_map_equalIiS8_NS_8equal_toIiEELb1EEENS5_IS8_EEE8__detachEv
   487: 002bf6b9  1654 FUNC    WEAK   DEFAULT    8 _ZNSt3__112__hash_tableINS_17__hash_value_typeIiNS_12basic_stringIcNS_11char_traitsIcEENS_9allocatorIcEEEEEENS_22__unordered_map_hasherIiS8_NS_4hashIiEELb1EEENS_21__unordered_map_equalIiS8_NS_8equal_toIiEELb1EEENS5_IS8_EEE20__node_insert_uniqueEPNS_11__hash_nodeIS8_PvEE
   488: 002bfd31   568 FUNC    WEAK   DEFAULT    8 _ZNSt3__112__hash_tableINS_17__hash_value_typeIiNS_12basic_stringIcNS_11char_traitsIcEENS_9allocatorIcEEEEEENS_22__unordered_map_hasherIiS8_NS_4hashIiEELb1EEENS_21__unordered_map_equalIiS8_NS_8equal_toIiEELb1EEENS5_IS8_EEE15__insert_uniqueIRKNS_4pairIKiS7_EEEENSK_INS_15__hash_iteratorIPNS_11__hash_nodeIS8_PvEEEEbEEOT_
   489: 00895115   188 FUNC    GLOBAL DEFAULT    8 __cxa_rethrow
   490: 002bf5d1    34 FUNC    WEAK   DEFAULT    8 _ZN3rtc8internal15scoped_ptr_implINS_12AsyncInvokerENS_14DefaultDeleterIS2_EEE4DataC2EPS2_
   491: 002bff69    22 FUNC    WEAK   DEFAULT    8 _ZN3rtc14DefaultDeleterINS_12AsyncInvokerEEC2Ev
   492: 002bf5f5    34 FUNC    WEAK   DEFAULT    8 _ZN3rtc8internal15scoped_ptr_implINS_6ThreadENS_14DefaultDeleterIS2_EEE4DataC2EPS2_
   493: 002bff81    22 FUNC    WEAK   DEFAULT    8 _ZN3rtc14DefaultDeleterINS_6ThreadEEC2Ev
   494: 00000000     0 FUNC    GLOBAL DEFAULT  UND ceilf
   495: 002bff99   458 FUNC    WEAK   DEFAULT    8 _ZNSt3__112__hash_tableINS_17__hash_value_typeIiNS_12basic_stringIcNS_11char_traitsIcEENS_9allocatorIcEEEEEENS_22__unordered_map_hasherIiS8_NS_4hashIiEELb1EEENS_21__unordered_map_equalIiS8_NS_8equal_toIiEELb1EEENS5_IS8_EEE6rehashEj
   496: 002c0165  1114 FUNC    WEAK   DEFAULT    8 _ZNSt3__112__hash_tableINS_17__hash_value_typeIiNS_12basic_stringIcNS_11char_traitsIcEENS_9allocatorIcEEEEEENS_22__unordered_map_hasherIiS8_NS_4hashIiEELb1EEENS_21__unordered_map_equalIiS8_NS_8equal_toIiEELb1EEENS5_IS8_EEE16__construct_nodeIJRKNS_4pairIKiS7_EEEEENS_10unique_ptrINS_11__hash_nodeIS8_PvEENS_22__hash_node_destructorINS5_ISS_EEEEEEDpOT_
   497: 002bff69    22 FUNC    WEAK   DEFAULT    8 _ZN3rtc14DefaultDeleterINS_12AsyncInvokerEEC1Ev
   498: 002bff81    22 FUNC    WEAK   DEFAULT    8 _ZN3rtc14DefaultDeleterINS_6ThreadEEC1Ev
   499: 00864855  1608 FUNC    GLOBAL DEFAULT    8 _ZNSt3__112__next_primeEj
   500: 002c05c1  1302 FUNC    WEAK   DEFAULT    8 _ZNSt3__112__hash_tableINS_17__hash_value_typeIiNS_12basic_stringIcNS_11char_traitsIcEENS_9allocatorIcEEEEEENS_22__unordered_map_hasherIiS8_NS_4hashIiEELb1EEENS_21__unordered_map_equalIiS8_NS_8equal_toIiEELb1EEENS5_IS8_EEE8__rehashEj
   501: 002c0ad9    64 FUNC    WEAK   DEFAULT    8 _ZNSt3__120__shared_ptr_pointerIPN9twiliosdk11TSCEndpointENS_14default_deleteIS2_EENS_9allocatorIS2_EEED1Ev
   502: 002c0b19    32 FUNC    WEAK   DEFAULT    8 _ZNSt3__120__shared_ptr_pointerIPN9twiliosdk11TSCEndpointENS_14default_deleteIS2_EENS_9allocatorIS2_EEED0Ev
   503: 002c0b39    96 FUNC    WEAK   DEFAULT    8 _ZNSt3__120__shared_ptr_pointerIPN9twiliosdk11TSCEndpointENS_14default_deleteIS2_EENS_9allocatorIS2_EEE16__on_zero_sharedEv
   504: 002c0b99    52 FUNC    WEAK   DEFAULT    8 _ZNSt3__120__shared_ptr_pointerIPN9twiliosdk11TSCEndpointENS_14default_deleteIS2_EENS_9allocatorIS2_EEE21__on_zero_shared_weakEv
   505: 002c0ad9    64 FUNC    WEAK   DEFAULT    8 _ZNSt3__120__shared_ptr_pointerIPN9twiliosdk11TSCEndpointENS_14default_deleteIS2_EENS_9allocatorIS2_EEED2Ev
   506: 003088cd     4 FUNC    GLOBAL DEFAULT    8 _ZN5resip4Data4initENS_13DataLocalSizeILi16EEE
   507: 002c1ef9    56 FUNC    WEAK   DEFAULT    8 _ZN3rtc17RefCountInterfaceD2Ev
   508: 002c1ef9    56 FUNC    WEAK   DEFAULT    8 _ZN3rtc17RefCountInterfaceD1Ev
   509: 002c1f31    32 FUNC    WEAK   DEFAULT    8 _ZN3rtc17RefCountInterfaceD0Ev
   510: 002c1f51    48 FUNC    WEAK   DEFAULT    8 _ZN3rtc17RefCountInterfaceC2Ev
   511: 002c1f51    48 FUNC    WEAK   DEFAULT    8 _ZN3rtc17RefCountInterfaceC1Ev
   512: 002c1f81    48 FUNC    WEAK   DEFAULT    8 _ZN10TwilioPoco13AtomicCountermmEv
   513: 002c1fb1    58 FUNC    WEAK   DEFAULT    8 _ZNK10TwilioPoco16RefCountedObject7releaseEv
   514: 002c1fed    24 FUNC    WEAK   DEFAULT    8 _ZNK10TwilioPoco7Message7getTextEv
   515: 002c2005   108 FUNC    WEAK   DEFAULT    8 _ZN9twiliosdk18TSCProxyLogChannelC2ERKN3rtc13scoped_refptrINS_13TSCLogChannelEEE
   516: 007566d4    64 FUNC    GLOBAL DEFAULT    8 _ZN10TwilioPoco7ChannelC2Ev
   517: 002c2259    28 FUNC    WEAK   DEFAULT    8 _ZN3rtc13scoped_refptrIN9twiliosdk13TSCLogChannelEEC1Ev
   518: 002c22a5    34 FUNC    WEAK   DEFAULT    8 _ZN3rtc13scoped_refptrIN9twiliosdk13TSCLogChannelEEaSERKS3_
   519: 002c2275    46 FUNC    WEAK   DEFAULT    8 _ZN3rtc13scoped_refptrIN9twiliosdk13TSCLogChannelEED1Ev
   520: 00756714    68 FUNC    GLOBAL DEFAULT    8 _ZN10TwilioPoco7ChannelD2Ev
   521: 00a78050    52 OBJECT  WEAK   DEFAULT   14 _ZTVN9twiliosdk18TSCProxyLogChannelE
   522: 002c2005   108 FUNC    WEAK   DEFAULT    8 _ZN9twiliosdk18TSCProxyLogChannelC1ERKN3rtc13scoped_refptrINS_13TSCLogChannelEEE
   523: 002c2071    84 FUNC    WEAK   DEFAULT    8 _ZN9twiliosdk18TSCProxyLogChannelD2Ev
   524: 002c2071    84 FUNC    WEAK   DEFAULT    8 _ZN9twiliosdk18TSCProxyLogChannelD1Ev
   525: 002c20c5     8 FUNC    WEAK   DEFAULT    8 _ZThn4_N9twiliosdk18TSCProxyLogChannelD1Ev
   526: 002c20cd    32 FUNC    WEAK   DEFAULT    8 _ZN9twiliosdk18TSCProxyLogChannelD0Ev
   527: 002c20ed     6 FUNC    WEAK   DEFAULT    8 _ZThn4_N9twiliosdk18TSCProxyLogChannelD0Ev
   528: 002c20f5   114 FUNC    WEAK   DEFAULT    8 _ZN9twiliosdk18TSCProxyLogChannel3logERKN10TwilioPoco7MessageE
   529: 002c22c9    24 FUNC    WEAK   DEFAULT    8 _ZNK3rtc13scoped_refptrIN9twiliosdk13TSCLogChannelEE3getEv
   530: 002c22e1    24 FUNC    WEAK   DEFAULT    8 _ZNK3rtc13scoped_refptrIN9twiliosdk13TSCLogChannelEEptEv
   531: 002c2169    68 FUNC    WEAK   DEFAULT    8 _ZN9twiliosdk20TSCFormattingChannelC2EPN10TwilioPoco9FormatterEPNS1_7ChannelE
   532: 0076678c   148 FUNC    GLOBAL DEFAULT    8 _ZN10TwilioPoco17FormattingChannelC2EPNS_9FormatterEPNS_7ChannelE
   533: 00a78018    52 OBJECT  WEAK   DEFAULT   14 _ZTVN9twiliosdk20TSCFormattingChannelE
   534: 002c2169    68 FUNC    WEAK   DEFAULT    8 _ZN9twiliosdk20TSCFormattingChannelC1EPN10TwilioPoco9FormatterEPNS1_7ChannelE
   535: 002c21ad    86 FUNC    WEAK   DEFAULT    8 _ZN9twiliosdk20TSCFormattingChannel3logERKN10TwilioPoco7MessageE
   536: 0076f360   652 FUNC    GLOBAL DEFAULT    8 _ZN10TwilioPoco7MessageC1ERKS0_
   537: 0076e694     8 FUNC    GLOBAL DEFAULT    8 _ZN10TwilioPoco7Message6setTidEl
   538: 0076648c   252 FUNC    GLOBAL DEFAULT    8 _ZN10TwilioPoco17FormattingChannel3logERKNS_7MessageE
   539: 0076e6f0   164 FUNC    GLOBAL DEFAULT    8 _ZN10TwilioPoco7MessageD1Ev
   540: 002c0bcd    52 FUNC    GLOBAL DEFAULT    8 _ZN9twiliosdk13TSCLogChannelC2Ev
   541: 00a780b8    28 OBJECT  GLOBAL DEFAULT   14 _ZTVN9twiliosdk13TSCLogChannelE
   542: 002c0bcd    52 FUNC    GLOBAL DEFAULT    8 _ZN9twiliosdk13TSCLogChannelC1Ev
   543: 002c0c01    64 FUNC    GLOBAL DEFAULT    8 _ZN9twiliosdk13TSCLogChannelD2Ev
   544: 002c0c01    64 FUNC    GLOBAL DEFAULT    8 _ZN9twiliosdk13TSCLogChannelD1Ev
   545: 002c0c41    32 FUNC    GLOBAL DEFAULT    8 _ZN9twiliosdk13TSCLogChannelD0Ev
   546: 002c0c61   124 FUNC    GLOBAL DEFAULT    8 _ZN9twiliosdk13TSCLogChannel3logERKNSt3__112basic_stringIcNS1_11char_traitsIcEENS1_9allocatorIcEEEE
   547: 00a9b354     4 OBJECT  GLOBAL DEFAULT   19 _ZN9twiliosdk9TSCLogger10s_instanceE
   548: 002c2205    28 FUNC    WEAK   DEFAULT    8 _ZN3rtc10scoped_ptrIN9twiliosdk15TSCWebRTCLoggerENS_14DefaultDeleterIS2_EEED2Ev
   549: 002c2319    42 FUNC    WEAK   DEFAULT    8 _ZN3rtc8internal15scoped_ptr_implIN9twiliosdk15TSCWebRTCLoggerENS_14DefaultDeleterIS3_EEED1Ev
   550: 002c2205    28 FUNC    WEAK   DEFAULT    8 _ZN3rtc10scoped_ptrIN9twiliosdk15TSCWebRTCLoggerENS_14DefaultDeleterIS2_EEED1Ev
   551: 002c0cdd   184 FUNC    GLOBAL DEFAULT    8 _ZN9twiliosdk9TSCLoggerC2Ev
   552: 0076a568   412 FUNC    GLOBAL DEFAULT    8 _ZN10TwilioPoco6Logger6createERKNSt3__112basic_stringIcNS1_11char_traitsIcEENS1_9allocatorIcEEEEPNS_7ChannelEi
   553: 002c22f9    30 FUNC    WEAK   DEFAULT    8 _ZN3rtc10scoped_ptrIN9twiliosdk15TSCWebRTCLoggerENS_14DefaultDeleterIS2_EEEC1Ev
   554: 002c2a65    52 FUNC    GLOBAL DEFAULT    8 _ZN9twiliosdk15TSCWebRTCLoggerC1Ev
   555: 002c2345    26 FUNC    WEAK   DEFAULT    8 _ZN3rtc10scoped_ptrIN9twiliosdk15TSCWebRTCLoggerENS_14DefaultDeleterIS2_EEE5resetEPS2_
   556: 00a780a8    16 OBJECT  GLOBAL DEFAULT   14 _ZTVN9twiliosdk9TSCLoggerE
   557: 002c0cdd   184 FUNC    GLOBAL DEFAULT    8 _ZN9twiliosdk9TSCLoggerC1Ev
   558: 002c0d95    92 FUNC    GLOBAL DEFAULT    8 _ZN9twiliosdk9TSCLoggerD2Ev
   559: 002c0d95    92 FUNC    GLOBAL DEFAULT    8 _ZN9twiliosdk9TSCLoggerD1Ev
   560: 002c0df1    32 FUNC    GLOBAL DEFAULT    8 _ZN9twiliosdk9TSCLoggerD0Ev
   561: 002c2221    56 FUNC    WEAK   DEFAULT    8 _ZN3rtc16RefCountedObjectIN9twiliosdk13TSCLogChannelEEC1Ev
   562: 002c0f1d   384 FUNC    GLOBAL DEFAULT    8 _ZN9twiliosdk9TSCLogger13setLogChannelEPNS_13TSCLogChannelE
   563: 00a9b3ec     4 OBJECT  GLOBAL DEFAULT   19 twilio_log_cb
   564: 002c0e91   138 FUNC    GLOBAL DEFAULT    8 _ZN9twiliosdk9TSCLogger8resipLogEiPKcS2_iRKNSt3__112basic_stringIcNS3_11char_traitsIcEENS3_9allocatorIcEEEE
   565: 002c12a5  2696 FUNC    GLOBAL DEFAULT    8 _ZN9twiliosdk9TSCLogger3logENS_20_TSCoreLogModuleTypeENS_15_TSCoreLogLevelEPKcS4_iRKNSt3__112basic_stringIcNS5_11char_traitsIcEENS5_9allocatorIcEEEE
   566: 002c2361    50 FUNC    WEAK   DEFAULT    8 _ZN3rtc13scoped_refptrIN9twiliosdk13TSCLogChannelEEC1EPS2_
   567: 007803f4    76 FUNC    GLOBAL DEFAULT    8 _ZN10TwilioPoco16PatternFormatterC1Ev
   568: 002c2395    30 FUNC    WEAK   DEFAULT    8 _ZN10TwilioPoco7AutoPtrINS_16PatternFormatterEEC1EPS1_
   569: 002c23dd    92 FUNC    WEAK   DEFAULT    8 _ZN10TwilioPoco7AutoPtrINS_16PatternFormatterEEptEv
   570: 002c2439    24 FUNC    WEAK   DEFAULT    8 _ZN10TwilioPoco7AutoPtrINS_16PatternFormatterEE3getEv
   571: 002c2451    30 FUNC    WEAK   DEFAULT    8 _ZN10TwilioPoco7AutoPtrIN9twiliosdk20TSCFormattingChannelEEC1EPS2_
   572: 002c2499    24 FUNC    WEAK   DEFAULT    8 _ZN10TwilioPoco7AutoPtrIN9twiliosdk20TSCFormattingChannelEE3getEv
   573: 00768024   200 FUNC    GLOBAL DEFAULT    8 _ZN10TwilioPoco6Logger10setChannelEPNS_7ChannelE
   574: 002c2471    40 FUNC    WEAK   DEFAULT    8 _ZN10TwilioPoco7AutoPtrIN9twiliosdk20TSCFormattingChannelEED1Ev
   575: 002c23b5    40 FUNC    WEAK   DEFAULT    8 _ZN10TwilioPoco7AutoPtrINS_16PatternFormatterEED1Ev
   576: 007680f4     8 FUNC    GLOBAL DEFAULT    8 _ZN10TwilioPoco6Logger8setLevelEi
   577: 002c24b1    80 FUNC    WEAK   DEFAULT    8 _ZNK3rtc10scoped_ptrIN9twiliosdk15TSCWebRTCLoggerENS_14DefaultDeleterIS2_EEEptEv
   578: 002c2b3d   166 FUNC    GLOBAL DEFAULT    8 _ZN9twiliosdk15TSCWebRTCLogger11setLogLevelENS_15_TSCoreLogLevelE
   579: 002c1161    48 FUNC    GLOBAL DEFAULT    8 _ZN9twiliosdk9TSCLogger12setLogModuleEi
   580: 002c1191    30 FUNC    GLOBAL DEFAULT    8 _ZN9twiliosdk9TSCLogger19enableWebRTCLoggingEv
   581: 002c1e49    96 FUNC    GLOBAL DEFAULT    8 _ZN9twiliosdk9TSCLogger5loglnENS_20_TSCoreLogModuleTypeENS_15_TSCoreLogLevelEPKcS4_iRKNSt3__112basic_stringIcNS5_11char_traitsIcEENS5_9allocatorIcEEEE
   582: 002c2221    56 FUNC    WEAK   DEFAULT    8 _ZN3rtc16RefCountedObjectIN9twiliosdk13TSCLogChannelEEC2Ev
   583: 00a78088    32 OBJECT  WEAK   DEFAULT   14 _ZTVN3rtc16RefCountedObjectIN9twiliosdk13TSCLogChannelEEE
   584: 002c2259    28 FUNC    WEAK   DEFAULT    8 _ZN3rtc13scoped_refptrIN9twiliosdk13TSCLogChannelEEC2Ev
   585: 002c2275    46 FUNC    WEAK   DEFAULT    8 _ZN3rtc13scoped_refptrIN9twiliosdk13TSCLogChannelEED2Ev
   586: 002c261d    70 FUNC    WEAK   DEFAULT    8 _ZN3rtc13scoped_refptrIN9twiliosdk13TSCLogChannelEEaSEPS2_
   587: 002c22f9    30 FUNC    WEAK   DEFAULT    8 _ZN3rtc10scoped_ptrIN9twiliosdk15TSCWebRTCLoggerENS_14DefaultDeleterIS2_EEEC2Ev
   588: 002c2665    32 FUNC    WEAK   DEFAULT    8 _ZN3rtc8internal15scoped_ptr_implIN9twiliosdk15TSCWebRTCLoggerENS_14DefaultDeleterIS3_EEEC1EPS3_
   589: 002c2319    42 FUNC    WEAK   DEFAULT    8 _ZN3rtc8internal15scoped_ptr_implIN9twiliosdk15TSCWebRTCLoggerENS_14DefaultDeleterIS3_EEED2Ev
   590: 002c2685    34 FUNC    WEAK   DEFAULT    8 _ZNK3rtc14DefaultDeleterIN9twiliosdk15TSCWebRTCLoggerEEclEPS2_
   591: 002c26a9   100 FUNC    WEAK   DEFAULT    8 _ZN3rtc8internal15scoped_ptr_implIN9twiliosdk15TSCWebRTCLoggerENS_14DefaultDeleterIS3_EEE5resetEPS3_
   592: 002c2361    50 FUNC    WEAK   DEFAULT    8 _ZN3rtc13scoped_refptrIN9twiliosdk13TSCLogChannelEEC2EPS2_
   593: 002c2395    30 FUNC    WEAK   DEFAULT    8 _ZN10TwilioPoco7AutoPtrINS_16PatternFormatterEEC2EPS1_
   594: 002c23b5    40 FUNC    WEAK   DEFAULT    8 _ZN10TwilioPoco7AutoPtrINS_16PatternFormatterEED2Ev
   595: 0075fa88    40 FUNC    GLOBAL DEFAULT    8 _ZN10TwilioPoco20NullPointerExceptionC1Ei
   596: 00a8b05c    12 OBJECT  GLOBAL DEFAULT   14 _ZTIN10TwilioPoco20NullPointerExceptionE
   597: 0075ee48    40 FUNC    GLOBAL DEFAULT    8 _ZN10TwilioPoco20NullPointerExceptionD1Ev
   598: 002c2451    30 FUNC    WEAK   DEFAULT    8 _ZN10TwilioPoco7AutoPtrIN9twiliosdk20TSCFormattingChannelEEC2EPS2_
   599: 002c2471    40 FUNC    WEAK   DEFAULT    8 _ZN10TwilioPoco7AutoPtrIN9twiliosdk20TSCFormattingChannelEED2Ev
   600: 002c270d    24 FUNC    WEAK   DEFAULT    8 _ZNK3rtc8internal15scoped_ptr_implIN9twiliosdk15TSCWebRTCLoggerENS_14DefaultDeleterIS3_EEE3getEv
   601: 002c2665    32 FUNC    WEAK   DEFAULT    8 _ZN3rtc8internal15scoped_ptr_implIN9twiliosdk15TSCWebRTCLoggerENS_14DefaultDeleterIS3_EEEC2EPS3_
   602: 002c28d1    34 FUNC    WEAK   DEFAULT    8 _ZN3rtc8internal15scoped_ptr_implIN9twiliosdk15TSCWebRTCLoggerENS_14DefaultDeleterIS3_EEE4DataC1EPS3_
   603: 002c28d1    34 FUNC    WEAK   DEFAULT    8 _ZN3rtc8internal15scoped_ptr_implIN9twiliosdk15TSCWebRTCLoggerENS_14DefaultDeleterIS3_EEE4DataC2EPS3_
   604: 002c28f5    22 FUNC    WEAK   DEFAULT    8 _ZN3rtc14DefaultDeleterIN9twiliosdk15TSCWebRTCLoggerEEC2Ev
   605: 002c28f5    22 FUNC    WEAK   DEFAULT    8 _ZN3rtc14DefaultDeleterIN9twiliosdk15TSCWebRTCLoggerEEC1Ev
   606: 00a780e8    12 OBJECT  WEAK   DEFAULT   14 _ZTIN9twiliosdk20TSCFormattingChannelE
   607: 002c290d    72 FUNC    WEAK   DEFAULT    8 _ZN9twiliosdk20TSCFormattingChannelD1Ev
   608: 002c295d    32 FUNC    WEAK   DEFAULT    8 _ZN9twiliosdk20TSCFormattingChannelD0Ev
   609: 007669c0   164 FUNC    GLOBAL DEFAULT    8 _ZN10TwilioPoco17FormattingChannel11setPropertyERKNSt3__112basic_stringIcNS1_11char_traitsIcEENS1_9allocatorIcEEEES9_
   610: 00756688    76 FUNC    GLOBAL DEFAULT    8 _ZNK10TwilioPoco7Channel11getPropertyERKNSt3__112basic_stringIcNS1_11char_traitsIcEENS1_9allocatorIcEEEE
   611: 0076645c    24 FUNC    GLOBAL DEFAULT    8 _ZN10TwilioPoco17FormattingChannel4openEv
   612: 00766474    24 FUNC    GLOBAL DEFAULT    8 _ZN10TwilioPoco17FormattingChannel5closeEv
   613: 002c2955     8 FUNC    WEAK   DEFAULT    8 _ZThn4_N9twiliosdk20TSCFormattingChannelD1Ev
   614: 002c297d     6 FUNC    WEAK   DEFAULT    8 _ZThn4_N9twiliosdk20TSCFormattingChannelD0Ev
   615: 002c290d    72 FUNC    WEAK   DEFAULT    8 _ZN9twiliosdk20TSCFormattingChannelD2Ev
   616: 00766588   316 FUNC    GLOBAL DEFAULT    8 _ZN10TwilioPoco17FormattingChannelD2Ev
   617: 00a780f4    12 OBJECT  WEAK   DEFAULT   14 _ZTIN9twiliosdk18TSCProxyLogChannelE
   618: 0075663c    76 FUNC    GLOBAL DEFAULT    8 _ZN10TwilioPoco7Channel11setPropertyERKNSt3__112basic_stringIcNS1_11char_traitsIcEENS1_9allocatorIcEEEES9_
   619: 00756634     4 FUNC    GLOBAL DEFAULT    8 _ZN10TwilioPoco7Channel4openEv
   620: 00756638     4 FUNC    GLOBAL DEFAULT    8 _ZN10TwilioPoco7Channel5closeEv
   621: 00a78100    12 OBJECT  WEAK   DEFAULT   14 _ZTIN3rtc16RefCountedObjectIN9twiliosdk13TSCLogChannelEEE
   622: 002c2985    30 FUNC    WEAK   DEFAULT    8 _ZNK3rtc16RefCountedObjectIN9twiliosdk13TSCLogChannelEE6AddRefEv
   623: 002c29a5    56 FUNC    WEAK   DEFAULT    8 _ZNK3rtc16RefCountedObjectIN9twiliosdk13TSCLogChannelEE7ReleaseEv
   624: 002c29dd    64 FUNC    WEAK   DEFAULT    8 _ZN3rtc16RefCountedObjectIN9twiliosdk13TSCLogChannelEED1Ev
   625: 002c2a1d    32 FUNC    WEAK   DEFAULT    8 _ZN3rtc16RefCountedObjectIN9twiliosdk13TSCLogChannelEED0Ev
   626: 002c2a3d    38 FUNC    WEAK   DEFAULT    8 _ZNK3rtc16RefCountedObjectIN9twiliosdk13TSCLogChannelEE9HasOneRefEv
   627: 00a780d4     8 OBJECT  GLOBAL DEFAULT   14 _ZTIN9twiliosdk9TSCLoggerE
   628: 00a780dc    12 OBJECT  GLOBAL DEFAULT   14 _ZTIN9twiliosdk13TSCLogChannelE
   629: 00a7810c     8 OBJECT  WEAK   DEFAULT   14 _ZTIN3rtc17RefCountInterfaceE
   630: 0099e870    35 OBJECT  WEAK   DEFAULT   11 _ZTSN9twiliosdk20TSCFormattingChannelE
   631: 00a8b9d0    12 OBJECT  GLOBAL DEFAULT   14 _ZTIN10TwilioPoco17FormattingChannelE
   632: 0099e894    33 OBJECT  WEAK   DEFAULT   11 _ZTSN9twiliosdk18TSCProxyLogChannelE
   633: 00a8acf8    32 OBJECT  GLOBAL DEFAULT   14 _ZTIN10TwilioPoco7ChannelE
   634: 0099e8b8    54 OBJECT  WEAK   DEFAULT   11 _ZTSN3rtc16RefCountedObjectIN9twiliosdk13TSCLogChannelEEE
   635: 0099e640    23 OBJECT  GLOBAL DEFAULT   11 _ZTSN9twiliosdk9TSCLoggerE
   636: 0099e658    28 OBJECT  GLOBAL DEFAULT   11 _ZTSN9twiliosdk13TSCLogChannelE
   637: 0099e8f0    26 OBJECT  WEAK   DEFAULT   11 _ZTSN3rtc17RefCountInterfaceE
   638: 002c29dd    64 FUNC    WEAK   DEFAULT    8 _ZN3rtc16RefCountedObjectIN9twiliosdk13TSCLogChannelEED2Ev
   639: 002c2be5    48 FUNC    WEAK   DEFAULT    8 _ZN3rtc7LogSinkC2Ev
   640: 002c2be5    48 FUNC    WEAK   DEFAULT    8 _ZN3rtc7LogSinkC1Ev
   641: 002c2c15    56 FUNC    WEAK   DEFAULT    8 _ZN3rtc7LogSinkD2Ev
   642: 002c2c15    56 FUNC    WEAK   DEFAULT    8 _ZN3rtc7LogSinkD1Ev
   643: 002c2c4d    32 FUNC    WEAK   DEFAULT    8 _ZN3rtc7LogSinkD0Ev
   644: 002c2c6d    56 FUNC    WEAK   DEFAULT    8 _ZN9twiliosdk17TSCLogRouteStreamC2EN3rtc15LoggingSeverityE
   645: 00a78118    20 OBJECT  WEAK   DEFAULT   14 _ZTVN9twiliosdk17TSCLogRouteStreamE
   646: 002c2c6d    56 FUNC    WEAK   DEFAULT    8 _ZN9twiliosdk17TSCLogRouteStreamC1EN3rtc15LoggingSeverityE
   647: 002c2ca5    64 FUNC    WEAK   DEFAULT    8 _ZN9twiliosdk17TSCLogRouteStreamD2Ev
   648: 002c2ca5    64 FUNC    WEAK   DEFAULT    8 _ZN9twiliosdk17TSCLogRouteStreamD1Ev
   649: 002c2ce5    32 FUNC    WEAK   DEFAULT    8 _ZN9twiliosdk17TSCLogRouteStreamD0Ev
   650: 002c2d05  1428 FUNC    WEAK   DEFAULT    8 _ZN9twiliosdk17TSCLogRouteStream12OnLogMessageERKNSt3__112basic_stringIcNS1_11char_traitsIcEENS1_9allocatorIcEEEE
   651: 002c3299    26 FUNC    WEAK   DEFAULT    8 _ZN9twiliosdk17TSCLogRouteStream11setLogLevelEN3rtc15LoggingSeverityE
   652: 002c2a65    52 FUNC    GLOBAL DEFAULT    8 _ZN9twiliosdk15TSCWebRTCLoggerC2Ev
   653: 00a78130    16 OBJECT  GLOBAL DEFAULT   14 _ZTVN9twiliosdk15TSCWebRTCLoggerE
   654: 002c2a99   100 FUNC    GLOBAL DEFAULT    8 _ZN9twiliosdk15TSCWebRTCLoggerD2Ev
   655: 002c2b1d    32 FUNC    GLOBAL DEFAULT    8 _ZN9twiliosdk15TSCWebRTCLogger16clearRedirectionEv
   656: 002c2a99   100 FUNC    GLOBAL DEFAULT    8 _ZN9twiliosdk15TSCWebRTCLoggerD1Ev
   657: 002c2afd    32 FUNC    GLOBAL DEFAULT    8 _ZN9twiliosdk15TSCWebRTCLoggerD0Ev
   658: 002c32b5    76 FUNC    GLOBAL DEFAULT    8 _ZN9twiliosdk15TSCPlatformInfoC2Ev
   659: 002c3665    28 FUNC    WEAK   DEFAULT    8 _ZN3rtc13scoped_refptrIN9twiliosdk23TSCPlatformDataProviderEEC1Ev
   660: 00a78140    16 OBJECT  GLOBAL DEFAULT   14 _ZTVN9twiliosdk15TSCPlatformInfoE
   661: 002c32b5    76 FUNC    GLOBAL DEFAULT    8 _ZN9twiliosdk15TSCPlatformInfoC1Ev
   662: 002c3301    76 FUNC    GLOBAL DEFAULT    8 _ZN9twiliosdk15TSCPlatformInfoD2Ev
   663: 002c3681    46 FUNC    WEAK   DEFAULT    8 _ZN3rtc13scoped_refptrIN9twiliosdk23TSCPlatformDataProviderEED1Ev
   664: 002c3301    76 FUNC    GLOBAL DEFAULT    8 _ZN9twiliosdk15TSCPlatformInfoD1Ev
   665: 002c334d    32 FUNC    GLOBAL DEFAULT    8 _ZN9twiliosdk15TSCPlatformInfoD0Ev
   666: 002c34f9   128 FUNC    WEAK   DEFAULT    8 _ZN9twiliosdk21TSCPlatformInfoReportD2Ev
   667: 002c34f9   128 FUNC    WEAK   DEFAULT    8 _ZN9twiliosdk21TSCPlatformInfoReportD1Ev
   668: 002c3579   236 FUNC    WEAK   DEFAULT    8 _ZN9twiliosdk21TSCPlatformInfoReportaSERKS0_
   669: 003e7529   262 FUNC    GLOBAL DEFAULT    8 _ZN9twiliosdk21TSCPlatformInfoReportC1Ev
   670: 002c36b1    24 FUNC    WEAK   DEFAULT    8 _ZNK3rtc13scoped_refptrIN9twiliosdk23TSCPlatformDataProviderEE3getEv
   671: 002c36c9    24 FUNC    WEAK   DEFAULT    8 _ZNK3rtc13scoped_refptrIN9twiliosdk23TSCPlatformDataProviderEEptEv
   672: 002c36e1    34 FUNC    WEAK   DEFAULT    8 _ZN3rtc13scoped_refptrIN9twiliosdk23TSCPlatformDataProviderEEaSERKS3_
   673: 002c3665    28 FUNC    WEAK   DEFAULT    8 _ZN3rtc13scoped_refptrIN9twiliosdk23TSCPlatformDataProviderEEC2Ev
   674: 002c3681    46 FUNC    WEAK   DEFAULT    8 _ZN3rtc13scoped_refptrIN9twiliosdk23TSCPlatformDataProviderEED2Ev
   675: 002c3705    70 FUNC    WEAK   DEFAULT    8 _ZN3rtc13scoped_refptrIN9twiliosdk23TSCPlatformDataProviderEEaSEPS2_
   676: 00a78150     8 OBJECT  GLOBAL DEFAULT   14 _ZTIN9twiliosdk15TSCPlatformInfoE
   677: 0099ea90    30 OBJECT  GLOBAL DEFAULT   11 _ZTSN9twiliosdk15TSCPlatformInfoE
   678: 002c66a5    52 FUNC    WEAK   DEFAULT    8 _ZN7cricket6DeviceC2Ev
   679: 002c66a5    52 FUNC    WEAK   DEFAULT    8 _ZN7cricket6DeviceC1Ev
   680: 002c66d9    24 FUNC    WEAK   DEFAULT    8 _ZNK7cricket13VideoCapturer5GetIdEv
   681: 002c66f1    64 FUNC    WEAK   DEFAULT    8 _ZN3rtc12AsyncClosureD2Ev
   682: 002c66f1    64 FUNC    WEAK   DEFAULT    8 _ZN3rtc12AsyncClosureD1Ev
   683: 002c6731    32 FUNC    WEAK   DEFAULT    8 _ZN3rtc12AsyncClosureD0Ev
   684: 002c374d    84 FUNC    GLOBAL DEFAULT    8 _ZN9twiliosdk25TSCVideoCaptureControllerC2EPNS_22TSCSessionMediaContextE
   685: 00a78198    16 OBJECT  GLOBAL DEFAULT   14 _ZTVN9twiliosdk25TSCVideoCaptureControllerE
   686: 002c374d    84 FUNC    GLOBAL DEFAULT    8 _ZN9twiliosdk25TSCVideoCaptureControllerC1EPNS_22TSCSessionMediaContextE
   687: 002c37a1   132 FUNC    GLOBAL DEFAULT    8 _ZN9twiliosdk25TSCVideoCaptureControllerD2Ev
   688: 002c6795    38 FUNC    WEAK   DEFAULT    8 _ZNSt3__110shared_ptrIN9twiliosdk33TSCVideoCaptureControllerObserverEED1Ev
   689: 002c37a1   132 FUNC    GLOBAL DEFAULT    8 _ZN9twiliosdk25TSCVideoCaptureControllerD1Ev
   690: 002c3825    32 FUNC    GLOBAL DEFAULT    8 _ZN9twiliosdk25TSCVideoCaptureControllerD0Ev
   691: 002c3845   158 FUNC    GLOBAL DEFAULT    8 _ZN9twiliosdk25TSCVideoCaptureController11setObserverERNSt3__110shared_ptrINS_33TSCVideoCaptureControllerObserverEEE
   692: 002c38e5    28 FUNC    GLOBAL DEFAULT    8 _ZNK9twiliosdk25TSCVideoCaptureController8isPausedEv
   693: 002e416d   132 FUNC    GLOBAL DEFAULT    8 _ZNK9twiliosdk22TSCSessionMediaContext13isVideoPausedEv
   694: 002c3901   184 FUNC    GLOBAL DEFAULT    8 _ZN9twiliosdk25TSCVideoCaptureController9setPausedEb
   695: 002e406d   104 FUNC    GLOBAL DEFAULT    8 _ZN9twiliosdk22TSCSessionMediaContext10pauseVideoEv
   696: 002e40d5   110 FUNC    GLOBAL DEFAULT    8 _ZN9twiliosdk22TSCSessionMediaContext12unpauseVideoEv
   697: 002c67bd    44 FUNC    WEAK   DEFAULT    8 _ZN3rtc4BindIN9twiliosdk33TSCVideoCaptureControllerObserverEvbEENS_14MethodFunctor1IT_MS4_FT0_T1_ES5_S6_EES8_PS4_NS_6detail8identityIS6_E4typeE
   698: 002c67e9    94 FUNC    WEAK   DEFAULT    8 _ZN9twiliosdk6TSCSDK8doNotifyIN3rtc14MethodFunctor1INS_33TSCVideoCaptureControllerObserverEMS4_FvbEvbEEEEvRKT_
   699: 003e7689    34 FUNC    GLOBAL DEFAULT    8 _ZN9twiliosdk33TSCVideoCaptureControllerObserver8onPausedEb
   700: 002c39b9    34 FUNC    GLOBAL DEFAULT    8 _ZN9twiliosdk25TSCVideoCaptureController24hasExternalVideoCapturerEv
   701: 002c39dd   796 FUNC    GLOBAL DEFAULT    8 _ZN9twiliosdk25TSCVideoCaptureController21setVideoCaptureDeviceERKNSt3__112basic_stringIcNS1_11char_traitsIcEENS1_9allocatorIcEEEE
   702: 002c3f51    84 FUNC    GLOBAL DEFAULT    8 _ZN9twiliosdk25TSCVideoCaptureController21getVideoCaptureDeviceEv
   703: 002dc0b1   842 FUNC    GLOBAL DEFAULT    8 _ZN9twiliosdk17TSCCameraCapturer18setCapturingDeviceERKNSt3__112basic_stringIcNS1_11char_traitsIcEENS1_9allocatorIcEEEE
   704: 002db56d   248 FUNC    GLOBAL DEFAULT    8 _ZN9twiliosdk17TSCCameraCapturerC1ERKNSt3__112basic_stringIcNS1_11char_traitsIcEENS1_9allocatorIcEEEE
   705: 002c6751    28 FUNC    WEAK   DEFAULT    8 _ZN3rtc10scoped_ptrIN7cricket22DeviceManagerInterfaceENS_14DefaultDeleterIS2_EEED2Ev
   706: 002c6869    42 FUNC    WEAK   DEFAULT    8 _ZN3rtc8internal15scoped_ptr_implIN7cricket22DeviceManagerInterfaceENS_14DefaultDeleterIS3_EEED1Ev
   707: 002c6751    28 FUNC    WEAK   DEFAULT    8 _ZN3rtc10scoped_ptrIN7cricket22DeviceManagerInterfaceENS_14DefaultDeleterIS2_EEED1Ev
   708: 002c3cf9   600 FUNC    GLOBAL DEFAULT    8 _ZN9twiliosdk25TSCVideoCaptureController27createPlatformVideoCapturerERKNSt3__112basic_stringIcNS1_11char_traitsIcEENS1_9allocatorIcEEEE
   709: 002c6849    32 FUNC    WEAK   DEFAULT    8 _ZN3rtc10scoped_ptrIN7cricket22DeviceManagerInterfaceENS_14DefaultDeleterIS2_EEEC1EPS2_
   710: 002c6895    80 FUNC    WEAK   DEFAULT    8 _ZNK3rtc10scoped_ptrIN7cricket22DeviceManagerInterfaceENS_14DefaultDeleterIS2_EEEptEv
   711: 002c3fc1    42 FUNC    GLOBAL DEFAULT    8 _ZN9twiliosdk25TSCVideoCaptureController16getVideoCapturerEv
   712: 002c3fed   176 FUNC    GLOBAL DEFAULT    8 _ZN9twiliosdk25TSCVideoCaptureController11stopCaptureEv
   713: 002c6795    38 FUNC    WEAK   DEFAULT    8 _ZNSt3__110shared_ptrIN9twiliosdk33TSCVideoCaptureControllerObserverEED2Ev
   714: 002c68e5    58 FUNC    WEAK   DEFAULT    8 _ZN3rtc14MethodFunctor1IN9twiliosdk33TSCVideoCaptureControllerObserverEMS2_FvbEvbEC1ES4_PS2_b
   715: 002c693d    28 FUNC    WEAK   DEFAULT    8 _ZNK3rtc10scoped_ptrINS_12AsyncInvokerENS_14DefaultDeleterIS1_EEE3getEv
   716: 002c6921    28 FUNC    WEAK   DEFAULT    8 _ZNK3rtc10scoped_ptrINS_6ThreadENS_14DefaultDeleterIS1_EEE3getEv
   717: 002c6959    80 FUNC    WEAK   DEFAULT    8 _ZNK3rtc10scoped_ptrINS_12AsyncInvokerENS_14DefaultDeleterIS1_EEEptEv
   718: 002c69a9   120 FUNC    WEAK   DEFAULT    8 _ZN3rtc12AsyncInvoker11AsyncInvokeIvNS_14MethodFunctor1IN9twiliosdk33TSCVideoCaptureControllerObserverEMS4_FvbEvbEEEEvPNS_6ThreadERKT0_j
   719: 002c6849    32 FUNC    WEAK   DEFAULT    8 _ZN3rtc10scoped_ptrIN7cricket22DeviceManagerInterfaceENS_14DefaultDeleterIS2_EEEC2EPS2_
   720: 002c6a21    32 FUNC    WEAK   DEFAULT    8 _ZN3rtc8internal15scoped_ptr_implIN7cricket22DeviceManagerInterfaceENS_14DefaultDeleterIS3_EEEC1EPS3_
   721: 002c6869    42 FUNC    WEAK   DEFAULT    8 _ZN3rtc8internal15scoped_ptr_implIN7cricket22DeviceManagerInterfaceENS_14DefaultDeleterIS3_EEED2Ev
   722: 002c6a41    34 FUNC    WEAK   DEFAULT    8 _ZNK3rtc14DefaultDeleterIN7cricket22DeviceManagerInterfaceEEclEPS2_
   723: 002c6a65    24 FUNC    WEAK   DEFAULT    8 _ZNK3rtc8internal15scoped_ptr_implIN7cricket22DeviceManagerInterfaceENS_14DefaultDeleterIS3_EEE3getEv
   724: 002c68e5    58 FUNC    WEAK   DEFAULT    8 _ZN3rtc14MethodFunctor1IN9twiliosdk33TSCVideoCaptureControllerObserverEMS2_FvbEvbEC2ES4_PS2_b
   725: 002c6a7d    24 FUNC    WEAK   DEFAULT    8 _ZNK3rtc8internal15scoped_ptr_implINS_12AsyncInvokerENS_14DefaultDeleterIS2_EEE3getEv
   726: 002c6af5    76 FUNC    WEAK   DEFAULT    8 _ZN3rtc16RefCountedObjectINS_25FireAndForgetAsyncClosureINS_14MethodFunctor1IN9twiliosdk33TSCVideoCaptureControllerObserverEMS4_FvbEvbEEEEEC1IS7_EET_
   727: 002c6b41    50 FUNC    WEAK   DEFAULT    8 _ZN3rtc13scoped_refptrINS_12AsyncClosureEEC1EPS1_
   728: 002c6a21    32 FUNC    WEAK   DEFAULT    8 _ZN3rtc8internal15scoped_ptr_implIN7cricket22DeviceManagerInterfaceENS_14DefaultDeleterIS3_EEEC2EPS3_
   729: 002c6b75    34 FUNC    WEAK   DEFAULT    8 _ZN3rtc8internal15scoped_ptr_implIN7cricket22DeviceManagerInterfaceENS_14DefaultDeleterIS3_EEE4DataC1EPS3_
   730: 002c6a95    64 FUNC    WEAK   DEFAULT    8 _ZN3rtc25FireAndForgetAsyncClosureINS_14MethodFunctor1IN9twiliosdk33TSCVideoCaptureControllerObserverEMS3_FvbEvbEEED2Ev
   731: 00a78178    28 OBJECT  WEAK   DEFAULT   14 _ZTVN3rtc25FireAndForgetAsyncClosureINS_14MethodFunctor1IN9twiliosdk33TSCVideoCaptureControllerObserverEMS3_FvbEvbEEEE
   732: 002c6a95    64 FUNC    WEAK   DEFAULT    8 _ZN3rtc25FireAndForgetAsyncClosureINS_14MethodFunctor1IN9twiliosdk33TSCVideoCaptureControllerObserverEMS3_FvbEvbEEED1Ev
   733: 002c6ad5    32 FUNC    WEAK   DEFAULT    8 _ZN3rtc25FireAndForgetAsyncClosureINS_14MethodFunctor1IN9twiliosdk33TSCVideoCaptureControllerObserverEMS3_FvbEvbEEED0Ev
   734: 002c6af5    76 FUNC    WEAK   DEFAULT    8 _ZN3rtc16RefCountedObjectINS_25FireAndForgetAsyncClosureINS_14MethodFunctor1IN9twiliosdk33TSCVideoCaptureControllerObserverEMS4_FvbEvbEEEEEC2IS7_EET_
   735: 002c6bcd    68 FUNC    WEAK   DEFAULT    8 _ZN3rtc25FireAndForgetAsyncClosureINS_14MethodFunctor1IN9twiliosdk33TSCVideoCaptureControllerObserverEMS3_FvbEvbEEEC2ERKS6_
   736: 00a78158    32 OBJECT  WEAK   DEFAULT   14 _ZTVN3rtc16RefCountedObjectINS_25FireAndForgetAsyncClosureINS_14MethodFunctor1IN9twiliosdk33TSCVideoCaptureControllerObserverEMS4_FvbEvbEEEEEE
   737: 002c6b41    50 FUNC    WEAK   DEFAULT    8 _ZN3rtc13scoped_refptrINS_12AsyncClosureEEC2EPS1_
   738: 002c6b75    34 FUNC    WEAK   DEFAULT    8 _ZN3rtc8internal15scoped_ptr_implIN7cricket22DeviceManagerInterfaceENS_14DefaultDeleterIS3_EEE4DataC2EPS3_
   739: 002c6c11    22 FUNC    WEAK   DEFAULT    8 _ZN3rtc14DefaultDeleterIN7cricket22DeviceManagerInterfaceEEC2Ev
   740: 002c6b99    52 FUNC    WEAK   DEFAULT    8 _ZN3rtc12AsyncClosureC2Ev
   741: 002c6b99    52 FUNC    WEAK   DEFAULT    8 _ZN3rtc12AsyncClosureC1Ev
   742: 002c6bcd    68 FUNC    WEAK   DEFAULT    8 _ZN3rtc25FireAndForgetAsyncClosureINS_14MethodFunctor1IN9twiliosdk33TSCVideoCaptureControllerObserverEMS3_FvbEvbEEEC1ERKS6_
   743: 002c6c11    22 FUNC    WEAK   DEFAULT    8 _ZN3rtc14DefaultDeleterIN7cricket22DeviceManagerInterfaceEEC1Ev
   744: 00a781b0    12 OBJECT  WEAK   DEFAULT   14 _ZTIN3rtc16RefCountedObjectINS_25FireAndForgetAsyncClosureINS_14MethodFunctor1IN9twiliosdk33TSCVideoCaptureControllerObserverEMS4_FvbEvbEEEEEE
   745: 002c6c29    30 FUNC    WEAK   DEFAULT    8 _ZNK3rtc16RefCountedObjectINS_25FireAndForgetAsyncClosureINS_14MethodFunctor1IN9twiliosdk33TSCVideoCaptureControllerObserverEMS4_FvbEvbEEEEE6AddRefEv
   746: 002c6c49    56 FUNC    WEAK   DEFAULT    8 _ZNK3rtc16RefCountedObjectINS_25FireAndForgetAsyncClosureINS_14MethodFunctor1IN9twiliosdk33TSCVideoCaptureControllerObserverEMS4_FvbEvbEEEEE7ReleaseEv
   747: 002c6c81    64 FUNC    WEAK   DEFAULT    8 _ZN3rtc16RefCountedObjectINS_25FireAndForgetAsyncClosureINS_14MethodFunctor1IN9twiliosdk33TSCVideoCaptureControllerObserverEMS4_FvbEvbEEEEED1Ev
   748: 002c6cc1    32 FUNC    WEAK   DEFAULT    8 _ZN3rtc16RefCountedObjectINS_25FireAndForgetAsyncClosureINS_14MethodFunctor1IN9twiliosdk33TSCVideoCaptureControllerObserverEMS4_FvbEvbEEEEED0Ev
   749: 002c6ce1    24 FUNC    WEAK   DEFAULT    8 _ZN3rtc25FireAndForgetAsyncClosureINS_14MethodFunctor1IN9twiliosdk33TSCVideoCaptureControllerObserverEMS3_FvbEvbEEE7ExecuteEv
   750: 002c6cf9    38 FUNC    WEAK   DEFAULT    8 _ZNK3rtc16RefCountedObjectINS_25FireAndForgetAsyncClosureINS_14MethodFunctor1IN9twiliosdk33TSCVideoCaptureControllerObserverEMS4_FvbEvbEEEEE9HasOneRefEv
   751: 00a781bc    12 OBJECT  WEAK   DEFAULT   14 _ZTIN3rtc25FireAndForgetAsyncClosureINS_14MethodFunctor1IN9twiliosdk33TSCVideoCaptureControllerObserverEMS3_FvbEvbEEEE
   752: 00a781c8    12 OBJECT  WEAK   DEFAULT   14 _ZTIN3rtc12AsyncClosureE
   753: 00a781a8     8 OBJECT  GLOBAL DEFAULT   14 _ZTIN9twiliosdk25TSCVideoCaptureControllerE
   754: 00a781d4    12 OBJECT  WEAK   DEFAULT   14 _ZTINSt3__119basic_ostringstreamIcNS_11char_traitsIcEENS_9allocatorIcEEEE
   755: 00a781ec    24 OBJECT  WEAK   DEFAULT   14 _ZTINSt3__113basic_ostreamIcNS_11char_traitsIcEEEE
   756: 00a781e0    12 OBJECT  WEAK   DEFAULT   14 _ZTINSt3__115basic_stringbufIcNS_11char_traitsIcEENS_9allocatorIcEEEE
   757: 00a78204    12 OBJECT  WEAK   DEFAULT   14 _ZTINSt3__19basic_iosIcNS_11char_traitsIcEEEE
   758: 00a78210     8 OBJECT  WEAK   DEFAULT   14 _ZTINSt3__115basic_streambufIcNS_11char_traitsIcEEEE
   759: 0099f1f8   139 OBJECT  WEAK   DEFAULT   11 _ZTSN3rtc16RefCountedObjectINS_25FireAndForgetAsyncClosureINS_14MethodFunctor1IN9twiliosdk33TSCVideoCaptureControllerObserverEMS4_FvbEvbEEEEEE
   760: 0099f284   115 OBJECT  WEAK   DEFAULT   11 _ZTSN3rtc25FireAndForgetAsyncClosureINS_14MethodFunctor1IN9twiliosdk33TSCVideoCaptureControllerObserverEMS3_FvbEvbEEEE
   761: 0099f2f8    21 OBJECT  WEAK   DEFAULT   11 _ZTSN3rtc12AsyncClosureE
   762: 0099ee24    40 OBJECT  GLOBAL DEFAULT   11 _ZTSN9twiliosdk25TSCVideoCaptureControllerE
   763: 0099f310    70 OBJECT  WEAK   DEFAULT   11 _ZTSNSt3__119basic_ostringstreamIcNS_11char_traitsIcEENS_9allocatorIcEEEE
   764: 0099f358    66 OBJECT  WEAK   DEFAULT   11 _ZTSNSt3__115basic_stringbufIcNS_11char_traitsIcEENS_9allocatorIcEEEE
   765: 0099f39c    47 OBJECT  WEAK   DEFAULT   11 _ZTSNSt3__113basic_ostreamIcNS_11char_traitsIcEEEE
   766: 00a900d0    40 OBJECT  GLOBAL DEFAULT   14 _ZTVN10__cxxabiv121__vmi_class_type_infoE
   767: 0099f3cc    42 OBJECT  WEAK   DEFAULT   11 _ZTSNSt3__19basic_iosIcNS_11char_traitsIcEEEE
   768: 00a8e760     8 OBJECT  GLOBAL DEFAULT   14 _ZTINSt3__18ios_baseE
   769: 0099f3f8    49 OBJECT  WEAK   DEFAULT   11 _ZTSNSt3__115basic_streambufIcNS_11char_traitsIcEEEE
   770: 002c6c81    64 FUNC    WEAK   DEFAULT    8 _ZN3rtc16RefCountedObjectINS_25FireAndForgetAsyncClosureINS_14MethodFunctor1IN9twiliosdk33TSCVideoCaptureControllerObserverEMS4_FvbEvbEEEEED2Ev
   771: 002c6d21    78 FUNC    WEAK   DEFAULT    8 _ZNK3rtc14MethodFunctor1IN9twiliosdk33TSCVideoCaptureControllerObserverEMS2_FvbEvbEclEv
   772: 002c6d71    56 FUNC    GLOBAL DEFAULT    8 _ZN9twiliosdk19TSCEndpointObserverD1Ev
   773: 002c6da9    32 FUNC    GLOBAL DEFAULT    8 _ZN9twiliosdk19TSCEndpointObserverD0Ev
   774: 002c6dc9    76 FUNC    GLOBAL DEFAULT    8 _ZN9twiliosdk19TSCEndpointObserver22onRegistrationCompleteENS_16_TSCoreErrorCodeENSt3__112basic_stringIcNS2_11char_traitsIcEENS2_9allocatorIcEEEE
   775: 002c6e15    76 FUNC    GLOBAL DEFAULT    8 _ZN9twiliosdk19TSCEndpointObserver24onUnregistrationCompleteENS_16_TSCoreErrorCodeENSt3__112basic_stringIcNS2_11char_traitsIcEENS2_9allocatorIcEEEE
   776: 002c6e61    30 FUNC    GLOBAL DEFAULT    8 _ZN9twiliosdk19TSCEndpointObserver13onStateChangeENS_17_TSCEndpointStateE
   777: 002c6e81    30 FUNC    GLOBAL DEFAULT    8 _ZN9twiliosdk19TSCEndpointObserver21onReceiveIncomingCallERKNSt3__110shared_ptrINS_10TSCSessionEEE
   778: 00a78238     8 OBJECT  GLOBAL DEFAULT   14 _ZTIN9twiliosdk19TSCEndpointObserverE
   779: 0099f540    34 OBJECT  GLOBAL DEFAULT   11 _ZTSN9twiliosdk19TSCEndpointObserverE
   780: 002cfa75    58 FUNC    WEAK   DEFAULT    8 _ZN9twiliosdk26TSCSessionMediaConstraintsC2Ev
   781: 002cfa75    58 FUNC    WEAK   DEFAULT    8 _ZN9twiliosdk26TSCSessionMediaConstraintsC1Ev
   782: 002cfab1    30 FUNC    WEAK   DEFAULT    8 _ZNK9twiliosdk19CallStateChangeInfo12getRemoteSdpEv
   783: 002cfad1    32 FUNC    WEAK   DEFAULT    8 _ZNK9twiliosdk19CallStateChangeInfo10getCallSidEv
   784: 002cfaf1   116 FUNC    WEAK   DEFAULT    8 _ZNK9twiliosdk19CallStateChangeInfo18hasConversationSidEv
   785: 002cfb65    32 FUNC    WEAK   DEFAULT    8 _ZNK9twiliosdk19CallStateChangeInfo18getConversationSidEv
   786: 002cfb85    32 FUNC    WEAK   DEFAULT    8 _ZNK9twiliosdk19CallStateChangeInfo9getCookieEv
   787: 002cfba5    56 FUNC    WEAK   DEFAULT    8 _ZN12TwilioCommon21AccessManagerObserverD2Ev
   788: 00a783e0    28 OBJECT  WEAK   DEFAULT   14 _ZTVN12TwilioCommon21AccessManagerObserverE
   789: 002cfba5    56 FUNC    WEAK   DEFAULT    8 _ZN12TwilioCommon21AccessManagerObserverD1Ev
   790: 002cfbdd    32 FUNC    WEAK   DEFAULT    8 _ZN12TwilioCommon21AccessManagerObserverD0Ev
   791: 002cfbfd    20 FUNC    WEAK   DEFAULT    8 _ZN12TwilioCommon21AccessManagerObserver14onTokenExpiredEPNS_13AccessManagerE
   792: 002cfc11    20 FUNC    WEAK   DEFAULT    8 _ZN12TwilioCommon21AccessManagerObserver14onTokenUpdatedEPNS_13AccessManagerE
   793: 002cfc25    20 FUNC    WEAK   DEFAULT    8 _ZN12TwilioCommon21AccessManagerObserver7onErrorERKNSt3__112basic_stringIcNS1_11char_traitsIcEENS1_9allocatorIcEEEE
   794: 002cfc39    48 FUNC    WEAK   DEFAULT    8 _ZN12TwilioCommon21AccessManagerObserverC2Ev
   795: 002cfc39    48 FUNC    WEAK   DEFAULT    8 _ZN12TwilioCommon21AccessManagerObserverC1Ev
   796: 002cfc69    28 FUNC    WEAK   DEFAULT    8 _ZNSt3__14listINS_10shared_ptrIN9twiliosdk10TSCSessionEEENS_9allocatorIS4_EEED2Ev
   797: 002cfd11    26 FUNC    WEAK   DEFAULT    8 _ZNSt3__110__list_impINS_10shared_ptrIN9twiliosdk10TSCSessionEEENS_9allocatorIS4_EEED2Ev
   798: 002cfc69    28 FUNC    WEAK   DEFAULT    8 _ZNSt3__14listINS_10shared_ptrIN9twiliosdk10TSCSessionEEENS_9allocatorIS4_EEED1Ev
   799: 002c950d   828 FUNC    GLOBAL DEFAULT    8 _ZN9twiliosdk11TSCEndpointC2ERKNSt3__13mapINS1_12basic_stringIcNS1_11char_traitsIcEENS1_9allocatorIcEEEES8_NS1_4lessIS8_EENS6_INS1_4pairIKS8_S8_EEEEEEPN12TwilioCommon13AccessManagerERKNS1_10shared_ptrINS_19TSCEndpointObserverEEE
   800: 002cfcc5    28 FUNC    WEAK   DEFAULT    8 _ZN3rtc13scoped_refptrINS_16RefCountedObjectIN9twiliosdk13TSCSIPAccountEEEEC1Ev
   801: 002d6ffd   160 FUNC    GLOBAL DEFAULT    8 _ZN9twiliosdk16TSCConfiguration8instanceEv
   802: 002d74d5  2174 FUNC    GLOBAL DEFAULT    8 _ZN9twiliosdk16TSCConfiguration7composeERKNSt3__13mapINS1_12basic_stringIcNS1_11char_traitsIcEENS1_9allocatorIcEEEES8_NS1_4lessIS8_EENS6_INS1_4pairIKS8_S8_EEEEEE
   803: 002cd2e1    40 FUNC    GLOBAL DEFAULT    8 _ZN9twiliosdk11TSCEndpoint9setOptionERKNSt3__112basic_stringIcNS1_11char_traitsIcEENS1_9allocatorIcEEEES9_
   804: 006f7fb1    32 FUNC    GLOBAL DEFAULT    8 _ZN12TwilioCommon13AccessManager11getIdentityEv
   805: 006f8009   430 FUNC    GLOBAL DEFAULT    8 _ZN12TwilioCommon13AccessManager15getTokenPayloadEv
   806: 002cfd2d   756 FUNC    WEAK   DEFAULT    8 _ZNSt3__13mapINS_12basic_stringIcNS_11char_traitsIcEENS_9allocatorIcEEEES6_NS_4lessIS6_EENS4_INS_4pairIKS6_S6_EEEEEixEOS6_
   807: 006f81b9   184 FUNC    GLOBAL DEFAULT    8 _ZN12TwilioCommon13AccessManager14attachObserverEPNS_21AccessManagerObserverE
   808: 002cfce1    46 FUNC    WEAK   DEFAULT    8 _ZN3rtc13scoped_refptrINS_16RefCountedObjectIN9twiliosdk13TSCSIPAccountEEEED1Ev
   809: 00a783c0    28 OBJECT  GLOBAL DEFAULT   14 _ZTVN9twiliosdk11TSCEndpointE
   810: 00a954bc     4 OBJECT  GLOBAL DEFAULT   18 _ZN9twiliosdk12kTSCTokenKeyE
   811: 00a954ac     4 OBJECT  GLOBAL DEFAULT   18 _ZN9twiliosdk16kTSCAliasNameKeyE
   812: 00a954c0     4 OBJECT  GLOBAL DEFAULT   18 _ZN9twiliosdk17kTSCAccountSidKeyE
   813: 002c9849   356 FUNC    GLOBAL DEFAULT    8 _ZN9twiliosdk11TSCEndpointD2Ev
   814: 006f8271  1256 FUNC    GLOBAL DEFAULT    8 _ZN12TwilioCommon13AccessManager14detachObserverEPNS_21AccessManagerObserverE
   815: 002d0021    24 FUNC    WEAK   DEFAULT    8 _ZNK3rtc13scoped_refptrINS_16RefCountedObjectIN9twiliosdk13TSCSIPAccountEEEE3getEv
   816: 002d0039    24 FUNC    WEAK   DEFAULT    8 _ZNK3rtc13scoped_refptrINS_16RefCountedObjectIN9twiliosdk13TSCSIPAccountEEEEptEv
   817: 003e7455    20 FUNC    GLOBAL DEFAULT    8 _ZN9twiliosdk13TSCSIPAccount10invalidateEv
   818: 002d0051    70 FUNC    WEAK   DEFAULT    8 _ZN3rtc13scoped_refptrINS_16RefCountedObjectIN9twiliosdk13TSCSIPAccountEEEEaSEPS4_
   819: 002c9849   356 FUNC    GLOBAL DEFAULT    8 _ZN9twiliosdk11TSCEndpointD1Ev
   820: 002c99ad    32 FUNC    GLOBAL DEFAULT    8 _ZN9twiliosdk11TSCEndpointD0Ev
   821: 002c99cd   380 FUNC    GLOBAL DEFAULT    8 _ZN9twiliosdk11TSCEndpoint14onTokenUpdatedEPN12TwilioCommon13AccessManagerE
   822: 002c9b49    28 FUNC    GLOBAL DEFAULT    8 _ZNK9twiliosdk11TSCEndpoint14isTokenExpiredEv
   823: 006f7fd1    26 FUNC    GLOBAL DEFAULT    8 _ZN12TwilioCommon13AccessManager9isExpiredEv
   824: 002ca7a5   208 FUNC    GLOBAL DEFAULT    8 _ZN9twiliosdk11TSCEndpoint11changeStateENS_17_TSCEndpointStateEb
   825: 002d0099    48 FUNC    WEAK   DEFAULT    8 _ZN3rtc4BindIN9twiliosdk11TSCEndpointEvbbEENS_14MethodFunctor2IT_MS4_FT0_T1_T2_ES5_S6_S7_EES9_PS4_NS_6detail8identityIS6_E4typeENSD_IS7_E4typeE
   826: 002d00c9    94 FUNC    WEAK   DEFAULT    8 _ZN9twiliosdk6TSCSDK6doWorkIN3rtc14MethodFunctor2INS_11TSCEndpointEMS4_FvbbEvbbEEEEvRKT_
   827: 002c9be5  1764 FUNC    GLOBAL DEFAULT    8 _ZN9twiliosdk11TSCEndpoint10doRegisterEbb
   828: 002ca3b9   380 FUNC    GLOBAL DEFAULT    8 _ZN9twiliosdk11TSCEndpoint19endpointDidRegisterENS_16_TSCoreErrorCodeERKNSt3__112basic_stringIcNS2_11char_traitsIcEENS2_9allocatorIcEEEE
   829: 002d182d   162 FUNC    WEAK   DEFAULT    8 _ZNSt3__16__treeINS_12__value_typeINS_12basic_stringIcNS_11char_traitsIcEENS_9allocatorIcEEEES7_EENS_19__map_value_compareIS7_S8_NS_4lessIS7_EELb1EEENS5_IS8_EEEC1ERKSE_
   830: 002d0129    68 FUNC    WEAK   DEFAULT    8 _ZN3rtc16RefCountedObjectIN9twiliosdk13TSCSIPAccountEEC1INSt3__13mapINS5_12basic_stringIcNS5_11char_traitsIcEENS5_9allocatorIcEEEESC_NS5_4lessISC_EENSA_INS5_4pairIKSC_SC_EEEEEEPNS1_11TSCEndpointEbEET_T0_T1_
   831: 003e7481    44 FUNC    GLOBAL DEFAULT    8 _ZN9twiliosdk13TSCSIPAccount15registerAccountEv
   832: 002cfc85    30 FUNC    WEAK   DEFAULT    8 _ZN3rtc14MethodFunctor2IN9twiliosdk19TSCEndpointObserverEMS2_FvNS1_16_TSCoreErrorCodeENSt3__112basic_stringIcNS4_11char_traitsIcEENS4_9allocatorIcEEEEEvS3_SA_ED2Ev
   833: 002cfc85    30 FUNC    WEAK   DEFAULT    8 _ZN3rtc14MethodFunctor2IN9twiliosdk19TSCEndpointObserverEMS2_FvNS1_16_TSCoreErrorCodeENSt3__112basic_stringIcNS4_11char_traitsIcEENS4_9allocatorIcEEEEEvS3_SA_ED1Ev
   834: 002ca2c9   240 FUNC    GLOBAL DEFAULT    8 _ZN9twiliosdk11TSCEndpoint17onReconnectFailedEv
   835: 002ca875   196 FUNC    GLOBAL DEFAULT    8 _ZN9twiliosdk11TSCEndpoint11changeStateENS_17_TSCEndpointStateE
   836: 002d016d    88 FUNC    WEAK   DEFAULT    8 _ZN3rtc4BindIN9twiliosdk19TSCEndpointObserverEvNS1_16_TSCoreErrorCodeENSt3__112basic_stringIcNS4_11char_traitsIcEENS4_9allocatorIcEEEEEENS_14MethodFunctor2IT_MSC_FT0_T1_T2_ESD_SE_SF_EESH_PSC_NS_6detail8identityISE_E4typeENSL_ISF_E4typeE
   837: 002d01c5    94 FUNC    WEAK   DEFAULT    8 _ZN9twiliosdk6TSCSDK8doNotifyIN3rtc14MethodFunctor2INS_19TSCEndpointObserverEMS4_FvNS_16_TSCoreErrorCodeENSt3__112basic_stringIcNS6_11char_traitsIcEENS6_9allocatorIcEEEEEvS5_SC_EEEEvRKT_
   838: 002ca939  4112 FUNC    GLOBAL DEFAULT    8 _ZN9twiliosdk11TSCEndpoint22parseRegistrationErrorERKNSt3__112basic_stringIcNS1_11char_traitsIcEENS1_9allocatorIcEEEE
   839: 002d0225    40 FUNC    WEAK   DEFAULT    8 _ZN3rtc4BindIN9twiliosdk11TSCEndpointEvEENS_14MethodFunctor0IT_MS4_FT0_vES5_EES7_PS4_
   840: 002d024d    94 FUNC    WEAK   DEFAULT    8 _ZN9twiliosdk6TSCSDK6doWorkIN3rtc14MethodFunctor0INS_11TSCEndpointEMS4_FvvEvEEEEvRKT_
   841: 002ca5a5   104 FUNC    GLOBAL DEFAULT    8 _ZN9twiliosdk11TSCEndpoint12doUnregisterEv
   842: 003e74ad    44 FUNC    GLOBAL DEFAULT    8 _ZN9twiliosdk13TSCSIPAccount17unregisterAccountEv
   843: 002ca60d   408 FUNC    GLOBAL DEFAULT    8 _ZN9twiliosdk11TSCEndpoint21endpointDidUnregisterENS_16_TSCoreErrorCodeERKNSt3__112basic_stringIcNS2_11char_traitsIcEENS2_9allocatorIcEEEE
   844: 002d02ad    44 FUNC    WEAK   DEFAULT    8 _ZN3rtc4BindIN9twiliosdk19TSCEndpointObserverEvNS1_17_TSCEndpointStateEEENS_14MethodFunctor1IT_MS5_FT0_T1_ES6_S7_EES9_PS5_NS_6detail8identityIS7_E4typeE
   845: 002d02d9    94 FUNC    WEAK   DEFAULT    8 _ZN9twiliosdk6TSCSDK8doNotifyIN3rtc14MethodFunctor1INS_19TSCEndpointObserverEMS4_FvNS_17_TSCEndpointStateEEvS5_EEEEvRKT_
   846: 002cb949    30 FUNC    GLOBAL DEFAULT    8 _ZN9twiliosdk11TSCEndpoint14onReconnectingEv
   847: 002cb969    30 FUNC    GLOBAL DEFAULT    8 _ZN9twiliosdk11TSCEndpoint17onRegisterRefreshEv
   848: 002cb989    92 FUNC    GLOBAL DEFAULT    8 _ZNK9twiliosdk11TSCEndpoint12getAccountIdEv
   849: 003e7435    30 FUNC    GLOBAL DEFAULT    8 _ZNK9twiliosdk13TSCSIPAccount7isValidEv
   850: 003e7469    24 FUNC    GLOBAL DEFAULT    8 _ZNK9twiliosdk13TSCSIPAccount5getIdEv
   851: 002efd0d   788 FUNC    GLOBAL DEFAULT    8 _ZN9twiliosdk10TSCSessionC1EPNS_11TSCEndpointEiRKNSt3__13mapINS3_12basic_stringIcNS3_11char_traitsIcEENS3_9allocatorIcEEEESA_NS3_4lessISA_EENS8_INS3_4pairIKSA_SA_EEEEEERKNS3_10shared_ptrINS_18TSCSessionObserverEEE
   852: 002cba71   280 FUNC    GLOBAL DEFAULT    8 _ZN9twiliosdk11TSCEndpoint17onSessionDidStartEPNS_10TSCSessionE
   853: 002d0339   624 FUNC    WEAK   DEFAULT    8 _ZNSt3__110shared_ptrIN9twiliosdk10TSCSessionEEC1IS2_EEPT_NS_9enable_ifIXsrNS_14is_convertibleIS6_PS2_EE5valueENS3_5__natEE4typeE
   854: 002d05a9   808 FUNC    WEAK   DEFAULT    8 _ZNSt3__14listINS_10shared_ptrIN9twiliosdk10TSCSessionEEENS_9allocatorIS4_EEE9push_backERKS4_
   855: 002cbb89   218 FUNC    GLOBAL DEFAULT    8 _ZN9twiliosdk11TSCEndpoint16onSessionDidStopEPNS_10TSCSessionE
   856: 002d08d1   166 FUNC    WEAK   DEFAULT    8 _ZNSt3__14listINS_10shared_ptrIN9twiliosdk10TSCSessionEEENS_9allocatorIS4_EEE5eraseENS_21__list_const_iteratorIS4_PvEE
   857: 002cbc65    52 FUNC    GLOBAL DEFAULT    8 _ZN9twiliosdk11TSCEndpoint6acceptERNSt3__110shared_ptrINS_10TSCSessionEEE
   858: 002d0979    56 FUNC    WEAK   DEFAULT    8 _ZN3rtc16RefCountedObjectIN9twiliosdk26TSCSessionMediaConstraintsEEC1Ev
   859: 002cbc99    34 FUNC    GLOBAL DEFAULT    8 _ZN9twiliosdk11TSCEndpoint6acceptERNSt3__110shared_ptrINS_10TSCSessionEEEPN3rtc16RefCountedObjectINS_26TSCSessionMediaConstraintsEEE
   860: 002f3405   194 FUNC    GLOBAL DEFAULT    8 _ZN9twiliosdk10TSCSession6rejectEv
   861: 002cbcdd    30 FUNC    GLOBAL DEFAULT    8 _ZN9twiliosdk11TSCEndpoint6ignoreERNSt3__110shared_ptrINS_10TSCSessionEEE
   862: 002f34c9   194 FUNC    GLOBAL DEFAULT    8 _ZN9twiliosdk10TSCSession6ignoreEv
   863: 002cbcfd    78 FUNC    GLOBAL DEFAULT    8 _ZNK9twiliosdk11TSCEndpoint15getSessionForIdEy
   864: 002cbd4d   176 FUNC    GLOBAL DEFAULT    8 _ZNK9twiliosdk11TSCEndpoint19getSessionForIdPrivEy
   865: 002f48e5    30 FUNC    GLOBAL DEFAULT    8 _ZNK9twiliosdk10TSCSession5getIdEv
   866: 002cbdfd  2832 FUNC    GLOBAL DEFAULT    8 _ZNK9twiliosdk11TSCEndpoint28getSessionForConversationSidERKNSt3__112basic_stringIcNS1_11char_traitsIcEENS1_9allocatorIcEEEES9_
   867: 002f068d    24 FUNC    GLOBAL DEFAULT    8 _ZNK9twiliosdk10TSCSession9getCookieEv
   868: 002cc90d   286 FUNC    GLOBAL DEFAULT    8 _ZN9twiliosdk11TSCEndpoint14onOfferUpdatedEiRKNSt3__112basic_stringIcNS1_11char_traitsIcEENS1_9allocatorIcEEEEPv
   869: 002f5715    88 FUNC    GLOBAL DEFAULT    8 _ZN9twiliosdk10TSCSession14onOfferUpdatedEiRKNSt3__112basic_stringIcNS1_11char_traitsIcEENS1_9allocatorIcEEEEPNS_24TSCParticipantConnectionE
   870: 002cca2d   286 FUNC    GLOBAL DEFAULT    8 _ZN9twiliosdk11TSCEndpoint21onOfferUpdateAcceptedEiRKNSt3__112basic_stringIcNS1_11char_traitsIcEENS1_9allocatorIcEEEEPv
   871: 002f576d    88 FUNC    GLOBAL DEFAULT    8 _ZN9twiliosdk10TSCSession21onOfferUpdateAcceptedEiRKNSt3__112basic_stringIcNS1_11char_traitsIcEENS1_9allocatorIcEEEEPNS_24TSCParticipantConnectionE
   872: 002ccb4d   284 FUNC    GLOBAL DEFAULT    8 _ZN9twiliosdk11TSCEndpoint21onOfferUpdateRejectedEiPv
   873: 002f57c5    84 FUNC    GLOBAL DEFAULT    8 _ZN9twiliosdk10TSCSession21onOfferUpdateRejectedEiPNS_24TSCParticipantConnectionE
   874: 002ccc69   668 FUNC    GLOBAL DEFAULT    8 _ZN9twiliosdk11TSCEndpoint17onCallStateChangeEiNS_10TSCSIPCall16_TSCSIPCallStateERKNS_19CallStateChangeInfoEPv
   875: 002f48c9    28 FUNC    GLOBAL DEFAULT    8 _ZN9twiliosdk10TSCSession18setConversationSidERKNSt3__112basic_stringIcNS1_11char_traitsIcEENS1_9allocatorIcEEEE
   876: 002f4df1  2076 FUNC    GLOBAL DEFAULT    8 _ZN9twiliosdk10TSCSession17onCallStateChangeEiNS_10TSCSIPCall16_TSCSIPCallStateERKNS_19CallStateChangeInfoEPNS_24TSCParticipantConnectionE
   877: 002ccf05   280 FUNC    GLOBAL DEFAULT    8 _ZN9twiliosdk11TSCEndpoint19onConversationEventEiPNS_17ConversationEventEPv
   878: 002f74b5    64 FUNC    GLOBAL DEFAULT    8 _ZN9twiliosdk10TSCSession19onConversationEventEPNS_17ConversationEventE
   879: 002cfca5    30 FUNC    WEAK   DEFAULT    8 _ZN3rtc14MethodFunctor1IN9twiliosdk19TSCEndpointObserverEMS2_FvRKNSt3__110shared_ptrINS1_10TSCSessionEEEEvS8_ED2Ev
   880: 002cfca5    30 FUNC    WEAK   DEFAULT    8 _ZN3rtc14MethodFunctor1IN9twiliosdk19TSCEndpointObserverEMS2_FvRKNSt3__110shared_ptrINS1_10TSCSessionEEEEvS8_ED1Ev
   881: 002cd01d   708 FUNC    GLOBAL DEFAULT    8 _ZN9twiliosdk11TSCEndpoint14onIncomingCallEiRKNS_19CallStateChangeInfoERKNSt3__112basic_stringIcNS4_11char_traitsIcEENS4_9allocatorIcEEEE
   882: 002f14d5  3392 FUNC    GLOBAL DEFAULT    8 _ZN9twiliosdk10TSCSession14addParticipantEyRKNSt3__112basic_stringIcNS1_11char_traitsIcEENS1_9allocatorIcEEEES9_
   883: 002ef66d  1696 FUNC    GLOBAL DEFAULT    8 _ZN9twiliosdk10TSCSessionC1EPNS_11TSCEndpointEiRKNSt3__13mapINS3_12basic_stringIcNS3_11char_traitsIcEENS3_9allocatorIcEEEESA_NS3_4lessISA_EENS8_INS3_4pairIKSA_SA_EEEEEEyRSE_SK_
   884: 002f4895    28 FUNC    GLOBAL DEFAULT    8 _ZN9twiliosdk10TSCSession10setCallSidERKNSt3__112basic_stringIcNS1_11char_traitsIcEENS1_9allocatorIcEEEE
   885: 002d09b1    44 FUNC    WEAK   DEFAULT    8 _ZN3rtc4BindIN9twiliosdk19TSCEndpointObserverEvRKNSt3__110shared_ptrINS1_10TSCSessionEEEEENS_14MethodFunctor1IT_MSA_FT0_T1_ESB_SC_EESE_PSA_NS_6detail8identityISC_E4typeE
   886: 002d09dd    94 FUNC    WEAK   DEFAULT    8 _ZN9twiliosdk6TSCSDK8doNotifyIN3rtc14MethodFunctor1INS_19TSCEndpointObserverEMS4_FvRKNSt3__110shared_ptrINS_10TSCSessionEEEEvSA_EEEEvRKT_
   887: 002cd309    44 FUNC    GLOBAL DEFAULT    8 _ZN9twiliosdk11TSCEndpoint9getOptionERKNSt3__112basic_stringIcNS1_11char_traitsIcEENS1_9allocatorIcEEEE
   888: 002cd335   186 FUNC    GLOBAL DEFAULT    8 _ZN9twiliosdk11TSCEndpoint11renegotiateEv
   889: 002f4211   176 FUNC    GLOBAL DEFAULT    8 _ZN9twiliosdk10TSCSession11renegotiateEv
   890: 002cfcc5    28 FUNC    WEAK   DEFAULT    8 _ZN3rtc13scoped_refptrINS_16RefCountedObjectIN9twiliosdk13TSCSIPAccountEEEEC2Ev
   891: 002cfce1    46 FUNC    WEAK   DEFAULT    8 _ZN3rtc13scoped_refptrINS_16RefCountedObjectIN9twiliosdk13TSCSIPAccountEEEED2Ev
   892: 002d0a75   240 FUNC    WEAK   DEFAULT    8 _ZNSt3__110__list_impINS_10shared_ptrIN9twiliosdk10TSCSessionEEENS_9allocatorIS4_EEE5clearEv
   893: 002cfd11    26 FUNC    WEAK   DEFAULT    8 _ZNSt3__110__list_impINS_10shared_ptrIN9twiliosdk10TSCSessionEEENS_9allocatorIS4_EEED1Ev
   894: 002d0bf5  2296 FUNC    WEAK   DEFAULT    8 _ZNSt3__13mapINS_12basic_stringIcNS_11char_traitsIcEENS_9allocatorIcEEEES6_NS_4lessIS6_EENS4_INS_4pairIKS6_S6_EEEEE16__find_equal_keyERPNS_16__tree_node_baseIPvEERSA_
   895: 002d14ed   616 FUNC    WEAK   DEFAULT    8 _ZNSt3__13mapINS_12basic_stringIcNS_11char_traitsIcEENS_9allocatorIcEEEES6_NS_4lessIS6_EENS4_INS_4pairIKS6_S6_EEEEE25__construct_node_with_keyEOS6_
   896: 002d1775    64 FUNC    WEAK   DEFAULT    8 _ZN3rtc14MethodFunctor2IN9twiliosdk11TSCEndpointEMS2_FvbbEvbbEC1ES4_PS2_bb
   897: 002d17b5   120 FUNC    WEAK   DEFAULT    8 _ZN3rtc12AsyncInvoker11AsyncInvokeIvNS_14MethodFunctor2IN9twiliosdk11TSCEndpointEMS4_FvbbEvbbEEEEvPNS_6ThreadERKT0_j
   898: 002d0129    68 FUNC    WEAK   DEFAULT    8 _ZN3rtc16RefCountedObjectIN9twiliosdk13TSCSIPAccountEEC2INSt3__13mapINS5_12basic_stringIcNS5_11char_traitsIcEENS5_9allocatorIcEEEESC_NS5_4lessISC_EENSA_INS5_4pairIKSC_SC_EEEEEEPNS1_11TSCEndpointEbEET_T0_T1_
   899: 003e6ff9   204 FUNC    GLOBAL DEFAULT    8 _ZN9twiliosdk13TSCSIPAccountC2ERKNSt3__13mapINS1_12basic_stringIcNS1_11char_traitsIcEENS1_9allocatorIcEEEES8_NS1_4lessIS8_EENS6_INS1_4pairIKS8_S8_EEEEEEPNS_11TSCEndpointEb
   900: 00a783a0    28 OBJECT  WEAK   DEFAULT   14 _ZTVN3rtc16RefCountedObjectIN9twiliosdk13TSCSIPAccountEEE
   901: 002d18d1    66 FUNC    WEAK   DEFAULT    8 _ZN3rtc14MethodFunctor2IN9twiliosdk19TSCEndpointObserverEMS2_FvNS1_16_TSCoreErrorCodeENSt3__112basic_stringIcNS4_11char_traitsIcEENS4_9allocatorIcEEEEEvS3_SA_EC1ESC_PS2_S3_SA_
   902: 002d1959   138 FUNC    WEAK   DEFAULT    8 _ZN3rtc12AsyncInvoker11AsyncInvokeIvNS_14MethodFunctor2IN9twiliosdk19TSCEndpointObserverEMS4_FvNS3_16_TSCoreErrorCodeENSt3__112basic_stringIcNS6_11char_traitsIcEENS6_9allocatorIcEEEEEvS5_SC_EEEEvPNS_6ThreadERKT0_j
   903: 002d19e5    52 FUNC    WEAK   DEFAULT    8 _ZN3rtc14MethodFunctor0IN9twiliosdk11TSCEndpointEMS2_FvvEvEC1ES4_PS2_
   904: 002d1a19   116 FUNC    WEAK   DEFAULT    8 _ZN3rtc12AsyncInvoker11AsyncInvokeIvNS_14MethodFunctor0IN9twiliosdk11TSCEndpointEMS4_FvvEvEEEEvPNS_6ThreadERKT0_j
   905: 002d1a8d    58 FUNC    WEAK   DEFAULT    8 _ZN3rtc14MethodFunctor1IN9twiliosdk19TSCEndpointObserverEMS2_FvNS1_17_TSCEndpointStateEEvS3_EC1ES5_PS2_S3_
   906: 002d1ac9   120 FUNC    WEAK   DEFAULT    8 _ZN3rtc12AsyncInvoker11AsyncInvokeIvNS_14MethodFunctor1IN9twiliosdk19TSCEndpointObserverEMS4_FvNS3_17_TSCEndpointStateEEvS5_EEEEvPNS_6ThreadERKT0_j
   907: 002d0339   624 FUNC    WEAK   DEFAULT    8 _ZNSt3__110shared_ptrIN9twiliosdk10TSCSessionEEC2IS2_EEPT_NS_9enable_ifIXsrNS_14is_convertibleIS6_PS2_EE5valueENS3_5__natEE4typeE
   908: 00a78380    28 OBJECT  WEAK   DEFAULT   14 _ZTVNSt3__120__shared_ptr_pointerIPN9twiliosdk10TSCSessionENS_14default_deleteIS2_EENS_9allocatorIS2_EEEE
   909: 002d0979    56 FUNC    WEAK   DEFAULT    8 _ZN3rtc16RefCountedObjectIN9twiliosdk26TSCSessionMediaConstraintsEEC2Ev
   910: 002d1b41    92 FUNC    WEAK   DEFAULT    8 _ZN3rtc14MethodFunctor1IN9twiliosdk19TSCEndpointObserverEMS2_FvRKNSt3__110shared_ptrINS1_10TSCSessionEEEEvS8_EC1ESA_PS2_S8_
   911: 002d1bf9   138 FUNC    WEAK   DEFAULT    8 _ZN3rtc12AsyncInvoker11AsyncInvokeIvNS_14MethodFunctor1IN9twiliosdk19TSCEndpointObserverEMS4_FvRKNSt3__110shared_ptrINS3_10TSCSessionEEEEvSA_EEEEvPNS_6ThreadERKT0_j
   912: 002d1c85  1724 FUNC    WEAK   DEFAULT    8 _ZNSt3__13mapINS_12basic_stringIcNS_11char_traitsIcEENS_9allocatorIcEEEES6_NS_4lessIS6_EENS4_INS_4pairIKS6_S6_EEEEE25__construct_node_with_keyERSA_
   913: 002d0a3d    56 FUNC    WEAK   DEFAULT    8 _ZNK3rtc16RefCountedObjectIN9twiliosdk13TSCSIPAccountEE7ReleaseEv
   914: 002d1755    30 FUNC    WEAK   DEFAULT    8 _ZNK3rtc16RefCountedObjectIN9twiliosdk13TSCSIPAccountEE6AddRefEv
   915: 002d1775    64 FUNC    WEAK   DEFAULT    8 _ZN3rtc14MethodFunctor2IN9twiliosdk11TSCEndpointEMS2_FvbbEvbbEC2ES4_PS2_bb
   916: 002d2465    76 FUNC    WEAK   DEFAULT    8 _ZN3rtc16RefCountedObjectINS_25FireAndForgetAsyncClosureINS_14MethodFunctor2IN9twiliosdk11TSCEndpointEMS4_FvbbEvbbEEEEEC1IS7_EET_
   917: 002d182d   162 FUNC    WEAK   DEFAULT    8 _ZNSt3__16__treeINS_12__value_typeINS_12basic_stringIcNS_11char_traitsIcEENS_9allocatorIcEEEES7_EENS_19__map_value_compareIS7_S8_NS_4lessIS7_EELb1EEENS5_IS8_EEEC2ERKSE_
   918: 002d18d1    66 FUNC    WEAK   DEFAULT    8 _ZN3rtc14MethodFunctor2IN9twiliosdk19TSCEndpointObserverEMS2_FvNS1_16_TSCoreErrorCodeENSt3__112basic_stringIcNS4_11char_traitsIcEENS4_9allocatorIcEEEEEvS3_SA_EC2ESC_PS2_S3_SA_
   919: 002d1915    68 FUNC    WEAK   DEFAULT    8 _ZN3rtc14MethodFunctor2IN9twiliosdk19TSCEndpointObserverEMS2_FvNS1_16_TSCoreErrorCodeENSt3__112basic_stringIcNS4_11char_traitsIcEENS4_9allocatorIcEEEEEvS3_SA_EC2ERKSD_
   920: 002d1915    68 FUNC    WEAK   DEFAULT    8 _ZN3rtc14MethodFunctor2IN9twiliosdk19TSCEndpointObserverEMS2_FvNS1_16_TSCoreErrorCodeENSt3__112basic_stringIcNS4_11char_traitsIcEENS4_9allocatorIcEEEEEvS3_SA_EC1ERKSD_
   921: 002d2519    60 FUNC    WEAK   DEFAULT    8 _ZN3rtc16RefCountedObjectINS_25FireAndForgetAsyncClosureINS_14MethodFunctor2IN9twiliosdk19TSCEndpointObserverEMS4_FvNS3_16_TSCoreErrorCodeENSt3__112basic_stringIcNS6_11char_traitsIcEENS6_9allocatorIcEEEEEvS5_SC_EEEEEC1ISF_EET_
   922: 002d19e5    52 FUNC    WEAK   DEFAULT    8 _ZN3rtc14MethodFunctor0IN9twiliosdk11TSCEndpointEMS2_FvvEvEC2ES4_PS2_
   923: 002d25b5    64 FUNC    WEAK   DEFAULT    8 _ZN3rtc16RefCountedObjectINS_25FireAndForgetAsyncClosureINS_14MethodFunctor0IN9twiliosdk11TSCEndpointEMS4_FvvEvEEEEEC1IS7_EET_
   924: 002d1a8d    58 FUNC    WEAK   DEFAULT    8 _ZN3rtc14MethodFunctor1IN9twiliosdk19TSCEndpointObserverEMS2_FvNS1_17_TSCEndpointStateEEvS3_EC2ES5_PS2_S3_
   925: 002d2655    76 FUNC    WEAK   DEFAULT    8 _ZN3rtc16RefCountedObjectINS_25FireAndForgetAsyncClosureINS_14MethodFunctor1IN9twiliosdk19TSCEndpointObserverEMS4_FvNS3_17_TSCEndpointStateEEvS5_EEEEEC1IS8_EET_
   926: 002d1b41    92 FUNC    WEAK   DEFAULT    8 _ZN3rtc14MethodFunctor1IN9twiliosdk19TSCEndpointObserverEMS2_FvRKNSt3__110shared_ptrINS1_10TSCSessionEEEEvS8_EC2ESA_PS2_S8_
   927: 002d1b9d    90 FUNC    WEAK   DEFAULT    8 _ZN3rtc14MethodFunctor1IN9twiliosdk19TSCEndpointObserverEMS2_FvRKNSt3__110shared_ptrINS1_10TSCSessionEEEEvS8_EC2ERKSB_
   928: 002d1b9d    90 FUNC    WEAK   DEFAULT    8 _ZN3rtc14MethodFunctor1IN9twiliosdk19TSCEndpointObserverEMS2_FvRKNSt3__110shared_ptrINS1_10TSCSessionEEEEvS8_EC1ERKSB_
   929: 002d2709    60 FUNC    WEAK   DEFAULT    8 _ZN3rtc16RefCountedObjectINS_25FireAndForgetAsyncClosureINS_14MethodFunctor1IN9twiliosdk19TSCEndpointObserverEMS4_FvRKNSt3__110shared_ptrINS3_10TSCSessionEEEEvSA_EEEEEC1ISD_EET_
   930: 00a901f8    20 OBJECT  GLOBAL DEFAULT   14 _ZTVSt12out_of_range
   931: 00a9020c    12 OBJECT  GLOBAL DEFAULT   14 _ZTISt12out_of_range
   932: 00897059    76 FUNC    GLOBAL DEFAULT    8 _ZNSt12out_of_rangeD1Ev
   933: 002d23a5    64 FUNC    WEAK   DEFAULT    8 _ZN3rtc16RefCountedObjectIN9twiliosdk13TSCSIPAccountEED2Ev
   934: 003e70c5    72 FUNC    GLOBAL DEFAULT    8 _ZN9twiliosdk13TSCSIPAccountD2Ev
   935: 002d23a5    64 FUNC    WEAK   DEFAULT    8 _ZN3rtc16RefCountedObjectIN9twiliosdk13TSCSIPAccountEED1Ev
   936: 002d23e5    32 FUNC    WEAK   DEFAULT    8 _ZN3rtc16RefCountedObjectIN9twiliosdk13TSCSIPAccountEED0Ev
   937: 002d2745   158 FUNC    WEAK   DEFAULT    8 _ZNSt3__16__treeINS_12__value_typeINS_12basic_stringIcNS_11char_traitsIcEENS_9allocatorIcEEEES7_EENS_19__map_value_compareIS7_S8_NS_4lessIS7_EELb1EEENS5_IS8_EEE8__detachEv
   938: 002d27e5   134 FUNC    WEAK   DEFAULT    8 _ZNSt3__16__treeINS_12__value_typeINS_12basic_stringIcNS_11char_traitsIcEENS_9allocatorIcEEEES7_EENS_19__map_value_compareIS7_S8_NS_4lessIS7_EELb1EEENS5_IS8_EEE8__detachEPNS_11__tree_nodeIS8_PvEE
   939: 002d286d    64 FUNC    WEAK   DEFAULT    8 _ZNSt3__16__treeINS_12__value_typeINS_12basic_stringIcNS_11char_traitsIcEENS_9allocatorIcEEEES7_EENS_19__map_value_compareIS7_S8_NS_4lessIS7_EELb1EEENS5_IS8_EEE19__node_insert_multiEPNS_11__tree_nodeIS8_PvEE
   940: 002d28ad   318 FUNC    WEAK   DEFAULT    8 _ZNSt3__16__treeINS_12__value_typeINS_12basic_stringIcNS_11char_traitsIcEENS_9allocatorIcEEEES7_EENS_19__map_value_compareIS7_S8_NS_4lessIS7_EELb1EEENS5_IS8_EEE14__insert_multiERKS8_
   941: 002d2405    64 FUNC    WEAK   DEFAULT    8 _ZN3rtc25FireAndForgetAsyncClosureINS_14MethodFunctor2IN9twiliosdk11TSCEndpointEMS3_FvbbEvbbEEED2Ev
   942: 00a78360    28 OBJECT  WEAK   DEFAULT   14 _ZTVN3rtc25FireAndForgetAsyncClosureINS_14MethodFunctor2IN9twiliosdk11TSCEndpointEMS3_FvbbEvbbEEEE
   943: 002d2405    64 FUNC    WEAK   DEFAULT    8 _ZN3rtc25FireAndForgetAsyncClosureINS_14MethodFunctor2IN9twiliosdk11TSCEndpointEMS3_FvbbEvbbEEED1Ev
   944: 002d2445    32 FUNC    WEAK   DEFAULT    8 _ZN3rtc25FireAndForgetAsyncClosureINS_14MethodFunctor2IN9twiliosdk11TSCEndpointEMS3_FvbbEvbbEEED0Ev
   945: 002d2465    76 FUNC    WEAK   DEFAULT    8 _ZN3rtc16RefCountedObjectINS_25FireAndForgetAsyncClosureINS_14MethodFunctor2IN9twiliosdk11TSCEndpointEMS4_FvbbEvbbEEEEEC2IS7_EET_
   946: 002d29ed    68 FUNC    WEAK   DEFAULT    8 _ZN3rtc25FireAndForgetAsyncClosureINS_14MethodFunctor2IN9twiliosdk11TSCEndpointEMS3_FvbbEvbbEEEC2ERKS6_
   947: 00a78340    32 OBJECT  WEAK   DEFAULT   14 _ZTVN3rtc16RefCountedObjectINS_25FireAndForgetAsyncClosureINS_14MethodFunctor2IN9twiliosdk11TSCEndpointEMS4_FvbbEvbbEEEEEE
   948: 002d24b1    72 FUNC    WEAK   DEFAULT    8 _ZN3rtc25FireAndForgetAsyncClosureINS_14MethodFunctor2IN9twiliosdk19TSCEndpointObserverEMS3_FvNS2_16_TSCoreErrorCodeENSt3__112basic_stringIcNS5_11char_traitsIcEENS5_9allocatorIcEEEEEvS4_SB_EEED2Ev
   949: 00a78320    28 OBJECT  WEAK   DEFAULT   14 _ZTVN3rtc25FireAndForgetAsyncClosureINS_14MethodFunctor2IN9twiliosdk19TSCEndpointObserverEMS3_FvNS2_16_TSCoreErrorCodeENSt3__112basic_stringIcNS5_11char_traitsIcEENS5_9allocatorIcEEEEEvS4_SB_EEEE
   950: 002d24b1    72 FUNC    WEAK   DEFAULT    8 _ZN3rtc25FireAndForgetAsyncClosureINS_14MethodFunctor2IN9twiliosdk19TSCEndpointObserverEMS3_FvNS2_16_TSCoreErrorCodeENSt3__112basic_stringIcNS5_11char_traitsIcEENS5_9allocatorIcEEEEEvS4_SB_EEED1Ev
   951: 002d24f9    32 FUNC    WEAK   DEFAULT    8 _ZN3rtc25FireAndForgetAsyncClosureINS_14MethodFunctor2IN9twiliosdk19TSCEndpointObserverEMS3_FvNS2_16_TSCoreErrorCodeENSt3__112basic_stringIcNS5_11char_traitsIcEENS5_9allocatorIcEEEEEvS4_SB_EEED0Ev
   952: 002d2519    60 FUNC    WEAK   DEFAULT    8 _ZN3rtc16RefCountedObjectINS_25FireAndForgetAsyncClosureINS_14MethodFunctor2IN9twiliosdk19TSCEndpointObserverEMS4_FvNS3_16_TSCoreErrorCodeENSt3__112basic_stringIcNS6_11char_traitsIcEENS6_9allocatorIcEEEEEvS5_SC_EEEEEC2ISF_EET_
   953: 002d2a31    80 FUNC    WEAK   DEFAULT    8 _ZN3rtc25FireAndForgetAsyncClosureINS_14MethodFunctor2IN9twiliosdk19TSCEndpointObserverEMS3_FvNS2_16_TSCoreErrorCodeENSt3__112basic_stringIcNS5_11char_traitsIcEENS5_9allocatorIcEEEEEvS4_SB_EEEC2ERKSE_
   954: 00a78300    32 OBJECT  WEAK   DEFAULT   14 _ZTVN3rtc16RefCountedObjectINS_25FireAndForgetAsyncClosureINS_14MethodFunctor2IN9twiliosdk19TSCEndpointObserverEMS4_FvNS3_16_TSCoreErrorCodeENSt3__112basic_stringIcNS6_11char_traitsIcEENS6_9allocatorIcEEEEEvS5_SC_EEEEEE
   955: 002d2555    64 FUNC    WEAK   DEFAULT    8 _ZN3rtc25FireAndForgetAsyncClosureINS_14MethodFunctor0IN9twiliosdk11TSCEndpointEMS3_FvvEvEEED2Ev
   956: 00a782e0    28 OBJECT  WEAK   DEFAULT   14 _ZTVN3rtc25FireAndForgetAsyncClosureINS_14MethodFunctor0IN9twiliosdk11TSCEndpointEMS3_FvvEvEEEE
   957: 002d2555    64 FUNC    WEAK   DEFAULT    8 _ZN3rtc25FireAndForgetAsyncClosureINS_14MethodFunctor0IN9twiliosdk11TSCEndpointEMS3_FvvEvEEED1Ev
   958: 002d2595    32 FUNC    WEAK   DEFAULT    8 _ZN3rtc25FireAndForgetAsyncClosureINS_14MethodFunctor0IN9twiliosdk11TSCEndpointEMS3_FvvEvEEED0Ev
   959: 002d25b5    64 FUNC    WEAK   DEFAULT    8 _ZN3rtc16RefCountedObjectINS_25FireAndForgetAsyncClosureINS_14MethodFunctor0IN9twiliosdk11TSCEndpointEMS4_FvvEvEEEEEC2IS7_EET_
   960: 002d2a81    64 FUNC    WEAK   DEFAULT    8 _ZN3rtc25FireAndForgetAsyncClosureINS_14MethodFunctor0IN9twiliosdk11TSCEndpointEMS3_FvvEvEEEC2ERKS6_
   961: 00a782c0    32 OBJECT  WEAK   DEFAULT   14 _ZTVN3rtc16RefCountedObjectINS_25FireAndForgetAsyncClosureINS_14MethodFunctor0IN9twiliosdk11TSCEndpointEMS4_FvvEvEEEEEE
   962: 002d25f5    64 FUNC    WEAK   DEFAULT    8 _ZN3rtc25FireAndForgetAsyncClosureINS_14MethodFunctor1IN9twiliosdk19TSCEndpointObserverEMS3_FvNS2_17_TSCEndpointStateEEvS4_EEED2Ev
   963: 00a782a0    28 OBJECT  WEAK   DEFAULT   14 _ZTVN3rtc25FireAndForgetAsyncClosureINS_14MethodFunctor1IN9twiliosdk19TSCEndpointObserverEMS3_FvNS2_17_TSCEndpointStateEEvS4_EEEE
   964: 002d25f5    64 FUNC    WEAK   DEFAULT    8 _ZN3rtc25FireAndForgetAsyncClosureINS_14MethodFunctor1IN9twiliosdk19TSCEndpointObserverEMS3_FvNS2_17_TSCEndpointStateEEvS4_EEED1Ev
   965: 002d2635    32 FUNC    WEAK   DEFAULT    8 _ZN3rtc25FireAndForgetAsyncClosureINS_14MethodFunctor1IN9twiliosdk19TSCEndpointObserverEMS3_FvNS2_17_TSCEndpointStateEEvS4_EEED0Ev
   966: 002d2655    76 FUNC    WEAK   DEFAULT    8 _ZN3rtc16RefCountedObjectINS_25FireAndForgetAsyncClosureINS_14MethodFunctor1IN9twiliosdk19TSCEndpointObserverEMS4_FvNS3_17_TSCEndpointStateEEvS5_EEEEEC2IS8_EET_
   967: 002d2ac1    68 FUNC    WEAK   DEFAULT    8 _ZN3rtc25FireAndForgetAsyncClosureINS_14MethodFunctor1IN9twiliosdk19TSCEndpointObserverEMS3_FvNS2_17_TSCEndpointStateEEvS4_EEEC2ERKS7_
   968: 00a78280    32 OBJECT  WEAK   DEFAULT   14 _ZTVN3rtc16RefCountedObjectINS_25FireAndForgetAsyncClosureINS_14MethodFunctor1IN9twiliosdk19TSCEndpointObserverEMS4_FvNS3_17_TSCEndpointStateEEvS5_EEEEEE
   969: 002d26a1    72 FUNC    WEAK   DEFAULT    8 _ZN3rtc25FireAndForgetAsyncClosureINS_14MethodFunctor1IN9twiliosdk19TSCEndpointObserverEMS3_FvRKNSt3__110shared_ptrINS2_10TSCSessionEEEEvS9_EEED2Ev
   970: 00a78260    28 OBJECT  WEAK   DEFAULT   14 _ZTVN3rtc25FireAndForgetAsyncClosureINS_14MethodFunctor1IN9twiliosdk19TSCEndpointObserverEMS3_FvRKNSt3__110shared_ptrINS2_10TSCSessionEEEEvS9_EEEE
   971: 002d26a1    72 FUNC    WEAK   DEFAULT    8 _ZN3rtc25FireAndForgetAsyncClosureINS_14MethodFunctor1IN9twiliosdk19TSCEndpointObserverEMS3_FvRKNSt3__110shared_ptrINS2_10TSCSessionEEEEvS9_EEED1Ev
   972: 002d26e9    32 FUNC    WEAK   DEFAULT    8 _ZN3rtc25FireAndForgetAsyncClosureINS_14MethodFunctor1IN9twiliosdk19TSCEndpointObserverEMS3_FvRKNSt3__110shared_ptrINS2_10TSCSessionEEEEvS9_EEED0Ev
   973: 002d2709    60 FUNC    WEAK   DEFAULT    8 _ZN3rtc16RefCountedObjectINS_25FireAndForgetAsyncClosureINS_14MethodFunctor1IN9twiliosdk19TSCEndpointObserverEMS4_FvRKNSt3__110shared_ptrINS3_10TSCSessionEEEEvSA_EEEEEC2ISD_EET_
   974: 002d2b05    64 FUNC    WEAK   DEFAULT    8 _ZN3rtc25FireAndForgetAsyncClosureINS_14MethodFunctor1IN9twiliosdk19TSCEndpointObserverEMS3_FvRKNSt3__110shared_ptrINS2_10TSCSessionEEEEvS9_EEEC2ERKSC_
   975: 00a78240    32 OBJECT  WEAK   DEFAULT   14 _ZTVN3rtc16RefCountedObjectINS_25FireAndForgetAsyncClosureINS_14MethodFunctor1IN9twiliosdk19TSCEndpointObserverEMS4_FvRKNSt3__110shared_ptrINS3_10TSCSessionEEEEvSA_EEEEEE
   976: 002d2b45    58 FUNC    WEAK   DEFAULT    8 _ZNSt3__111__tree_leafIPNS_16__tree_node_baseIPvEEEET_S5_
   977: 002d2b81   816 FUNC    WEAK   DEFAULT    8 _ZNSt3__16__treeINS_12__value_typeINS_12basic_stringIcNS_11char_traitsIcEENS_9allocatorIcEEEES7_EENS_19__map_value_compareIS7_S8_NS_4lessIS7_EELb1EEENS5_IS8_EEE16__construct_nodeIJRKS8_EEENS_10unique_ptrINS_11__tree_nodeIS8_PvEENS_22__tree_node_destructorINS5_ISL_EEEEEEDpOT_
   978: 002d29ed    68 FUNC    WEAK   DEFAULT    8 _ZN3rtc25FireAndForgetAsyncClosureINS_14MethodFunctor2IN9twiliosdk11TSCEndpointEMS3_FvbbEvbbEEEC1ERKS6_
   979: 002d2eb1   828 FUNC    WEAK   DEFAULT    8 _ZNSt3__16__treeINS_12__value_typeINS_12basic_stringIcNS_11char_traitsIcEENS_9allocatorIcEEEES7_EENS_19__map_value_compareIS7_S8_NS_4lessIS7_EELb1EEENS5_IS8_EEE16__construct_nodeIJRKNS_4pairIKS7_S7_EEEEENS_10unique_ptrINS_11__tree_nodeIS8_PvEENS_22__tree_node_destructorINS5_ISO_EEEEEEDpOT_
   980: 002d31ed    82 FUNC    WEAK   DEFAULT    8 _ZNSt3__16__treeINS_12__value_typeINS_12basic_stringIcNS_11char_traitsIcEENS_9allocatorIcEEEES7_EENS_19__map_value_compareIS7_S8_NS_4lessIS7_EELb1EEENS5_IS8_EEE20__node_insert_uniqueENS_21__tree_const_iteratorIS8_PNS_11__tree_nodeIS8_PvEEiEESJ_
   981: 002d2a31    80 FUNC    WEAK   DEFAULT    8 _ZN3rtc25FireAndForgetAsyncClosureINS_14MethodFunctor2IN9twiliosdk19TSCEndpointObserverEMS3_FvNS2_16_TSCoreErrorCodeENSt3__112basic_stringIcNS5_11char_traitsIcEENS5_9allocatorIcEEEEEvS4_SB_EEEC1ERKSE_
   982: 002d2a81    64 FUNC    WEAK   DEFAULT    8 _ZN3rtc25FireAndForgetAsyncClosureINS_14MethodFunctor0IN9twiliosdk11TSCEndpointEMS3_FvvEvEEEC1ERKS6_
   983: 002d2ac1    68 FUNC    WEAK   DEFAULT    8 _ZN3rtc25FireAndForgetAsyncClosureINS_14MethodFunctor1IN9twiliosdk19TSCEndpointObserverEMS3_FvNS2_17_TSCEndpointStateEEvS4_EEEC1ERKS7_
   984: 002d2b05    64 FUNC    WEAK   DEFAULT    8 _ZN3rtc25FireAndForgetAsyncClosureINS_14MethodFunctor1IN9twiliosdk19TSCEndpointObserverEMS3_FvRKNSt3__110shared_ptrINS2_10TSCSessionEEEEvS9_EEEC1ERKSC_
   985: 002d32a1    30 FUNC    WEAK   DEFAULT    8 _ZNK3rtc16RefCountedObjectINS_25FireAndForgetAsyncClosureINS_14MethodFunctor1IN9twiliosdk19TSCEndpointObserverEMS4_FvRKNSt3__110shared_ptrINS3_10TSCSessionEEEEvSA_EEEEE6AddRefEv
   986: 002d32c1    56 FUNC    WEAK   DEFAULT    8 _ZNK3rtc16RefCountedObjectINS_25FireAndForgetAsyncClosureINS_14MethodFunctor1IN9twiliosdk19TSCEndpointObserverEMS4_FvRKNSt3__110shared_ptrINS3_10TSCSessionEEEEvSA_EEEEE7ReleaseEv
   987: 002d32f9    64 FUNC    WEAK   DEFAULT    8 _ZN3rtc16RefCountedObjectINS_25FireAndForgetAsyncClosureINS_14MethodFunctor1IN9twiliosdk19TSCEndpointObserverEMS4_FvRKNSt3__110shared_ptrINS3_10TSCSessionEEEEvSA_EEEEED1Ev
   988: 002d3339    32 FUNC    WEAK   DEFAULT    8 _ZN3rtc16RefCountedObjectINS_25FireAndForgetAsyncClosureINS_14MethodFunctor1IN9twiliosdk19TSCEndpointObserverEMS4_FvRKNSt3__110shared_ptrINS3_10TSCSessionEEEEvSA_EEEEED0Ev
   989: 002d3359    24 FUNC    WEAK   DEFAULT    8 _ZN3rtc25FireAndForgetAsyncClosureINS_14MethodFunctor1IN9twiliosdk19TSCEndpointObserverEMS3_FvRKNSt3__110shared_ptrINS2_10TSCSessionEEEEvS9_EEE7ExecuteEv
   990: 002d3371    38 FUNC    WEAK   DEFAULT    8 _ZNK3rtc16RefCountedObjectINS_25FireAndForgetAsyncClosureINS_14MethodFunctor1IN9twiliosdk19TSCEndpointObserverEMS4_FvRKNSt3__110shared_ptrINS3_10TSCSessionEEEEvSA_EEEEE9HasOneRefEv
   991: 002d3399    30 FUNC    WEAK   DEFAULT    8 _ZNK3rtc16RefCountedObjectINS_25FireAndForgetAsyncClosureINS_14MethodFunctor1IN9twiliosdk19TSCEndpointObserverEMS4_FvNS3_17_TSCEndpointStateEEvS5_EEEEE6AddRefEv
   992: 002d33b9    56 FUNC    WEAK   DEFAULT    8 _ZNK3rtc16RefCountedObjectINS_25FireAndForgetAsyncClosureINS_14MethodFunctor1IN9twiliosdk19TSCEndpointObserverEMS4_FvNS3_17_TSCEndpointStateEEvS5_EEEEE7ReleaseEv
   993: 002d33f1    64 FUNC    WEAK   DEFAULT    8 _ZN3rtc16RefCountedObjectINS_25FireAndForgetAsyncClosureINS_14MethodFunctor1IN9twiliosdk19TSCEndpointObserverEMS4_FvNS3_17_TSCEndpointStateEEvS5_EEEEED1Ev
   994: 002d3431    32 FUNC    WEAK   DEFAULT    8 _ZN3rtc16RefCountedObjectINS_25FireAndForgetAsyncClosureINS_14MethodFunctor1IN9twiliosdk19TSCEndpointObserverEMS4_FvNS3_17_TSCEndpointStateEEvS5_EEEEED0Ev
   995: 002d3451    24 FUNC    WEAK   DEFAULT    8 _ZN3rtc25FireAndForgetAsyncClosureINS_14MethodFunctor1IN9twiliosdk19TSCEndpointObserverEMS3_FvNS2_17_TSCEndpointStateEEvS4_EEE7ExecuteEv
   996: 002d3469    38 FUNC    WEAK   DEFAULT    8 _ZNK3rtc16RefCountedObjectINS_25FireAndForgetAsyncClosureINS_14MethodFunctor1IN9twiliosdk19TSCEndpointObserverEMS4_FvNS3_17_TSCEndpointStateEEvS5_EEEEE9HasOneRefEv
   997: 002d3491    30 FUNC    WEAK   DEFAULT    8 _ZNK3rtc16RefCountedObjectINS_25FireAndForgetAsyncClosureINS_14MethodFunctor0IN9twiliosdk11TSCEndpointEMS4_FvvEvEEEEE6AddRefEv
   998: 002d34b1    56 FUNC    WEAK   DEFAULT    8 _ZNK3rtc16RefCountedObjectINS_25FireAndForgetAsyncClosureINS_14MethodFunctor0IN9twiliosdk11TSCEndpointEMS4_FvvEvEEEEE7ReleaseEv
   999: 002d34e9    64 FUNC    WEAK   DEFAULT    8 _ZN3rtc16RefCountedObjectINS_25FireAndForgetAsyncClosureINS_14MethodFunctor0IN9twiliosdk11TSCEndpointEMS4_FvvEvEEEEED1Ev
  1000: 002d3529    32 FUNC    WEAK   DEFAULT    8 _ZN3rtc16RefCountedObjectINS_25FireAndForgetAsyncClosureINS_14MethodFunctor0IN9twiliosdk11TSCEndpointEMS4_FvvEvEEEEED0Ev
  1001: 002d3549    24 FUNC    WEAK   DEFAULT    8 _ZN3rtc25FireAndForgetAsyncClosureINS_14MethodFunctor0IN9twiliosdk11TSCEndpointEMS3_FvvEvEEE7ExecuteEv
  1002: 002d3561    38 FUNC    WEAK   DEFAULT    8 _ZNK3rtc16RefCountedObjectINS_25FireAndForgetAsyncClosureINS_14MethodFunctor0IN9twiliosdk11TSCEndpointEMS4_FvvEvEEEEE9HasOneRefEv
  1003: 002d3589    30 FUNC    WEAK   DEFAULT    8 _ZNK3rtc16RefCountedObjectINS_25FireAndForgetAsyncClosureINS_14MethodFunctor2IN9twiliosdk19TSCEndpointObserverEMS4_FvNS3_16_TSCoreErrorCodeENSt3__112basic_stringIcNS6_11char_traitsIcEENS6_9allocatorIcEEEEEvS5_SC_EEEEE6AddRefEv
  1004: 002d35a9    56 FUNC    WEAK   DEFAULT    8 _ZNK3rtc16RefCountedObjectINS_25FireAndForgetAsyncClosureINS_14MethodFunctor2IN9twiliosdk19TSCEndpointObserverEMS4_FvNS3_16_TSCoreErrorCodeENSt3__112basic_stringIcNS6_11char_traitsIcEENS6_9allocatorIcEEEEEvS5_SC_EEEEE7ReleaseEv
  1005: 002d35e1    64 FUNC    WEAK   DEFAULT    8 _ZN3rtc16RefCountedObjectINS_25FireAndForgetAsyncClosureINS_14MethodFunctor2IN9twiliosdk19TSCEndpointObserverEMS4_FvNS3_16_TSCoreErrorCodeENSt3__112basic_stringIcNS6_11char_traitsIcEENS6_9allocatorIcEEEEEvS5_SC_EEEEED1Ev
  1006: 002d3621    32 FUNC    WEAK   DEFAULT    8 _ZN3rtc16RefCountedObjectINS_25FireAndForgetAsyncClosureINS_14MethodFunctor2IN9twiliosdk19TSCEndpointObserverEMS4_FvNS3_16_TSCoreErrorCodeENSt3__112basic_stringIcNS6_11char_traitsIcEENS6_9allocatorIcEEEEEvS5_SC_EEEEED0Ev
  1007: 002d3641    24 FUNC    WEAK   DEFAULT    8 _ZN3rtc25FireAndForgetAsyncClosureINS_14MethodFunctor2IN9twiliosdk19TSCEndpointObserverEMS3_FvNS2_16_TSCoreErrorCodeENSt3__112basic_stringIcNS5_11char_traitsIcEENS5_9allocatorIcEEEEEvS4_SB_EEE7ExecuteEv
  1008: 002d3659    38 FUNC    WEAK   DEFAULT    8 _ZNK3rtc16RefCountedObjectINS_25FireAndForgetAsyncClosureINS_14MethodFunctor2IN9twiliosdk19TSCEndpointObserverEMS4_FvNS3_16_TSCoreErrorCodeENSt3__112basic_stringIcNS6_11char_traitsIcEENS6_9allocatorIcEEEEEvS5_SC_EEEEE9HasOneRefEv
  1009: 002d3681    30 FUNC    WEAK   DEFAULT    8 _ZNK3rtc16RefCountedObjectINS_25FireAndForgetAsyncClosureINS_14MethodFunctor2IN9twiliosdk11TSCEndpointEMS4_FvbbEvbbEEEEE6AddRefEv
  1010: 002d36a1    56 FUNC    WEAK   DEFAULT    8 _ZNK3rtc16RefCountedObjectINS_25FireAndForgetAsyncClosureINS_14MethodFunctor2IN9twiliosdk11TSCEndpointEMS4_FvbbEvbbEEEEE7ReleaseEv
  1011: 002d36d9    64 FUNC    WEAK   DEFAULT    8 _ZN3rtc16RefCountedObjectINS_25FireAndForgetAsyncClosureINS_14MethodFunctor2IN9twiliosdk11TSCEndpointEMS4_FvbbEvbbEEEEED1Ev
  1012: 002d3719    32 FUNC    WEAK   DEFAULT    8 _ZN3rtc16RefCountedObjectINS_25FireAndForgetAsyncClosureINS_14MethodFunctor2IN9twiliosdk11TSCEndpointEMS4_FvbbEvbbEEEEED0Ev
  1013: 002d3739    24 FUNC    WEAK   DEFAULT    8 _ZN3rtc25FireAndForgetAsyncClosureINS_14MethodFunctor2IN9twiliosdk11TSCEndpointEMS3_FvbbEvbbEEE7ExecuteEv
  1014: 002d3751    38 FUNC    WEAK   DEFAULT    8 _ZNK3rtc16RefCountedObjectINS_25FireAndForgetAsyncClosureINS_14MethodFunctor2IN9twiliosdk11TSCEndpointEMS4_FvbbEvbbEEEEE9HasOneRefEv
  1015: 002d3241    64 FUNC    WEAK   DEFAULT    8 _ZNSt3__120__shared_ptr_pointerIPN9twiliosdk10TSCSessionENS_14default_deleteIS2_EENS_9allocatorIS2_EEED1Ev
  1016: 002d3281    32 FUNC    WEAK   DEFAULT    8 _ZNSt3__120__shared_ptr_pointerIPN9twiliosdk10TSCSessionENS_14default_deleteIS2_EENS_9allocatorIS2_EEED0Ev
  1017: 002d3779    96 FUNC    WEAK   DEFAULT    8 _ZNSt3__120__shared_ptr_pointerIPN9twiliosdk10TSCSessionENS_14default_deleteIS2_EENS_9allocatorIS2_EEE16__on_zero_sharedEv
  1018: 002d37d9    52 FUNC    WEAK   DEFAULT    8 _ZNSt3__120__shared_ptr_pointerIPN9twiliosdk10TSCSessionENS_14default_deleteIS2_EENS_9allocatorIS2_EEE21__on_zero_shared_weakEv
  1019: 002d3241    64 FUNC    WEAK   DEFAULT    8 _ZNSt3__120__shared_ptr_pointerIPN9twiliosdk10TSCSessionENS_14default_deleteIS2_EENS_9allocatorIS2_EEED2Ev
  1020: 002d380d    38 FUNC    WEAK   DEFAULT    8 _ZNK3rtc16RefCountedObjectIN9twiliosdk13TSCSIPAccountEE9HasOneRefEv
  1021: 00a5e980    17 OBJECT  GLOBAL DEFAULT   11 _ZTSSt12out_of_range
  1022: 002d32f9    64 FUNC    WEAK   DEFAULT    8 _ZN3rtc16RefCountedObjectINS_25FireAndForgetAsyncClosureINS_14MethodFunctor1IN9twiliosdk19TSCEndpointObserverEMS4_FvRKNSt3__110shared_ptrINS3_10TSCSessionEEEEvSA_EEEEED2Ev
  1023: 002d3835    78 FUNC    WEAK   DEFAULT    8 _ZNK3rtc14MethodFunctor1IN9twiliosdk19TSCEndpointObserverEMS2_FvRKNSt3__110shared_ptrINS1_10TSCSessionEEEEvS8_EclEv
  1024: 002d33f1    64 FUNC    WEAK   DEFAULT    8 _ZN3rtc16RefCountedObjectINS_25FireAndForgetAsyncClosureINS_14MethodFunctor1IN9twiliosdk19TSCEndpointObserverEMS4_FvNS3_17_TSCEndpointStateEEvS5_EEEEED2Ev
  1025: 002d3885    78 FUNC    WEAK   DEFAULT    8 _ZNK3rtc14MethodFunctor1IN9twiliosdk19TSCEndpointObserverEMS2_FvNS1_17_TSCEndpointStateEEvS3_EclEv
  1026: 002d34e9    64 FUNC    WEAK   DEFAULT    8 _ZN3rtc16RefCountedObjectINS_25FireAndForgetAsyncClosureINS_14MethodFunctor0IN9twiliosdk11TSCEndpointEMS4_FvvEvEEEEED2Ev
  1027: 002d38d5    72 FUNC    WEAK   DEFAULT    8 _ZNK3rtc14MethodFunctor0IN9twiliosdk11TSCEndpointEMS2_FvvEvEclEv
  1028: 002d35e1    64 FUNC    WEAK   DEFAULT    8 _ZN3rtc16RefCountedObjectINS_25FireAndForgetAsyncClosureINS_14MethodFunctor2IN9twiliosdk19TSCEndpointObserverEMS4_FvNS3_16_TSCoreErrorCodeENSt3__112basic_stringIcNS6_11char_traitsIcEENS6_9allocatorIcEEEEEvS5_SC_EEEEED2Ev
  1029: 002d391d   126 FUNC    WEAK   DEFAULT    8 _ZNK3rtc14MethodFunctor2IN9twiliosdk19TSCEndpointObserverEMS2_FvNS1_16_TSCoreErrorCodeENSt3__112basic_stringIcNS4_11char_traitsIcEENS4_9allocatorIcEEEEEvS3_SA_EclEv
  1030: 002d36d9    64 FUNC    WEAK   DEFAULT    8 _ZN3rtc16RefCountedObjectINS_25FireAndForgetAsyncClosureINS_14MethodFunctor2IN9twiliosdk11TSCEndpointEMS4_FvbbEvbbEEEEED2Ev
  1031: 002d399d    78 FUNC    WEAK   DEFAULT    8 _ZNK3rtc14MethodFunctor2IN9twiliosdk11TSCEndpointEMS2_FvbbEvbbEclEv
  1032: 002d590d    28 FUNC    WEAK   DEFAULT    8 _ZN3rtc10scoped_ptrIN7cricket13DeviceManagerENS_14DefaultDeleterIS2_EEED2Ev
  1033: 002d599d    42 FUNC    WEAK   DEFAULT    8 _ZN3rtc8internal15scoped_ptr_implIN7cricket13DeviceManagerENS_14DefaultDeleterIS3_EEED1Ev
  1034: 002d590d    28 FUNC    WEAK   DEFAULT    8 _ZN3rtc10scoped_ptrIN7cricket13DeviceManagerENS_14DefaultDeleterIS2_EEED1Ev
  1035: 002d39ed   352 FUNC    GLOBAL DEFAULT    8 _ZN9twiliosdk16TSCDeviceManagerC2Ev
  1036: 00308119    64 FUNC    GLOBAL DEFAULT    8 _ZN9twiliosdk25TSCVideoCaptureDeviceInfoC1ERKNSt3__112basic_stringIcNS1_11char_traitsIcEENS1_9allocatorIcEEEES9_NS_26_TSCVideoCaptureDeviceTypeE
  1037: 0030824d    56 FUNC    GLOBAL DEFAULT    8 _ZN9twiliosdk23TSCAudioInputDeviceInfoC1ERKNSt3__112basic_stringIcNS1_11char_traitsIcEENS1_9allocatorIcEEEES9_
  1038: 002d597d    30 FUNC    WEAK   DEFAULT    8 _ZN3rtc10scoped_ptrIN7cricket13DeviceManagerENS_14DefaultDeleterIS2_EEEC1Ev
  1039: 002d59c9    28 FUNC    WEAK   DEFAULT    8 _ZN3rtc13scoped_refptrIN9twiliosdk24TSCScreenCaptureProviderEEC1Ev
  1040: 002d5a15    26 FUNC    WEAK   DEFAULT    8 _ZN3rtc10scoped_ptrIN7cricket13DeviceManagerENS_14DefaultDeleterIS2_EEE5resetEPS2_
  1041: 002d59e5    46 FUNC    WEAK   DEFAULT    8 _ZN3rtc13scoped_refptrIN9twiliosdk24TSCScreenCaptureProviderEED1Ev
  1042: 00308285    64 FUNC    GLOBAL DEFAULT    8 _ZN9twiliosdk23TSCAudioInputDeviceInfoD1Ev
  1043: 00308159    64 FUNC    GLOBAL DEFAULT    8 _ZN9twiliosdk25TSCVideoCaptureDeviceInfoD1Ev
  1044: 00a78410    16 OBJECT  GLOBAL DEFAULT   14 _ZTVN9twiliosdk16TSCDeviceManagerE
  1045: 002d39ed   352 FUNC    GLOBAL DEFAULT    8 _ZN9twiliosdk16TSCDeviceManagerC1Ev
  1046: 002d3b4d    96 FUNC    GLOBAL DEFAULT    8 _ZN9twiliosdk16TSCDeviceManagerD2Ev
  1047: 002d3b4d    96 FUNC    GLOBAL DEFAULT    8 _ZN9twiliosdk16TSCDeviceManagerD1Ev
  1048: 002d3bad    32 FUNC    GLOBAL DEFAULT    8 _ZN9twiliosdk16TSCDeviceManagerD0Ev
  1049: 002d5929    28 FUNC    WEAK   DEFAULT    8 _ZNSt3__16vectorIN9twiliosdk25TSCVideoCaptureDeviceInfoENS_9allocatorIS2_EEED2Ev
  1050: 002d5a31   198 FUNC    WEAK   DEFAULT    8 _ZNSt3__113__vector_baseIN9twiliosdk25TSCVideoCaptureDeviceInfoENS_9allocatorIS2_EEED2Ev
  1051: 002d5929    28 FUNC    WEAK   DEFAULT    8 _ZNSt3__16vectorIN9twiliosdk25TSCVideoCaptureDeviceInfoENS_9allocatorIS2_EEED1Ev
  1052: 002d5945    28 FUNC    WEAK   DEFAULT    8 _ZNSt3__16vectorIN7cricket6DeviceENS_9allocatorIS2_EEED2Ev
  1053: 002d5945    28 FUNC    WEAK   DEFAULT    8 _ZNSt3__16vectorIN7cricket6DeviceENS_9allocatorIS2_EEED1Ev
  1054: 002d3c6d  1340 FUNC    GLOBAL DEFAULT    8 _ZNK9twiliosdk16TSCDeviceManager22getVideoCaptureDevicesEv
  1055: 002d5bc9    80 FUNC    WEAK   DEFAULT    8 _ZNK3rtc10scoped_ptrIN7cricket13DeviceManagerENS_14DefaultDeleterIS2_EEEptEv
  1056: 002d5e41   166 FUNC    WEAK   DEFAULT    8 _ZNSt3__16vectorIN9twiliosdk25TSCVideoCaptureDeviceInfoENS_9allocatorIS2_EEE19__annotate_increaseEj
  1057: 003081b9    80 FUNC    GLOBAL DEFAULT    8 _ZN9twiliosdk25TSCVideoCaptureDeviceInfoC1ERKS0_
  1058: 002d5ee9   456 FUNC    WEAK   DEFAULT    8 _ZNSt3__16vectorIN9twiliosdk25TSCVideoCaptureDeviceInfoENS_9allocatorIS2_EEE21__push_back_slow_pathIRKS2_EEvOT_
  1059: 002d5c19    24 FUNC    WEAK   DEFAULT    8 _ZNK3rtc13scoped_refptrIN9twiliosdk24TSCScreenCaptureProviderEE3getEv
  1060: 002d5c31    24 FUNC    WEAK   DEFAULT    8 _ZNK3rtc13scoped_refptrIN9twiliosdk24TSCScreenCaptureProviderEEptEv
  1061: 00307ab9    32 FUNC    GLOBAL DEFAULT    8 _ZNK9twiliosdk24TSCScreenCaptureProvider5getIdEv
  1062: 00a95540     4 OBJECT  GLOBAL DEFAULT   18 _ZN9twiliosdk25kTSCScreenShareDeviceNameE
  1063: 002d5961    28 FUNC    WEAK   DEFAULT    8 _ZNSt3__16vectorIN9twiliosdk23TSCAudioInputDeviceInfoENS_9allocatorIS2_EEED2Ev
  1064: 002d5c49   222 FUNC    WEAK   DEFAULT    8 _ZNSt3__113__vector_baseIN9twiliosdk23TSCAudioInputDeviceInfoENS_9allocatorIS2_EEED2Ev
  1065: 002d5961    28 FUNC    WEAK   DEFAULT    8 _ZNSt3__16vectorIN9twiliosdk23TSCAudioInputDeviceInfoENS_9allocatorIS2_EEED1Ev
  1066: 002d41a9   748 FUNC    GLOBAL DEFAULT    8 _ZNK9twiliosdk16TSCDeviceManager22getAudioCaptureDevicesEv
  1067: 002d60b1   262 FUNC    WEAK   DEFAULT    8 _ZNSt3__16vectorIN9twiliosdk23TSCAudioInputDeviceInfoENS_9allocatorIS2_EEE19__annotate_increaseEj
  1068: 003082e5    56 FUNC    GLOBAL DEFAULT    8 _ZN9twiliosdk23TSCAudioInputDeviceInfoC1ERKS0_
  1069: 002d61b9   524 FUNC    WEAK   DEFAULT    8 _ZNSt3__16vectorIN9twiliosdk23TSCAudioInputDeviceInfoENS_9allocatorIS2_EEE21__push_back_slow_pathIRKS2_EEvOT_
  1070: 002d4495    28 FUNC    GLOBAL DEFAULT    8 _ZN9twiliosdk16TSCDeviceManager28setDefaultVideoCaptureDeviceERKNS_25TSCVideoCaptureDeviceInfoE
  1071: 00308209    44 FUNC    GLOBAL DEFAULT    8 _ZN9twiliosdk25TSCVideoCaptureDeviceInfoaSERKS0_
  1072: 002d44b1  1218 FUNC    GLOBAL DEFAULT    8 _ZNK9twiliosdk16TSCDeviceManager28getDefaultVideoCaptureDeviceEv
  1073: 00308075   116 FUNC    GLOBAL DEFAULT    8 _ZNK9twiliosdk18TSCMediaDeviceInfo7isValidEv
  1074: 00308101    24 FUNC    GLOBAL DEFAULT    8 _ZNK9twiliosdk18TSCMediaDeviceInfo11getDeviceIdEv
  1075: 002d4975    28 FUNC    GLOBAL DEFAULT    8 _ZN9twiliosdk16TSCDeviceManager26setDefaultAudioInputDeviceERKNS_23TSCAudioInputDeviceInfoE
  1076: 0030831d    32 FUNC    GLOBAL DEFAULT    8 _ZN9twiliosdk23TSCAudioInputDeviceInfoaSERKS0_
  1077: 002d4991  1198 FUNC    GLOBAL DEFAULT    8 _ZNK9twiliosdk16TSCDeviceManager26getDefaultAudioInputDeviceEv
  1078: 002d4e41    28 FUNC    GLOBAL DEFAULT    8 _ZN9twiliosdk16TSCDeviceManager24setScreenCaptureProviderERKN3rtc13scoped_refptrINS_24TSCScreenCaptureProviderEEE
  1079: 002d5d29    34 FUNC    WEAK   DEFAULT    8 _ZN3rtc13scoped_refptrIN9twiliosdk24TSCScreenCaptureProviderEEaSERKS3_
  1080: 002d4e5d    32 FUNC    GLOBAL DEFAULT    8 _ZNK9twiliosdk16TSCDeviceManager24getScreenCaptureProviderEv
  1081: 002d5d4d    52 FUNC    WEAK   DEFAULT    8 _ZN3rtc13scoped_refptrIN9twiliosdk24TSCScreenCaptureProviderEEC1ERKS3_
  1082: 002d597d    30 FUNC    WEAK   DEFAULT    8 _ZN3rtc10scoped_ptrIN7cricket13DeviceManagerENS_14DefaultDeleterIS2_EEEC2Ev
  1083: 002d5d81    32 FUNC    WEAK   DEFAULT    8 _ZN3rtc8internal15scoped_ptr_implIN7cricket13DeviceManagerENS_14DefaultDeleterIS3_EEEC1EPS3_
  1084: 002d599d    42 FUNC    WEAK   DEFAULT    8 _ZN3rtc8internal15scoped_ptr_implIN7cricket13DeviceManagerENS_14DefaultDeleterIS3_EEED2Ev
  1085: 002d5da1    34 FUNC    WEAK   DEFAULT    8 _ZNK3rtc14DefaultDeleterIN7cricket13DeviceManagerEEclEPS2_
  1086: 002d59c9    28 FUNC    WEAK   DEFAULT    8 _ZN3rtc13scoped_refptrIN9twiliosdk24TSCScreenCaptureProviderEEC2Ev
  1087: 002d59e5    46 FUNC    WEAK   DEFAULT    8 _ZN3rtc13scoped_refptrIN9twiliosdk24TSCScreenCaptureProviderEED2Ev
  1088: 002d5dc5   100 FUNC    WEAK   DEFAULT    8 _ZN3rtc8internal15scoped_ptr_implIN7cricket13DeviceManagerENS_14DefaultDeleterIS3_EEE5resetEPS3_
  1089: 002d5a31   198 FUNC    WEAK   DEFAULT    8 _ZNSt3__113__vector_baseIN9twiliosdk25TSCVideoCaptureDeviceInfoENS_9allocatorIS2_EEED1Ev
  1090: 002d5e29    24 FUNC    WEAK   DEFAULT    8 _ZNK3rtc8internal15scoped_ptr_implIN7cricket13DeviceManagerENS_14DefaultDeleterIS3_EEE3getEv
  1091: 002d5c49   222 FUNC    WEAK   DEFAULT    8 _ZNSt3__113__vector_baseIN9twiliosdk23TSCAudioInputDeviceInfoENS_9allocatorIS2_EEED1Ev
  1092: 002d63c5    70 FUNC    WEAK   DEFAULT    8 _ZN3rtc13scoped_refptrIN9twiliosdk24TSCScreenCaptureProviderEEaSEPS2_
  1093: 002d5d4d    52 FUNC    WEAK   DEFAULT    8 _ZN3rtc13scoped_refptrIN9twiliosdk24TSCScreenCaptureProviderEEC2ERKS3_
  1094: 002d5d81    32 FUNC    WEAK   DEFAULT    8 _ZN3rtc8internal15scoped_ptr_implIN7cricket13DeviceManagerENS_14DefaultDeleterIS3_EEEC2EPS3_
  1095: 002d640d    34 FUNC    WEAK   DEFAULT    8 _ZN3rtc8internal15scoped_ptr_implIN7cricket13DeviceManagerENS_14DefaultDeleterIS3_EEE4DataC1EPS3_
  1096: 002d6431    24 FUNC    WEAK   DEFAULT    8 _ZNSt3__16vectorIN9twiliosdk25TSCVideoCaptureDeviceInfoENS_9allocatorIS2_EEE31__annotate_contiguous_containerEPKvS7_S7_S7_
  1097: 002d6bbd   116 FUNC    WEAK   DEFAULT    8 _ZNKSt3__16vectorIN9twiliosdk25TSCVideoCaptureDeviceInfoENS_9allocatorIS2_EEE8max_sizeEv
  1098: 002d6449   196 FUNC    WEAK   DEFAULT    8 _ZNSt3__114__split_bufferIN9twiliosdk25TSCVideoCaptureDeviceInfoERNS_9allocatorIS2_EEEC1EjjS5_
  1099: 002d65ed   476 FUNC    WEAK   DEFAULT    8 _ZNSt3__16vectorIN9twiliosdk25TSCVideoCaptureDeviceInfoENS_9allocatorIS2_EEE26__swap_out_circular_bufferERNS_14__split_bufferIS2_RS4_EE
  1100: 002d650d   222 FUNC    WEAK   DEFAULT    8 _ZNSt3__114__split_bufferIN9twiliosdk25TSCVideoCaptureDeviceInfoERNS_9allocatorIS2_EEED1Ev
  1101: 002d67c9    24 FUNC    WEAK   DEFAULT    8 _ZNSt3__16vectorIN9twiliosdk23TSCAudioInputDeviceInfoENS_9allocatorIS2_EEE31__annotate_contiguous_containerEPKvS7_S7_S7_
  1102: 002d6d85   120 FUNC    WEAK   DEFAULT    8 _ZNKSt3__16vectorIN9twiliosdk23TSCAudioInputDeviceInfoENS_9allocatorIS2_EEE8max_sizeEv
  1103: 002d67e1   214 FUNC    WEAK   DEFAULT    8 _ZNSt3__114__split_bufferIN9twiliosdk23TSCAudioInputDeviceInfoERNS_9allocatorIS2_EEEC1EjjS5_
  1104: 002d69b1   500 FUNC    WEAK   DEFAULT    8 _ZNSt3__16vectorIN9twiliosdk23TSCAudioInputDeviceInfoENS_9allocatorIS2_EEE26__swap_out_circular_bufferERNS_14__split_bufferIS2_RS4_EE
  1105: 002d68b9   246 FUNC    WEAK   DEFAULT    8 _ZNSt3__114__split_bufferIN9twiliosdk23TSCAudioInputDeviceInfoERNS_9allocatorIS2_EEED1Ev
  1106: 002d640d    34 FUNC    WEAK   DEFAULT    8 _ZN3rtc8internal15scoped_ptr_implIN7cricket13DeviceManagerENS_14DefaultDeleterIS3_EEE4DataC2EPS3_
  1107: 002d6ba5    22 FUNC    WEAK   DEFAULT    8 _ZN3rtc14DefaultDeleterIN7cricket13DeviceManagerEEC2Ev
  1108: 002d6449   196 FUNC    WEAK   DEFAULT    8 _ZNSt3__114__split_bufferIN9twiliosdk25TSCVideoCaptureDeviceInfoERNS_9allocatorIS2_EEEC2EjjS5_
  1109: 002d650d   222 FUNC    WEAK   DEFAULT    8 _ZNSt3__114__split_bufferIN9twiliosdk25TSCVideoCaptureDeviceInfoERNS_9allocatorIS2_EEED2Ev
  1110: 002d6c31   176 FUNC    WEAK   DEFAULT    8 _ZNSt3__16vectorIN9twiliosdk25TSCVideoCaptureDeviceInfoENS_9allocatorIS2_EEE17__annotate_deleteEv
  1111: 002d6ce1   162 FUNC    WEAK   DEFAULT    8 _ZNSt3__16vectorIN9twiliosdk25TSCVideoCaptureDeviceInfoENS_9allocatorIS2_EEE14__annotate_newEj
  1112: 002d67e1   214 FUNC    WEAK   DEFAULT    8 _ZNSt3__114__split_bufferIN9twiliosdk23TSCAudioInputDeviceInfoERNS_9allocatorIS2_EEEC2EjjS5_
  1113: 002d68b9   246 FUNC    WEAK   DEFAULT    8 _ZNSt3__114__split_bufferIN9twiliosdk23TSCAudioInputDeviceInfoERNS_9allocatorIS2_EEED2Ev
  1114: 002d6dfd   274 FUNC    WEAK   DEFAULT    8 _ZNSt3__16vectorIN9twiliosdk23TSCAudioInputDeviceInfoENS_9allocatorIS2_EEE17__annotate_deleteEv
  1115: 002d6f11   234 FUNC    WEAK   DEFAULT    8 _ZNSt3__16vectorIN9twiliosdk23TSCAudioInputDeviceInfoENS_9allocatorIS2_EEE14__annotate_newEj
  1116: 002d6ba5    22 FUNC    WEAK   DEFAULT    8 _ZN3rtc14DefaultDeleterIN7cricket13DeviceManagerEEC1Ev
  1117: 00a78420     8 OBJECT  GLOBAL DEFAULT   14 _ZTIN9twiliosdk16TSCDeviceManagerE
  1118: 0099fd14    31 OBJECT  GLOBAL DEFAULT   11 _ZTSN9twiliosdk16TSCDeviceManagerE
  1119: 002d709d   984 FUNC    GLOBAL DEFAULT    8 _ZN9twiliosdk16TSCConfigurationC1Ev
  1120: 002d7475    64 FUNC    GLOBAL DEFAULT    8 _ZN9twiliosdk16TSCConfigurationD1Ev
  1121: 002d709d   984 FUNC    GLOBAL DEFAULT    8 _ZN9twiliosdk16TSCConfigurationC2Ev
  1122: 00a78428    16 OBJECT  GLOBAL DEFAULT   14 _ZTVN9twiliosdk16TSCConfigurationE
  1123: 00a954a4     4 OBJECT  GLOBAL DEFAULT   18 _ZN9twiliosdk13kTSCDomainKeyE
  1124: 00a954a8     4 OBJECT  GLOBAL DEFAULT   18 _ZN9twiliosdk16kTSCRegistrarKeyE
  1125: 00a954c8     4 OBJECT  GLOBAL DEFAULT   18 _ZN9twiliosdk23kTSCSIPTransportTypeKeyE
  1126: 00a954cc     4 OBJECT  GLOBAL DEFAULT   18 _ZN9twiliosdk23kTSCSIPTransportPortKeyE
  1127: 00a954d0     4 OBJECT  GLOBAL DEFAULT   18 _ZN9twiliosdk23KTSCSIPClientVersionKeyE
  1128: 00a954d4     4 OBJECT  GLOBAL DEFAULT   18 _ZN9twiliosdk19KTSCSIPUserAgentKeyE
  1129: 00a954f8     4 OBJECT  GLOBAL DEFAULT   18 _ZN9twiliosdk21KTSCStatsUserAgentKeyE
  1130: 00a954fc     4 OBJECT  GLOBAL DEFAULT   18 _ZN9twiliosdk21KTSCStatsServerUrlKeyE
  1131: 00a95500     4 OBJECT  GLOBAL DEFAULT   18 _ZN9twiliosdk24KTSCStatsUpdatePeriodKeyE
  1132: 00a95504     4 OBJECT  GLOBAL DEFAULT   18 _ZN9twiliosdk22KTSCStatsPostPeriodKeyE
  1133: 002d7475    64 FUNC    GLOBAL DEFAULT    8 _ZN9twiliosdk16TSCConfigurationD2Ev
  1134: 002d74b5    32 FUNC    GLOBAL DEFAULT    8 _ZN9twiliosdk16TSCConfigurationD0Ev
  1135: 002d7d55   918 FUNC    WEAK   DEFAULT    8 _ZNKSt3__16__treeINS_12__value_typeINS_12basic_stringIcNS_11char_traitsIcEENS_9allocatorIcEEEES7_EENS_19__map_value_compareIS7_S8_NS_4lessIS7_EELb1EEENS5_IS8_EEE13__lower_boundIS7_EENS_21__tree_const_iteratorIS8_PNS_11__tree_nodeIS8_PvEEiEERKT_SK_SK_
  1136: 00a78438     8 OBJECT  GLOBAL DEFAULT   14 _ZTIN9twiliosdk16TSCConfigurationE
  1137: 0099ffb8    31 OBJECT  GLOBAL DEFAULT   11 _ZTSN9twiliosdk16TSCConfigurationE
  1138: 002d80ed   104 FUNC    GLOBAL DEFAULT    8 _ZN9twiliosdk18TSCSessionObserverD1Ev
  1139: 002d8155    32 FUNC    GLOBAL DEFAULT    8 _ZN9twiliosdk18TSCSessionObserverD0Ev
  1140: 002d8175    30 FUNC    GLOBAL DEFAULT    8 _ZN9twiliosdk18TSCSessionObserver13onStateChangeENS_16_TSCSessionStateE
  1141: 002d8195   320 FUNC    GLOBAL DEFAULT    8 _ZN9twiliosdk18TSCSessionObserver15onStartCompleteEPNS_11TSCEndpointEPNS_10TSCSessionENS_16_TSCoreErrorCodeENSt3__112basic_stringIcNS6_11char_traitsIcEENS6_9allocatorIcEEEE
  1142: 002dae7d    44 FUNC    WEAK   DEFAULT    8 _ZN3rtc4BindIN9twiliosdk11TSCEndpointEvPNS1_10TSCSessionEEENS_14MethodFunctor1IT_MS6_FT0_T1_ES7_S8_EESA_PS6_NS_6detail8identityIS8_E4typeE
  1143: 002daea9    94 FUNC    WEAK   DEFAULT    8 _ZN9twiliosdk6TSCSDK6doWorkIN3rtc14MethodFunctor1INS_11TSCEndpointEMS4_FvPNS_10TSCSessionEEvS6_EEEEvRKT_
  1144: 002d82d5   316 FUNC    GLOBAL DEFAULT    8 _ZN9twiliosdk18TSCSessionObserver14onStopCompleteEPNS_11TSCEndpointEPNS_10TSCSessionENS_16_TSCoreErrorCodeENSt3__112basic_stringIcNS6_11char_traitsIcEENS6_9allocatorIcEEEE
  1145: 002d8411   414 FUNC    GLOBAL DEFAULT    8 _ZN9twiliosdk18TSCSessionObserver20onParticipantConnectENSt3__112basic_stringIcNS1_11char_traitsIcEENS1_9allocatorIcEEEES7_NS_16_TSCoreErrorCodeES7_
  1146: 002d85b1   118 FUNC    GLOBAL DEFAULT    8 _ZN9twiliosdk18TSCSessionObserver23onParticipantDisconnectENSt3__112basic_stringIcNS1_11char_traitsIcEENS1_9allocatorIcEEEES7_NS_20_TSCDisconnectReasonE
  1147: 002d8629    42 FUNC    GLOBAL DEFAULT    8 _ZN9twiliosdk18TSCSessionObserver16onMediaStreamAddEPN3rtc16RefCountedObjectINS_18TSCMediaStreamInfoEEE
  1148: 002d8655    42 FUNC    GLOBAL DEFAULT    8 _ZN9twiliosdk18TSCSessionObserver19onMediaStreamRemoveEPN3rtc16RefCountedObjectINS_18TSCMediaStreamInfoEEE
  1149: 002d8681   116 FUNC    GLOBAL DEFAULT    8 _ZN9twiliosdk18TSCSessionObserver15onVideoTrackAddEPNS_10TSCSessionEPN3rtc16RefCountedObjectINS_17TSCVideoTrackInfoEEEPN6webrtc19VideoTrackInterfaceE
  1150: 002daf09    40 FUNC    WEAK   DEFAULT    8 _ZN3rtc4BindIN9twiliosdk10TSCSessionEvEENS_14MethodFunctor0IT_MS4_FT0_vES5_EES7_PS4_
  1151: 002daf31    94 FUNC    WEAK   DEFAULT    8 _ZN9twiliosdk6TSCSDK6doWorkIN3rtc14MethodFunctor0INS_10TSCSessionEMS4_FvvEvEEEEvRKT_
  1152: 002f3fb5   320 FUNC    GLOBAL DEFAULT    8 _ZN9twiliosdk10TSCSession16doNegotiateMediaEv
  1153: 002d86f5    42 FUNC    GLOBAL DEFAULT    8 _ZN9twiliosdk18TSCSessionObserver23onVideoTrackStateChangeEPN3rtc16RefCountedObjectINS_17TSCVideoTrackInfoEEE
  1154: 002d8721   112 FUNC    GLOBAL DEFAULT    8 _ZN9twiliosdk18TSCSessionObserver18onVideoTrackRemoveEPNS_10TSCSessionEPN3rtc16RefCountedObjectINS_17TSCVideoTrackInfoEEE
  1155: 002d8791    46 FUNC    GLOBAL DEFAULT    8 _ZN9twiliosdk18TSCSessionObserver15onAudioTrackAddEPN3rtc16RefCountedObjectINS_17TSCAudioTrackInfoEEEPN6webrtc19AudioTrackInterfaceE
  1156: 002d87c1    42 FUNC    GLOBAL DEFAULT    8 _ZN9twiliosdk18TSCSessionObserver23onAudioTrackStateChangeEPN3rtc16RefCountedObjectINS_17TSCAudioTrackInfoEEE
  1157: 002d87ed    42 FUNC    GLOBAL DEFAULT    8 _ZN9twiliosdk18TSCSessionObserver18onAudioTrackRemoveEPN3rtc16RefCountedObjectINS_17TSCAudioTrackInfoEEE
  1158: 002d8819    90 FUNC    GLOBAL DEFAULT    8 _ZN9twiliosdk18TSCSessionObserver26onReceiveSessionStatisticsENSt3__110shared_ptrINS_20TSCSessionStatisticsEEE
  1159: 002daf91    38 FUNC    WEAK   DEFAULT    8 _ZNSt3__110shared_ptrIN9twiliosdk20TSCSessionStatisticsEED1Ev
  1160: 002dafb9    58 FUNC    WEAK   DEFAULT    8 _ZN3rtc14MethodFunctor1IN9twiliosdk11TSCEndpointEMS2_FvPNS1_10TSCSessionEEvS4_EC1ES6_PS2_S4_
  1161: 002daff5   120 FUNC    WEAK   DEFAULT    8 _ZN3rtc12AsyncInvoker11AsyncInvokeIvNS_14MethodFunctor1IN9twiliosdk11TSCEndpointEMS4_FvPNS3_10TSCSessionEEvS6_EEEEvPNS_6ThreadERKT0_j
  1162: 002db06d    52 FUNC    WEAK   DEFAULT    8 _ZN3rtc14MethodFunctor0IN9twiliosdk10TSCSessionEMS2_FvvEvEC1ES4_PS2_
  1163: 002db0a1   116 FUNC    WEAK   DEFAULT    8 _ZN3rtc12AsyncInvoker11AsyncInvokeIvNS_14MethodFunctor0IN9twiliosdk10TSCSessionEMS4_FvvEvEEEEvPNS_6ThreadERKT0_j
  1164: 002daf91    38 FUNC    WEAK   DEFAULT    8 _ZNSt3__110shared_ptrIN9twiliosdk20TSCSessionStatisticsEED2Ev
  1165: 002dafb9    58 FUNC    WEAK   DEFAULT    8 _ZN3rtc14MethodFunctor1IN9twiliosdk11TSCEndpointEMS2_FvPNS1_10TSCSessionEEvS4_EC2ES6_PS2_S4_
  1166: 002db175    76 FUNC    WEAK   DEFAULT    8 _ZN3rtc16RefCountedObjectINS_25FireAndForgetAsyncClosureINS_14MethodFunctor1IN9twiliosdk11TSCEndpointEMS4_FvPNS3_10TSCSessionEEvS6_EEEEEC1IS9_EET_
  1167: 002db06d    52 FUNC    WEAK   DEFAULT    8 _ZN3rtc14MethodFunctor0IN9twiliosdk10TSCSessionEMS2_FvvEvEC2ES4_PS2_
  1168: 002db221    64 FUNC    WEAK   DEFAULT    8 _ZN3rtc16RefCountedObjectINS_25FireAndForgetAsyncClosureINS_14MethodFunctor0IN9twiliosdk10TSCSessionEMS4_FvvEvEEEEEC1IS7_EET_
  1169: 002db115    64 FUNC    WEAK   DEFAULT    8 _ZN3rtc25FireAndForgetAsyncClosureINS_14MethodFunctor1IN9twiliosdk11TSCEndpointEMS3_FvPNS2_10TSCSessionEEvS5_EEED2Ev
  1170: 00a784a0    28 OBJECT  WEAK   DEFAULT   14 _ZTVN3rtc25FireAndForgetAsyncClosureINS_14MethodFunctor1IN9twiliosdk11TSCEndpointEMS3_FvPNS2_10TSCSessionEEvS5_EEEE
  1171: 002db115    64 FUNC    WEAK   DEFAULT    8 _ZN3rtc25FireAndForgetAsyncClosureINS_14MethodFunctor1IN9twiliosdk11TSCEndpointEMS3_FvPNS2_10TSCSessionEEvS5_EEED1Ev
  1172: 002db155    32 FUNC    WEAK   DEFAULT    8 _ZN3rtc25FireAndForgetAsyncClosureINS_14MethodFunctor1IN9twiliosdk11TSCEndpointEMS3_FvPNS2_10TSCSessionEEvS5_EEED0Ev
  1173: 002db175    76 FUNC    WEAK   DEFAULT    8 _ZN3rtc16RefCountedObjectINS_25FireAndForgetAsyncClosureINS_14MethodFunctor1IN9twiliosdk11TSCEndpointEMS4_FvPNS3_10TSCSessionEEvS6_EEEEEC2IS9_EET_
  1174: 002db261    68 FUNC    WEAK   DEFAULT    8 _ZN3rtc25FireAndForgetAsyncClosureINS_14MethodFunctor1IN9twiliosdk11TSCEndpointEMS3_FvPNS2_10TSCSessionEEvS5_EEEC2ERKS8_
  1175: 00a78480    32 OBJECT  WEAK   DEFAULT   14 _ZTVN3rtc16RefCountedObjectINS_25FireAndForgetAsyncClosureINS_14MethodFunctor1IN9twiliosdk11TSCEndpointEMS4_FvPNS3_10TSCSessionEEvS6_EEEEEE
  1176: 002db1c1    64 FUNC    WEAK   DEFAULT    8 _ZN3rtc25FireAndForgetAsyncClosureINS_14MethodFunctor0IN9twiliosdk10TSCSessionEMS3_FvvEvEEED2Ev
  1177: 00a78460    28 OBJECT  WEAK   DEFAULT   14 _ZTVN3rtc25FireAndForgetAsyncClosureINS_14MethodFunctor0IN9twiliosdk10TSCSessionEMS3_FvvEvEEEE
  1178: 002db1c1    64 FUNC    WEAK   DEFAULT    8 _ZN3rtc25FireAndForgetAsyncClosureINS_14MethodFunctor0IN9twiliosdk10TSCSessionEMS3_FvvEvEEED1Ev
  1179: 002db201    32 FUNC    WEAK   DEFAULT    8 _ZN3rtc25FireAndForgetAsyncClosureINS_14MethodFunctor0IN9twiliosdk10TSCSessionEMS3_FvvEvEEED0Ev
  1180: 002db221    64 FUNC    WEAK   DEFAULT    8 _ZN3rtc16RefCountedObjectINS_25FireAndForgetAsyncClosureINS_14MethodFunctor0IN9twiliosdk10TSCSessionEMS4_FvvEvEEEEEC2IS7_EET_
  1181: 002db2a5    64 FUNC    WEAK   DEFAULT    8 _ZN3rtc25FireAndForgetAsyncClosureINS_14MethodFunctor0IN9twiliosdk10TSCSessionEMS3_FvvEvEEEC2ERKS6_
  1182: 00a78440    32 OBJECT  WEAK   DEFAULT   14 _ZTVN3rtc16RefCountedObjectINS_25FireAndForgetAsyncClosureINS_14MethodFunctor0IN9twiliosdk10TSCSessionEMS4_FvvEvEEEEEE
  1183: 002db261    68 FUNC    WEAK   DEFAULT    8 _ZN3rtc25FireAndForgetAsyncClosureINS_14MethodFunctor1IN9twiliosdk11TSCEndpointEMS3_FvPNS2_10TSCSessionEEvS5_EEEC1ERKS8_
  1184: 002db2a5    64 FUNC    WEAK   DEFAULT    8 _ZN3rtc25FireAndForgetAsyncClosureINS_14MethodFunctor0IN9twiliosdk10TSCSessionEMS3_FvvEvEEEC1ERKS6_
  1185: 00a78510    12 OBJECT  WEAK   DEFAULT   14 _ZTIN3rtc16RefCountedObjectINS_25FireAndForgetAsyncClosureINS_14MethodFunctor0IN9twiliosdk10TSCSessionEMS4_FvvEvEEEEEE
  1186: 002db2e5    30 FUNC    WEAK   DEFAULT    8 _ZNK3rtc16RefCountedObjectINS_25FireAndForgetAsyncClosureINS_14MethodFunctor0IN9twiliosdk10TSCSessionEMS4_FvvEvEEEEE6AddRefEv
  1187: 002db305    56 FUNC    WEAK   DEFAULT    8 _ZNK3rtc16RefCountedObjectINS_25FireAndForgetAsyncClosureINS_14MethodFunctor0IN9twiliosdk10TSCSessionEMS4_FvvEvEEEEE7ReleaseEv
  1188: 002db33d    64 FUNC    WEAK   DEFAULT    8 _ZN3rtc16RefCountedObjectINS_25FireAndForgetAsyncClosureINS_14MethodFunctor0IN9twiliosdk10TSCSessionEMS4_FvvEvEEEEED1Ev
  1189: 002db37d    32 FUNC    WEAK   DEFAULT    8 _ZN3rtc16RefCountedObjectINS_25FireAndForgetAsyncClosureINS_14MethodFunctor0IN9twiliosdk10TSCSessionEMS4_FvvEvEEEEED0Ev
  1190: 002db39d    24 FUNC    WEAK   DEFAULT    8 _ZN3rtc25FireAndForgetAsyncClosureINS_14MethodFunctor0IN9twiliosdk10TSCSessionEMS3_FvvEvEEE7ExecuteEv
  1191: 002db3b5    38 FUNC    WEAK   DEFAULT    8 _ZNK3rtc16RefCountedObjectINS_25FireAndForgetAsyncClosureINS_14MethodFunctor0IN9twiliosdk10TSCSessionEMS4_FvvEvEEEEE9HasOneRefEv
  1192: 00a7851c    12 OBJECT  WEAK   DEFAULT   14 _ZTIN3rtc25FireAndForgetAsyncClosureINS_14MethodFunctor0IN9twiliosdk10TSCSessionEMS3_FvvEvEEEE
  1193: 00a78528    12 OBJECT  WEAK   DEFAULT   14 _ZTIN3rtc16RefCountedObjectINS_25FireAndForgetAsyncClosureINS_14MethodFunctor1IN9twiliosdk11TSCEndpointEMS4_FvPNS3_10TSCSessionEEvS6_EEEEEE
  1194: 002db3dd    30 FUNC    WEAK   DEFAULT    8 _ZNK3rtc16RefCountedObjectINS_25FireAndForgetAsyncClosureINS_14MethodFunctor1IN9twiliosdk11TSCEndpointEMS4_FvPNS3_10TSCSessionEEvS6_EEEEE6AddRefEv
  1195: 002db3fd    56 FUNC    WEAK   DEFAULT    8 _ZNK3rtc16RefCountedObjectINS_25FireAndForgetAsyncClosureINS_14MethodFunctor1IN9twiliosdk11TSCEndpointEMS4_FvPNS3_10TSCSessionEEvS6_EEEEE7ReleaseEv
  1196: 002db435    64 FUNC    WEAK   DEFAULT    8 _ZN3rtc16RefCountedObjectINS_25FireAndForgetAsyncClosureINS_14MethodFunctor1IN9twiliosdk11TSCEndpointEMS4_FvPNS3_10TSCSessionEEvS6_EEEEED1Ev
  1197: 002db475    32 FUNC    WEAK   DEFAULT    8 _ZN3rtc16RefCountedObjectINS_25FireAndForgetAsyncClosureINS_14MethodFunctor1IN9twiliosdk11TSCEndpointEMS4_FvPNS3_10TSCSessionEEvS6_EEEEED0Ev
  1198: 002db495    24 FUNC    WEAK   DEFAULT    8 _ZN3rtc25FireAndForgetAsyncClosureINS_14MethodFunctor1IN9twiliosdk11TSCEndpointEMS3_FvPNS2_10TSCSessionEEvS5_EEE7ExecuteEv
  1199: 002db4ad    38 FUNC    WEAK   DEFAULT    8 _ZNK3rtc16RefCountedObjectINS_25FireAndForgetAsyncClosureINS_14MethodFunctor1IN9twiliosdk11TSCEndpointEMS4_FvPNS3_10TSCSessionEEvS6_EEEEE9HasOneRefEv
  1200: 00a78534    12 OBJECT  WEAK   DEFAULT   14 _ZTIN3rtc25FireAndForgetAsyncClosureINS_14MethodFunctor1IN9twiliosdk11TSCEndpointEMS3_FvPNS2_10TSCSessionEEvS5_EEEE
  1201: 00a78508     8 OBJECT  GLOBAL DEFAULT   14 _ZTIN9twiliosdk18TSCSessionObserverE
  1202: 009a0470   115 OBJECT  WEAK   DEFAULT   11 _ZTSN3rtc16RefCountedObjectINS_25FireAndForgetAsyncClosureINS_14MethodFunctor0IN9twiliosdk10TSCSessionEMS4_FvvEvEEEEEE
  1203: 009a04e4    91 OBJECT  WEAK   DEFAULT   11 _ZTSN3rtc25FireAndForgetAsyncClosureINS_14MethodFunctor0IN9twiliosdk10TSCSessionEMS3_FvvEvEEEE
  1204: 009a0540   136 OBJECT  WEAK   DEFAULT   11 _ZTSN3rtc16RefCountedObjectINS_25FireAndForgetAsyncClosureINS_14MethodFunctor1IN9twiliosdk11TSCEndpointEMS4_FvPNS3_10TSCSessionEEvS6_EEEEEE
  1205: 009a05c8   112 OBJECT  WEAK   DEFAULT   11 _ZTSN3rtc25FireAndForgetAsyncClosureINS_14MethodFunctor1IN9twiliosdk11TSCEndpointEMS3_FvPNS2_10TSCSessionEEvS5_EEEE
  1206: 009a0274    33 OBJECT  GLOBAL DEFAULT   11 _ZTSN9twiliosdk18TSCSessionObserverE
  1207: 002db33d    64 FUNC    WEAK   DEFAULT    8 _ZN3rtc16RefCountedObjectINS_25FireAndForgetAsyncClosureINS_14MethodFunctor0IN9twiliosdk10TSCSessionEMS4_FvvEvEEEEED2Ev
  1208: 002db4d5    72 FUNC    WEAK   DEFAULT    8 _ZNK3rtc14MethodFunctor0IN9twiliosdk10TSCSessionEMS2_FvvEvEclEv
  1209: 002db435    64 FUNC    WEAK   DEFAULT    8 _ZN3rtc16RefCountedObjectINS_25FireAndForgetAsyncClosureINS_14MethodFunctor1IN9twiliosdk11TSCEndpointEMS4_FvPNS3_10TSCSessionEEvS6_EEEEED2Ev
  1210: 002db51d    78 FUNC    WEAK   DEFAULT    8 _ZNK3rtc14MethodFunctor1IN9twiliosdk11TSCEndpointEMS2_FvPNS1_10TSCSessionEEvS4_EclEv
  1211: 002deb6d    28 FUNC    WEAK   DEFAULT    8 _ZNK6webrtc10VideoFrame14render_time_msEv
  1212: 002deb89    64 FUNC    WEAK   DEFAULT    8 _ZN6webrtc22VideoCaptureCapabilityC2Ev
  1213: 002deb89    64 FUNC    WEAK   DEFAULT    8 _ZN6webrtc22VideoCaptureCapabilityC1Ev
  1214: 002debc9    56 FUNC    WEAK   DEFAULT    8 _ZN6webrtc24VideoCaptureDataCallbackD2Ev
  1215: 002debc9    56 FUNC    WEAK   DEFAULT    8 _ZN6webrtc24VideoCaptureDataCallbackD1Ev
  1216: 002dec01    32 FUNC    WEAK   DEFAULT    8 _ZN6webrtc24VideoCaptureDataCallbackD0Ev
  1217: 002dec21    56 FUNC    WEAK   DEFAULT    8 _ZN7sigslot22_signal_base_interfaceD2Ev
  1218: 002dec21    56 FUNC    WEAK   DEFAULT    8 _ZN7sigslot22_signal_base_interfaceD1Ev
  1219: 002dec59    32 FUNC    WEAK   DEFAULT    8 _ZN7sigslot22_signal_base_interfaceD0Ev
  1220: 002dec79    56 FUNC    WEAK   DEFAULT    8 _ZN7sigslot19has_slots_interfaceD2Ev
  1221: 002dec79    56 FUNC    WEAK   DEFAULT    8 _ZN7sigslot19has_slots_interfaceD1Ev
  1222: 002decb1    32 FUNC    WEAK   DEFAULT    8 _ZN7sigslot19has_slots_interfaceD0Ev
  1223: 002decd1    54 FUNC    WEAK   DEFAULT    8 _ZN3rtc6AssertEbPKcS1_iS1_
  1224: 002ded09    64 FUNC    WEAK   DEFAULT    8 _ZN7cricket11VideoFormat13IntervalToFpsEx
  1225: 002ded49    28 FUNC    WEAK   DEFAULT    8 _ZN3rtc10scoped_ptrIN7cricket17VideoFrameFactoryENS_14DefaultDeleterIS2_EEED2Ev
  1226: 002def6d    42 FUNC    WEAK   DEFAULT    8 _ZN3rtc8internal15scoped_ptr_implIN7cricket17VideoFrameFactoryENS_14DefaultDeleterIS3_EEED1Ev
  1227: 002ded49    28 FUNC    WEAK   DEFAULT    8 _ZN3rtc10scoped_ptrIN7cricket17VideoFrameFactoryENS_14DefaultDeleterIS2_EEED1Ev
  1228: 002ded65    28 FUNC    WEAK   DEFAULT    8 _ZN3rtc10scoped_ptrIN7cricket11VideoFormatENS_14DefaultDeleterIS2_EEED2Ev
  1229: 002def99    42 FUNC    WEAK   DEFAULT    8 _ZN3rtc8internal15scoped_ptr_implIN7cricket11VideoFormatENS_14DefaultDeleterIS3_EEED1Ev
  1230: 002ded65    28 FUNC    WEAK   DEFAULT    8 _ZN3rtc10scoped_ptrIN7cricket11VideoFormatENS_14DefaultDeleterIS2_EEED1Ev
  1231: 002ded81    28 FUNC    WEAK   DEFAULT    8 _ZNSt3__16vectorIN7cricket11VideoFormatENS_9allocatorIS2_EEED2Ev
  1232: 002ded81    28 FUNC    WEAK   DEFAULT    8 _ZNSt3__16vectorIN7cricket11VideoFormatENS_9allocatorIS2_EEED1Ev
  1233: 002df01d    30 FUNC    WEAK   DEFAULT    8 _ZN3rtc18RollingAccumulatorIdED1Ev
  1234: 002defe1    30 FUNC    WEAK   DEFAULT    8 _ZN3rtc18RollingAccumulatorIiED1Ev
  1235: 002ded9d    30 FUNC    WEAK   DEFAULT    8 _ZNK7cricket13VideoCapturer16GetCaptureFormatEv
  1236: 002df03d    28 FUNC    WEAK   DEFAULT    8 _ZNK3rtc10scoped_ptrIN7cricket11VideoFormatENS_14DefaultDeleterIS2_EEE3getEv
  1237: 002dedbd    24 FUNC    WEAK   DEFAULT    8 _ZNK7cricket13VideoCapturer13capture_stateEv
  1238: 002dedd5    28 FUNC    WEAK   DEFAULT    8 _ZN7cricket13VideoCapturer5SetIdERKNSt3__112basic_stringIcNS1_11char_traitsIcEENS1_9allocatorIcEEEE
  1239: 002df059    26 FUNC    WEAK   DEFAULT    8 _ZN3rtc10scoped_ptrIN7cricket11VideoFormatENS_14DefaultDeleterIS2_EEE5resetEPS2_
  1240: 002df075    40 FUNC    WEAK   DEFAULT    8 _ZNK3rtc10scoped_ptrIN7cricket11VideoFormatENS_14DefaultDeleterIS2_EEEcvMS5_NS_8internal15scoped_ptr_implIS2_S4_EEEv
  1241: 002df09d    80 FUNC    WEAK   DEFAULT    8 _ZNK3rtc10scoped_ptrIN7cricket11VideoFormatENS_14DefaultDeleterIS2_EEEptEv
  1242: 002df0ed    80 FUNC    WEAK   DEFAULT    8 _ZNK3rtc10scoped_ptrIN7cricket11VideoFormatENS_14DefaultDeleterIS2_EEEdeEv
  1243: 002dedf1    88 FUNC    WEAK   DEFAULT    8 _ZN9twiliosdk25TSCVideoCaptureCapabilityC2EPKN7cricket11VideoFormatE
  1244: 002dedf1    88 FUNC    WEAK   DEFAULT    8 _ZN9twiliosdk25TSCVideoCaptureCapabilityC1EPKN7cricket11VideoFormatE
  1245: 002dee49   188 FUNC    WEAK   DEFAULT    8 _ZN9twiliosdk16TSCCapturedFrameC2ERKN6webrtc10VideoFrameEPvi
  1246: 002dee49   188 FUNC    WEAK   DEFAULT    8 _ZN9twiliosdk16TSCCapturedFrameC1ERKN6webrtc10VideoFrameEPvi
  1247: 002def05    48 FUNC    WEAK   DEFAULT    8 _ZN6webrtc24VideoCaptureDataCallbackC2Ev
  1248: 002def05    48 FUNC    WEAK   DEFAULT    8 _ZN6webrtc24VideoCaptureDataCallbackC1Ev
  1249: 002def35    28 FUNC    WEAK   DEFAULT    8 _ZNSt3__16vectorIhNS_9allocatorIhEEED2Ev
  1250: 002def35    28 FUNC    WEAK   DEFAULT    8 _ZNSt3__16vectorIhNS_9allocatorIhEEED1Ev
  1251: 002db56d   248 FUNC    GLOBAL DEFAULT    8 _ZN9twiliosdk17TSCCameraCapturerC2ERKNSt3__112basic_stringIcNS1_11char_traitsIcEENS1_9allocatorIcEEEE
  1252: 002df13d    28 FUNC    WEAK   DEFAULT    8 _ZN3rtc13scoped_refptrIN6webrtc18VideoCaptureModuleEEC1Ev
  1253: 002df159    46 FUNC    WEAK   DEFAULT    8 _ZN3rtc13scoped_refptrIN6webrtc18VideoCaptureModuleEED1Ev
  1254: 00a78540   156 OBJECT  GLOBAL DEFAULT   14 _ZTVN9twiliosdk17TSCCameraCapturerE
  1255: 002db665   192 FUNC    GLOBAL DEFAULT    8 _ZN9twiliosdk17TSCCameraCapturerD2Ev
  1256: 002df241    72 FUNC    WEAK   DEFAULT    8 _ZN3rtc13scoped_refptrIN6webrtc18VideoCaptureModuleEEaSEPS2_
  1257: 002db665   192 FUNC    GLOBAL DEFAULT    8 _ZN9twiliosdk17TSCCameraCapturerD1Ev
  1258: 002db725     6 FUNC    GLOBAL DEFAULT    8 _ZThn588_N9twiliosdk17TSCCameraCapturerD1Ev
  1259: 002db72d     6 FUNC    GLOBAL DEFAULT    8 _ZThn20_N9twiliosdk17TSCCameraCapturerD1Ev
  1260: 002db735     6 FUNC    GLOBAL DEFAULT    8 _ZThn4_N9twiliosdk17TSCCameraCapturerD1Ev
  1261: 002db73d    32 FUNC    GLOBAL DEFAULT    8 _ZN9twiliosdk17TSCCameraCapturerD0Ev
  1262: 002db75d     6 FUNC    GLOBAL DEFAULT    8 _ZThn588_N9twiliosdk17TSCCameraCapturerD0Ev
  1263: 002db765     6 FUNC    GLOBAL DEFAULT    8 _ZThn20_N9twiliosdk17TSCCameraCapturerD0Ev
  1264: 002db76d     6 FUNC    GLOBAL DEFAULT    8 _ZThn4_N9twiliosdk17TSCCameraCapturerD0Ev
  1265: 002db775  1108 FUNC    GLOBAL DEFAULT    8 _ZN9twiliosdk17TSCCameraCapturer5StartERKN7cricket11VideoFormatE
  1266: 002df289    32 FUNC    WEAK   DEFAULT    8 _ZN3rtc10scoped_ptrIN7cricket11VideoFormatENS_14DefaultDeleterIS2_EEEC1EPS2_
  1267: 002df2a9    24 FUNC    WEAK   DEFAULT    8 _ZNK3rtc13scoped_refptrIN6webrtc18VideoCaptureModuleEE3getEv
  1268: 002df2c1    24 FUNC    WEAK   DEFAULT    8 _ZNK3rtc13scoped_refptrIN6webrtc18VideoCaptureModuleEEptEv
  1269: 002dbbc9   264 FUNC    GLOBAL DEFAULT    8 _ZN9twiliosdk17TSCCameraCapturer4StopEv
  1270: 002dbcd1    72 FUNC    GLOBAL DEFAULT    8 _ZN9twiliosdk17TSCCameraCapturer9IsRunningEv
  1271: 002dbd19    22 FUNC    GLOBAL DEFAULT    8 _ZNK9twiliosdk17TSCCameraCapturer12IsScreencastEv
  1272: 002dbd31    96 FUNC    GLOBAL DEFAULT    8 _ZN9twiliosdk17TSCCameraCapturer20GetBestCaptureFormatERKN7cricket11VideoFormatEPS2_
  1273: 002dbd91   798 FUNC    GLOBAL DEFAULT    8 _ZN9twiliosdk17TSCCameraCapturer19GetPreferredFourccsEPNSt3__16vectorIjNS1_9allocatorIjEEEE
  1274: 002df82d   144 FUNC    WEAK   DEFAULT    8 _ZNSt3__16vectorIjNS_9allocatorIjEEE17__annotate_shrinkEj
  1275: 002df475   166 FUNC    WEAK   DEFAULT    8 _ZNSt3__16vectorIjNS_9allocatorIjEEE19__annotate_increaseEj
  1276: 002dc3fd    38 FUNC    GLOBAL DEFAULT    8 _ZN9twiliosdk17TSCCameraCapturer18getCapturingDeviceEv
  1277: 002dc425   278 FUNC    GLOBAL DEFAULT    8 _ZN9twiliosdk17TSCCameraCapturer23OnIncomingCapturedFrameEiRKN6webrtc10VideoFrameE
  1278: 002df2d9   206 FUNC    WEAK   DEFAULT    8 _ZNSt3__16vectorIhNS_9allocatorIhEEE6resizeEj
  1279: 002df3a9   202 FUNC    WEAK   DEFAULT    8 _ZN7sigslot7signal2IPN7cricket13VideoCapturerEPKNS1_13CapturedFrameENS_20multi_threaded_localEEclES3_S6_
  1280: 002dc53d     6 FUNC    GLOBAL DEFAULT    8 _ZThn588_N9twiliosdk17TSCCameraCapturer23OnIncomingCapturedFrameEiRKN6webrtc10VideoFrameE
  1281: 002dc545    22 FUNC    GLOBAL DEFAULT    8 _ZN9twiliosdk17TSCCameraCapturer21OnCaptureDelayChangedEii
  1282: 002dc55d     6 FUNC    GLOBAL DEFAULT    8 _ZThn588_N9twiliosdk17TSCCameraCapturer21OnCaptureDelayChangedEii
  1283: 002def51    28 FUNC    WEAK   DEFAULT    8 _ZNSt3__13setIPN7sigslot22_signal_base_interfaceENS_4lessIS3_EENS_9allocatorIS3_EEED2Ev
  1284: 002df5a1    58 FUNC    WEAK   DEFAULT    8 _ZNSt3__16__treeIPN7sigslot22_signal_base_interfaceENS_4lessIS3_EENS_9allocatorIS3_EEED1Ev
  1285: 002def51    28 FUNC    WEAK   DEFAULT    8 _ZNSt3__13setIPN7sigslot22_signal_base_interfaceENS_4lessIS3_EENS_9allocatorIS3_EEED1Ev
  1286: 002def6d    42 FUNC    WEAK   DEFAULT    8 _ZN3rtc8internal15scoped_ptr_implIN7cricket17VideoFrameFactoryENS_14DefaultDeleterIS3_EEED2Ev
  1287: 002df5dd    34 FUNC    WEAK   DEFAULT    8 _ZNK3rtc14DefaultDeleterIN7cricket17VideoFrameFactoryEEclEPS2_
  1288: 002def99    42 FUNC    WEAK   DEFAULT    8 _ZN3rtc8internal15scoped_ptr_implIN7cricket11VideoFormatENS_14DefaultDeleterIS3_EEED2Ev
  1289: 002df601    22 FUNC    WEAK   DEFAULT    8 _ZNK3rtc14DefaultDeleterIN7cricket11VideoFormatEEclEPS2_
  1290: 002defc5    28 FUNC    WEAK   DEFAULT    8 _ZNSt3__16vectorIiNS_9allocatorIiEEED2Ev
  1291: 002defc5    28 FUNC    WEAK   DEFAULT    8 _ZNSt3__16vectorIiNS_9allocatorIiEEED1Ev
  1292: 002defe1    30 FUNC    WEAK   DEFAULT    8 _ZN3rtc18RollingAccumulatorIiED2Ev
  1293: 002df001    28 FUNC    WEAK   DEFAULT    8 _ZNSt3__16vectorIdNS_9allocatorIdEEED2Ev
  1294: 002df6d5   188 FUNC    WEAK   DEFAULT    8 _ZNSt3__113__vector_baseIdNS_9allocatorIdEEED2Ev
  1295: 002df001    28 FUNC    WEAK   DEFAULT    8 _ZNSt3__16vectorIdNS_9allocatorIdEEED1Ev
  1296: 002df01d    30 FUNC    WEAK   DEFAULT    8 _ZN3rtc18RollingAccumulatorIdED2Ev
  1297: 002df791    24 FUNC    WEAK   DEFAULT    8 _ZNK3rtc8internal15scoped_ptr_implIN7cricket11VideoFormatENS_14DefaultDeleterIS3_EEE3getEv
  1298: 002df7a9   100 FUNC    WEAK   DEFAULT    8 _ZN3rtc8internal15scoped_ptr_implIN7cricket11VideoFormatENS_14DefaultDeleterIS3_EEE5resetEPS3_
  1299: 002df13d    28 FUNC    WEAK   DEFAULT    8 _ZN3rtc13scoped_refptrIN6webrtc18VideoCaptureModuleEEC2Ev
  1300: 002df159    46 FUNC    WEAK   DEFAULT    8 _ZN3rtc13scoped_refptrIN6webrtc18VideoCaptureModuleEED2Ev
  1301: 002df289    32 FUNC    WEAK   DEFAULT    8 _ZN3rtc10scoped_ptrIN7cricket11VideoFormatENS_14DefaultDeleterIS2_EEEC2EPS2_
  1302: 002df80d    32 FUNC    WEAK   DEFAULT    8 _ZN3rtc8internal15scoped_ptr_implIN7cricket11VideoFormatENS_14DefaultDeleterIS3_EEEC1EPS3_
  1303: 002e0075   134 FUNC    WEAK   DEFAULT    8 _ZNSt3__16vectorIhNS_9allocatorIhEEE17__annotate_shrinkEj
  1304: 002df9d5    24 FUNC    WEAK   DEFAULT    8 _ZNSt3__16vectorIjNS_9allocatorIjEEE31__annotate_contiguous_containerEPKvS5_S5_S5_
  1305: 002df51d    84 FUNC    WEAK   DEFAULT    8 _ZN7sigslot12_signal_baseINS_15single_threadedEED2Ev
  1306: 002df51d    84 FUNC    WEAK   DEFAULT    8 _ZN7sigslot12_signal_baseINS_15single_threadedEED1Ev
  1307: 002df571     8 FUNC    WEAK   DEFAULT    8 _ZThn4_N7sigslot12_signal_baseINS_15single_threadedEED1Ev
  1308: 002df579    32 FUNC    WEAK   DEFAULT    8 _ZN7sigslot12_signal_baseINS_15single_threadedEED0Ev
  1309: 002df599     6 FUNC    WEAK   DEFAULT    8 _ZThn4_N7sigslot12_signal_baseINS_15single_threadedEED0Ev
  1310: 002df5a1    58 FUNC    WEAK   DEFAULT    8 _ZNSt3__16__treeIPN7sigslot22_signal_base_interfaceENS_4lessIS3_EENS_9allocatorIS3_EEED2Ev
  1311: 002e01ad    90 FUNC    WEAK   DEFAULT    8 _ZNSt3__16__treeIPN7sigslot22_signal_base_interfaceENS_4lessIS3_EENS_9allocatorIS3_EEE5eraseENS_21__tree_const_iteratorIS3_PNS_11__tree_nodeIS3_PvEEiEESE_
  1312: 002df6d5   188 FUNC    WEAK   DEFAULT    8 _ZNSt3__113__vector_baseIdNS_9allocatorIdEEED1Ev
  1313: 002df80d    32 FUNC    WEAK   DEFAULT    8 _ZN3rtc8internal15scoped_ptr_implIN7cricket11VideoFormatENS_14DefaultDeleterIS3_EEEC2EPS3_
  1314: 002dfcb5    34 FUNC    WEAK   DEFAULT    8 _ZN3rtc8internal15scoped_ptr_implIN7cricket11VideoFormatENS_14DefaultDeleterIS3_EEE4DataC1EPS3_
  1315: 002df8bd   116 FUNC    WEAK   DEFAULT    8 _ZNKSt3__16vectorIjNS_9allocatorIjEEE8max_sizeEv
  1316: 002df9ed   196 FUNC    WEAK   DEFAULT    8 _ZNSt3__114__split_bufferIjRNS_9allocatorIjEEEC1EjjS3_
  1317: 002dfb85   302 FUNC    WEAK   DEFAULT    8 _ZNSt3__16vectorIjNS_9allocatorIjEEE26__swap_out_circular_bufferERNS_14__split_bufferIjRS2_EE
  1318: 002dfab1   210 FUNC    WEAK   DEFAULT    8 _ZNSt3__114__split_bufferIjRNS_9allocatorIjEEED1Ev
  1319: 002dfcd9   114 FUNC    WEAK   DEFAULT    8 _ZNSt3__16vectorIhNS_9allocatorIhEEE18__construct_at_endEj
  1320: 002e02bd   116 FUNC    WEAK   DEFAULT    8 _ZNKSt3__16vectorIhNS_9allocatorIhEEE8max_sizeEv
  1321: 002dfd4d   190 FUNC    WEAK   DEFAULT    8 _ZNSt3__114__split_bufferIhRNS_9allocatorIhEEEC1EjjS3_
  1322: 002dfedd   110 FUNC    WEAK   DEFAULT    8 _ZNSt3__114__split_bufferIhRNS_9allocatorIhEEE18__construct_at_endEj
  1323: 002dff4d   294 FUNC    WEAK   DEFAULT    8 _ZNSt3__16vectorIhNS_9allocatorIhEEE26__swap_out_circular_bufferERNS_14__split_bufferIhRS2_EE
  1324: 002dfe0d   208 FUNC    WEAK   DEFAULT    8 _ZNSt3__114__split_bufferIhRNS_9allocatorIhEEED1Ev
  1325: 002df931   162 FUNC    WEAK   DEFAULT    8 _ZNSt3__16vectorIjNS_9allocatorIjEEE14__annotate_newEj
  1326: 002df9ed   196 FUNC    WEAK   DEFAULT    8 _ZNSt3__114__split_bufferIjRNS_9allocatorIjEEEC2EjjS3_
  1327: 002dfab1   210 FUNC    WEAK   DEFAULT    8 _ZNSt3__114__split_bufferIjRNS_9allocatorIjEEED2Ev
  1328: 002e00fd   176 FUNC    WEAK   DEFAULT    8 _ZNSt3__16vectorIjNS_9allocatorIjEEE17__annotate_deleteEv
  1329: 002dfcb5    34 FUNC    WEAK   DEFAULT    8 _ZN3rtc8internal15scoped_ptr_implIN7cricket11VideoFormatENS_14DefaultDeleterIS3_EEE4DataC2EPS3_
  1330: 002e0209    22 FUNC    WEAK   DEFAULT    8 _ZN3rtc14DefaultDeleterIN7cricket11VideoFormatEEC2Ev
  1331: 002e0221   154 FUNC    WEAK   DEFAULT    8 _ZNSt3__16vectorIhNS_9allocatorIhEEE19__annotate_increaseEj
  1332: 002dfd4d   190 FUNC    WEAK   DEFAULT    8 _ZNSt3__114__split_bufferIhRNS_9allocatorIhEEEC2EjjS3_
  1333: 002dfe0d   208 FUNC    WEAK   DEFAULT    8 _ZNSt3__114__split_bufferIhRNS_9allocatorIhEEED2Ev
  1334: 002e0331   164 FUNC    WEAK   DEFAULT    8 _ZNSt3__16vectorIhNS_9allocatorIhEEE17__annotate_deleteEv
  1335: 002e03d5   152 FUNC    WEAK   DEFAULT    8 _ZNSt3__16vectorIhNS_9allocatorIhEEE14__annotate_newEj
  1336: 002e046d    24 FUNC    WEAK   DEFAULT    8 _ZNSt3__16vectorIhNS_9allocatorIhEEE31__annotate_contiguous_containerEPKvS5_S5_S5_
  1337: 002e0209    22 FUNC    WEAK   DEFAULT    8 _ZN3rtc14DefaultDeleterIN7cricket11VideoFormatEEC1Ev
  1338: 002e05b1   670 FUNC    WEAK   DEFAULT    8 _ZNSt3__16__treeIPN7sigslot22_signal_base_interfaceENS_4lessIS3_EENS_9allocatorIS3_EEE15__insert_uniqueERKS3_
  1339: 002e0851   108 FUNC    WEAK   DEFAULT    8 _ZNSt3__16__treeIPN7sigslot22_signal_base_interfaceENS_4lessIS3_EENS_9allocatorIS3_EEE14__erase_uniqueIS3_EEjRKT_
  1340: 002e0485    28 FUNC    WEAK   DEFAULT    8 _ZNSt3__14listIPN7sigslot17_connection_base2IPN7cricket13VideoCapturerENS3_12CaptureStateENS1_15single_threadedEEENS_9allocatorIS9_EEED2Ev
  1341: 002e055d    26 FUNC    WEAK   DEFAULT    8 _ZNSt3__110__list_impIPN7sigslot17_connection_base2IPN7cricket13VideoCapturerENS3_12CaptureStateENS1_15single_threadedEEENS_9allocatorIS9_EEED2Ev
  1342: 002e0485    28 FUNC    WEAK   DEFAULT    8 _ZNSt3__14listIPN7sigslot17_connection_base2IPN7cricket13VideoCapturerENS3_12CaptureStateENS1_15single_threadedEEENS_9allocatorIS9_EEED1Ev
  1343: 002e04a1    84 FUNC    WEAK   DEFAULT    8 _ZN7sigslot12_signal_baseINS_20multi_threaded_localEED2Ev
  1344: 002e04a1    84 FUNC    WEAK   DEFAULT    8 _ZN7sigslot12_signal_baseINS_20multi_threaded_localEED1Ev
  1345: 002e04f5     8 FUNC    WEAK   DEFAULT    8 _ZThn4_N7sigslot12_signal_baseINS_20multi_threaded_localEED1Ev
  1346: 002e04fd    32 FUNC    WEAK   DEFAULT    8 _ZN7sigslot12_signal_baseINS_20multi_threaded_localEED0Ev
  1347: 002e051d     6 FUNC    WEAK   DEFAULT    8 _ZThn4_N7sigslot12_signal_baseINS_20multi_threaded_localEED0Ev
  1348: 002e0525    28 FUNC    WEAK   DEFAULT    8 _ZNSt3__14listIPN7sigslot17_connection_base2IPN7cricket13VideoCapturerEPKNS3_13CapturedFrameENS1_20multi_threaded_localEEENS_9allocatorISB_EEED2Ev
  1349: 002e0579    26 FUNC    WEAK   DEFAULT    8 _ZNSt3__110__list_impIPN7sigslot17_connection_base2IPN7cricket13VideoCapturerEPKNS3_13CapturedFrameENS1_20multi_threaded_localEEENS_9allocatorISB_EEED2Ev
  1350: 002e0525    28 FUNC    WEAK   DEFAULT    8 _ZNSt3__14listIPN7sigslot17_connection_base2IPN7cricket13VideoCapturerEPKNS3_13CapturedFrameENS1_20multi_threaded_localEEENS_9allocatorISB_EEED1Ev
  1351: 002e0541    28 FUNC    WEAK   DEFAULT    8 _ZNSt3__14listIPN7sigslot17_connection_base2IPN7cricket13VideoCapturerEPKNS3_10VideoFrameENS1_20multi_threaded_localEEENS_9allocatorISB_EEED2Ev
  1352: 002e0595    26 FUNC    WEAK   DEFAULT    8 _ZNSt3__110__list_impIPN7sigslot17_connection_base2IPN7cricket13VideoCapturerEPKNS3_10VideoFrameENS1_20multi_threaded_localEEENS_9allocatorISB_EEED2Ev
  1353: 002e0541    28 FUNC    WEAK   DEFAULT    8 _ZNSt3__14listIPN7sigslot17_connection_base2IPN7cricket13VideoCapturerEPKNS3_10VideoFrameENS1_20multi_threaded_localEEENS_9allocatorISB_EEED1Ev
  1354: 002e08bd   234 FUNC    WEAK   DEFAULT    8 _ZNSt3__110__list_impIPN7sigslot17_connection_base2IPN7cricket13VideoCapturerENS3_12CaptureStateENS1_15single_threadedEEENS_9allocatorIS9_EEE5clearEv
  1355: 002e055d    26 FUNC    WEAK   DEFAULT    8 _ZNSt3__110__list_impIPN7sigslot17_connection_base2IPN7cricket13VideoCapturerENS3_12CaptureStateENS1_15single_threadedEEENS_9allocatorIS9_EEED1Ev
  1356: 002e09a9   254 FUNC    WEAK   DEFAULT    8 _ZNSt3__14listIPN7sigslot17_connection_base2IPN7cricket13VideoCapturerENS3_12CaptureStateENS1_15single_threadedEEENS_9allocatorIS9_EEE5eraseENS_21__list_const_iteratorIS9_PvEESF_
  1357: 002e0aa9   234 FUNC    WEAK   DEFAULT    8 _ZNSt3__110__list_impIPN7sigslot17_connection_base2IPN7cricket13VideoCapturerEPKNS3_13CapturedFrameENS1_20multi_threaded_localEEENS_9allocatorISB_EEE5clearEv
  1358: 002e0579    26 FUNC    WEAK   DEFAULT    8 _ZNSt3__110__list_impIPN7sigslot17_connection_base2IPN7cricket13VideoCapturerEPKNS3_13CapturedFrameENS1_20multi_threaded_localEEENS_9allocatorISB_EEED1Ev
  1359: 002e0b95   254 FUNC    WEAK   DEFAULT    8 _ZNSt3__14listIPN7sigslot17_connection_base2IPN7cricket13VideoCapturerEPKNS3_13CapturedFrameENS1_20multi_threaded_localEEENS_9allocatorISB_EEE5eraseENS_21__list_const_iteratorISB_PvEESH_
  1360: 002e0c95   234 FUNC    WEAK   DEFAULT    8 _ZNSt3__110__list_impIPN7sigslot17_connection_base2IPN7cricket13VideoCapturerEPKNS3_10VideoFrameENS1_20multi_threaded_localEEENS_9allocatorISB_EEE5clearEv
  1361: 002e0595    26 FUNC    WEAK   DEFAULT    8 _ZNSt3__110__list_impIPN7sigslot17_connection_base2IPN7cricket13VideoCapturerEPKNS3_10VideoFrameENS1_20multi_threaded_localEEENS_9allocatorISB_EEED1Ev
  1362: 002e0d81   254 FUNC    WEAK   DEFAULT    8 _ZNSt3__14listIPN7sigslot17_connection_base2IPN7cricket13VideoCapturerEPKNS3_10VideoFrameENS1_20multi_threaded_localEEENS_9allocatorISB_EEE5eraseENS_21__list_const_iteratorISB_PvEESH_
  1363: 002e0e81   266 FUNC    WEAK   DEFAULT    8 _ZNSt3__16__treeIPN7sigslot22_signal_base_interfaceENS_4lessIS3_EENS_9allocatorIS3_EEE12__find_equalIS3_EERPNS_16__tree_node_baseIPvEESE_RKT_
  1364: 002e0f8d   388 FUNC    WEAK   DEFAULT    8 _ZNSt3__16__treeIPN7sigslot22_signal_base_interfaceENS_4lessIS3_EENS_9allocatorIS3_EEE16__construct_nodeIJRKS3_EEENS_10unique_ptrINS_11__tree_nodeIS3_PvEENS_22__tree_node_destructorINS6_ISF_EEEEEEDpOT_
  1365: 002e1111   146 FUNC    WEAK   DEFAULT    8 _ZNSt3__16__treeIPN7sigslot22_signal_base_interfaceENS_4lessIS3_EENS_9allocatorIS3_EEE16__insert_node_atEPNS_16__tree_node_baseIPvEERSC_SC_
  1366: 002e11a5   308 FUNC    WEAK   DEFAULT    8 _ZNSt3__16__treeIPN7sigslot22_signal_base_interfaceENS_4lessIS3_EENS_9allocatorIS3_EEE4findIS3_EENS_15__tree_iteratorIS3_PNS_11__tree_nodeIS3_PvEEiEERKT_
  1367: 002e12d9   118 FUNC    WEAK   DEFAULT    8 _ZNSt3__16__treeIPN7sigslot22_signal_base_interfaceENS_4lessIS3_EENS_9allocatorIS3_EEE13__lower_boundIS3_EENS_15__tree_iteratorIS3_PNS_11__tree_nodeIS3_PvEEiEERKT_SE_SE_
  1368: 002e1351   160 FUNC    WEAK   DEFAULT    8 _ZNSt3__14listIPN7sigslot17_connection_base2IPN7cricket13VideoCapturerEPKNS3_10VideoFrameENS1_20multi_threaded_localEEENS_9allocatorISB_EEE5eraseENS_21__list_const_iteratorISB_PvEE
  1369: 002e13f1   756 FUNC    WEAK   DEFAULT    8 _ZNSt3__14listIPN7sigslot17_connection_base2IPN7cricket13VideoCapturerEPKNS3_10VideoFrameENS1_20multi_threaded_localEEENS_9allocatorISB_EEE9push_backEOSB_
  1370: 002e16e5   160 FUNC    WEAK   DEFAULT    8 _ZNSt3__14listIPN7sigslot17_connection_base2IPN7cricket13VideoCapturerEPKNS3_13CapturedFrameENS1_20multi_threaded_localEEENS_9allocatorISB_EEE5eraseENS_21__list_const_iteratorISB_PvEE
  1371: 002e1785   160 FUNC    WEAK   DEFAULT    8 _ZNSt3__14listIPN7sigslot17_connection_base2IPN7cricket13VideoCapturerENS3_12CaptureStateENS1_15single_threadedEEENS_9allocatorIS9_EEE5eraseENS_21__list_const_iteratorIS9_PvEE
  1372: 002e75ad    28 FUNC    WEAK   DEFAULT    8 _ZNSt3__16vectorIN6webrtc23PeerConnectionInterface9IceServerENS_9allocatorIS3_EEED2Ev
  1373: 002e75ad    28 FUNC    WEAK   DEFAULT    8 _ZNSt3__16vectorIN6webrtc23PeerConnectionInterface9IceServerENS_9allocatorIS3_EEED1Ev
  1374: 002e75c9    28 FUNC    WEAK   DEFAULT    8 _ZNSt3__16vectorIN3rtc13scoped_refptrINS1_14RTCCertificateEEENS_9allocatorIS4_EEED2Ev
  1375: 002e75c9    28 FUNC    WEAK   DEFAULT    8 _ZNSt3__16vectorIN3rtc13scoped_refptrINS1_14RTCCertificateEEENS_9allocatorIS4_EEED1Ev
  1376: 002e75e5   200 FUNC    WEAK   DEFAULT    8 _ZN6webrtc23PeerConnectionInterface16RTCConfigurationC2Ev
  1377: 002e75e5   200 FUNC    WEAK   DEFAULT    8 _ZN6webrtc23PeerConnectionInterface16RTCConfigurationC1Ev
  1378: 002e76ad    52 FUNC    WEAK   DEFAULT    8 _ZN6webrtc30PeerConnectionFactoryInterface7OptionsC2Ev
  1379: 002e76ad    52 FUNC    WEAK   DEFAULT    8 _ZN6webrtc30PeerConnectionFactoryInterface7OptionsC1Ev
  1380: 002e76e1    40 FUNC    WEAK   DEFAULT    8 _ZN6webrtc23PeerConnectionInterface16RTCConfigurationD2Ev
  1381: 002e76e1    40 FUNC    WEAK   DEFAULT    8 _ZN6webrtc23PeerConnectionInterface16RTCConfigurationD1Ev
  1382: 002e7709    28 FUNC    WEAK   DEFAULT    8 _ZN3rtc10scoped_ptrIN6webrtc26DtlsIdentityStoreInterfaceENS_14DefaultDeleterIS2_EEED2Ev
  1383: 002e7709    28 FUNC    WEAK   DEFAULT    8 _ZN3rtc10scoped_ptrIN6webrtc26DtlsIdentityStoreInterfaceENS_14DefaultDeleterIS2_EEED1Ev
  1384: 002e7725   200 FUNC    WEAK   DEFAULT    8 _ZN6webrtc30PeerConnectionFactoryInterface20CreatePeerConnectionERKNSt3__16vectorINS_23PeerConnectionInterface9IceServerENS1_9allocatorIS4_EEEEPKNS_25MediaConstraintsInterfaceEPNS_29PortAllocatorFactoryInterfaceEN3rtc10scoped_ptrINS_26DtlsIdentityStoreInterfaceENSF_14DefaultDeleterISH_EEEEPNS_22PeerConnectionObserverE
  1385: 002e9961   952 FUNC    WEAK   DEFAULT    8 _ZNSt3__16vectorIN6webrtc23PeerConnectionInterface9IceServerENS_9allocatorIS3_EEE6assignIPS3_EENS_9enable_ifIXaasrNS_21__is_forward_iteratorIT_EE5valuesrNS_16is_constructibleIS3_JNS_15iterator_traitsISB_E9referenceEEEE5valueEvE4typeESB_SB_
  1386: 002e7b29    22 FUNC    WEAK   DEFAULT    8 _ZN3rtc10scoped_ptrIN6webrtc26DtlsIdentityStoreInterfaceENS_14DefaultDeleterIS2_EEE4PassEv
  1387: 002e7b41    32 FUNC    WEAK   DEFAULT    8 _ZN3rtc10scoped_ptrIN6webrtc26DtlsIdentityStoreInterfaceENS_14DefaultDeleterIS2_EEEC1IS2_S4_EEONS0_IT_T0_EE
  1388: 002e77ed    58 FUNC    WEAK   DEFAULT    8 _ZN6webrtc25MediaConstraintsInterface10ConstraintC2ERKNSt3__112basic_stringIcNS2_11char_traitsIcEENS2_9allocatorIcEEEES8_
  1389: 002e77ed    58 FUNC    WEAK   DEFAULT    8 _ZN6webrtc25MediaConstraintsInterface10ConstraintC1ERKNSt3__112basic_stringIcNS2_11char_traitsIcEENS2_9allocatorIcEEEES8_
  1390: 002e7829    56 FUNC    WEAK   DEFAULT    8 _ZN6webrtc25MediaConstraintsInterfaceD2Ev
  1391: 002e7829    56 FUNC    WEAK   DEFAULT    8 _ZN6webrtc25MediaConstraintsInterfaceD1Ev
  1392: 002e7861    32 FUNC    WEAK   DEFAULT    8 _ZN6webrtc25MediaConstraintsInterfaceD0Ev
  1393: 002e7881    48 FUNC    WEAK   DEFAULT    8 _ZN6webrtc25MediaConstraintsInterfaceC2Ev
  1394: 002e7881    48 FUNC    WEAK   DEFAULT    8 _ZN6webrtc25MediaConstraintsInterfaceC1Ev
  1395: 002e78b1    28 FUNC    WEAK   DEFAULT    8 _ZNSt3__16vectorIN6webrtc25MediaConstraintsInterface10ConstraintENS_9allocatorIS3_EEED2Ev
  1396: 002e78b1    28 FUNC    WEAK   DEFAULT    8 _ZNSt3__16vectorIN6webrtc25MediaConstraintsInterface10ConstraintENS_9allocatorIS3_EEED1Ev
  1397: 002e78cd    84 FUNC    WEAK   DEFAULT    8 _ZN6webrtc25MediaConstraintsInterface11ConstraintsC2Ev
  1398: 002e78cd    84 FUNC    WEAK   DEFAULT    8 _ZN6webrtc25MediaConstraintsInterface11ConstraintsC1Ev
  1399: 002e7921    28 FUNC    WEAK   DEFAULT    8 _ZN6webrtc25MediaConstraintsInterface11ConstraintsD2Ev
  1400: 002e7921    28 FUNC    WEAK   DEFAULT    8 _ZN6webrtc25MediaConstraintsInterface11ConstraintsD1Ev
  1401: 002e793d    68 FUNC    WEAK   DEFAULT    8 _ZN9twiliosdk14TSCConstraintsC2Ev
  1402: 00a78648    24 OBJECT  WEAK   DEFAULT   14 _ZTVN9twiliosdk14TSCConstraintsE
  1403: 002e793d    68 FUNC    WEAK   DEFAULT    8 _ZN9twiliosdk14TSCConstraintsC1Ev
  1404: 002e7981    84 FUNC    WEAK   DEFAULT    8 _ZN9twiliosdk14TSCConstraintsD2Ev
  1405: 002e7981    84 FUNC    WEAK   DEFAULT    8 _ZN9twiliosdk14TSCConstraintsD1Ev
  1406: 002e79d5    32 FUNC    WEAK   DEFAULT    8 _ZN9twiliosdk14TSCConstraintsD0Ev
  1407: 002e79f5    24 FUNC    WEAK   DEFAULT    8 _ZNK9twiliosdk14TSCConstraints12GetMandatoryEv
  1408: 002e7a0d    24 FUNC    WEAK   DEFAULT    8 _ZNK9twiliosdk14TSCConstraints11GetOptionalEv
  1409: 00a9b3e0     4 OBJECT  GLOBAL DEFAULT   19 _ZN9twiliosdk22TSCSessionMediaContext17pc_worker_thread_E
  1410: 002e7a25    28 FUNC    WEAK   DEFAULT    8 _ZN3rtc10scoped_ptrIN9twiliosdk21TSCMediaTrackObserverENS_14DefaultDeleterIS2_EEED2Ev
  1411: 002e7c15    42 FUNC    WEAK   DEFAULT    8 _ZN3rtc8internal15scoped_ptr_implIN9twiliosdk21TSCMediaTrackObserverENS_14DefaultDeleterIS3_EEED1Ev
  1412: 002e7a25    28 FUNC    WEAK   DEFAULT    8 _ZN3rtc10scoped_ptrIN9twiliosdk21TSCMediaTrackObserverENS_14DefaultDeleterIS2_EEED1Ev
  1413: 002e1b6d   500 FUNC    GLOBAL DEFAULT    8 _ZN9twiliosdk22TSCSessionMediaContextC2ERKNSt3__13mapINS1_12basic_stringIcNS1_11char_traitsIcEENS1_9allocatorIcEEEES8_NS1_4lessIS8_EENS6_INS1_4pairIKS8_S8_EEEEEEPNS_10TSCSessionE
  1414: 002e7b89    22 FUNC    WEAK   DEFAULT    8 _ZNSt3__112__gcc_atomic14__gcc_atomic_tIbEC1Ev
  1415: 002e7ba1    28 FUNC    WEAK   DEFAULT    8 _ZN3rtc13scoped_refptrIN6webrtc30PeerConnectionFactoryInterfaceEEC1Ev
  1416: 002e7bbd    28 FUNC    WEAK   DEFAULT    8 _ZN3rtc13scoped_refptrIN6webrtc19AudioTrackInterfaceEEC1Ev
  1417: 002e7bd9    28 FUNC    WEAK   DEFAULT    8 _ZN3rtc13scoped_refptrIN6webrtc19VideoTrackInterfaceEEC1Ev
  1418: 002e7bf5    30 FUNC    WEAK   DEFAULT    8 _ZN3rtc10scoped_ptrIN9twiliosdk21TSCMediaTrackObserverENS_14DefaultDeleterIS2_EEEC1Ev
  1419: 002e7c41    28 FUNC    WEAK   DEFAULT    8 _ZN3rtc13scoped_refptrIN6webrtc20MediaStreamInterfaceEEC1Ev
  1420: 002e1f65  1012 FUNC    GLOBAL DEFAULT    8 _ZN9twiliosdk22TSCSessionMediaContext5setupEv
  1421: 00a78638    16 OBJECT  GLOBAL DEFAULT   14 _ZTVN9twiliosdk22TSCSessionMediaContextE
  1422: 002e1b6d   500 FUNC    GLOBAL DEFAULT    8 _ZN9twiliosdk22TSCSessionMediaContextC1ERKNSt3__13mapINS1_12basic_stringIcNS1_11char_traitsIcEENS1_9allocatorIcEEEES8_NS1_4lessIS8_EENS6_INS1_4pairIKS8_S8_EEEEEEPNS_10TSCSessionE
  1423: 002e1d61   352 FUNC    GLOBAL DEFAULT    8 _ZN9twiliosdk22TSCSessionMediaContextD2Ev
  1424: 002e7c5d    70 FUNC    WEAK   DEFAULT    8 _ZN3rtc13scoped_refptrIN6webrtc30PeerConnectionFactoryInterfaceEEaSEPS2_
  1425: 002e1d61   352 FUNC    GLOBAL DEFAULT    8 _ZN9twiliosdk22TSCSessionMediaContextD1Ev
  1426: 002e1ec1    32 FUNC    GLOBAL DEFAULT    8 _ZN9twiliosdk22TSCSessionMediaContextD0Ev
  1427: 002e4271  1572 FUNC    GLOBAL DEFAULT    8 _ZN9twiliosdk22TSCSessionMediaContext15setupICEServersEv
  1428: 002e7ca5    40 FUNC    WEAK   DEFAULT    8 _ZNK3rtc10scoped_ptrINS_6ThreadENS_14DefaultDeleterIS1_EEEeqEPKS1_
  1429: 002ec9e9    72 FUNC    GLOBAL DEFAULT    8 _ZN9twiliosdk23TSCAudioInputControllerC1EPNS_22TSCSessionMediaContextE
  1430: 002e9eed   624 FUNC    WEAK   DEFAULT    8 _ZNSt3__110shared_ptrIN9twiliosdk23TSCAudioInputControllerEEC1IS2_EEPT_NS_9enable_ifIXsrNS_14is_convertibleIS6_PS2_EE5valueENS3_5__natEE4typeE
  1431: 002ea15d   624 FUNC    WEAK   DEFAULT    8 _ZNSt3__110shared_ptrIN9twiliosdk25TSCVideoCaptureControllerEEC1IS2_EEPT_NS_9enable_ifIXsrNS_14is_convertibleIS6_PS2_EE5valueENS3_5__natEE4typeE
  1432: 002e7ccd  2700 FUNC    WEAK   DEFAULT    8 _ZN9twiliosdk14TSCConstraints12SetMandatoryIbEEvRKNSt3__112basic_stringIcNS2_11char_traitsIcEENS2_9allocatorIcEEEERKT_
  1433: 002e8759  2700 FUNC    WEAK   DEFAULT    8 _ZN9twiliosdk14TSCConstraints12SetMandatoryIA_cEEvRKNSt3__112basic_stringIcNS3_11char_traitsIcEENS3_9allocatorIcEEEERKT_
  1434: 002e2359   452 FUNC    GLOBAL DEFAULT    8 _ZN9twiliosdk22TSCSessionMediaContext4openEPKN3rtc16RefCountedObjectINS_26TSCSessionMediaConstraintsEEEPKNS2_INS_14TSCConstraintsEEE
  1435: 002e251d  1064 FUNC    GLOBAL DEFAULT    8 _ZN9twiliosdk22TSCSessionMediaContext4openEbbbbPKN3rtc16RefCountedObjectINS_14TSCConstraintsEEE
  1436: 002e7a41    28 FUNC    WEAK   DEFAULT    8 _ZNSt3__16vectorIN3rtc13scoped_refptrIN9twiliosdk14ITSCVideoCodecEEENS_9allocatorIS5_EEED2Ev
  1437: 002e91fd   192 FUNC    WEAK   DEFAULT    8 _ZNSt3__113__vector_baseIN3rtc13scoped_refptrIN9twiliosdk14ITSCVideoCodecEEENS_9allocatorIS5_EEED2Ev
  1438: 002e7a41    28 FUNC    WEAK   DEFAULT    8 _ZNSt3__16vectorIN3rtc13scoped_refptrIN9twiliosdk14ITSCVideoCodecEEENS_9allocatorIS5_EEED1Ev
  1439: 002e91e5    24 FUNC    WEAK   DEFAULT    8 _ZNK3rtc13scoped_refptrIN6webrtc30PeerConnectionFactoryInterfaceEE3getEv
  1440: 003e4b45    74 FUNC    GLOBAL DEFAULT    8 _ZNK9twiliosdk21TSCMediaCodecRegistry14getVideoCodecsEv
  1441: 002e92bd    34 FUNC    WEAK   DEFAULT    8 _ZN3rtc13scoped_refptrIN6webrtc30PeerConnectionFactoryInterfaceEEaSERKS3_
  1442: 002e92e1    24 FUNC    WEAK   DEFAULT    8 _ZNK3rtc13scoped_refptrIN9twiliosdk14ITSCVideoCodecEEptEv
  1443: 002e92f9    24 FUNC    WEAK   DEFAULT    8 _ZNK3rtc13scoped_refptrIN6webrtc30PeerConnectionFactoryInterfaceEEptEv
  1444: 003e47d5   182 FUNC    GLOBAL DEFAULT    8 _ZN9twiliosdk11TSCSIPUtils16generateUniqueIdERKNSt3__112basic_stringIcNS1_11char_traitsIcEENS1_9allocatorIcEEEERS7_
  1445: 002e2c75   544 FUNC    GLOBAL DEFAULT    8 _ZN9twiliosdk22TSCSessionMediaContext16createAudioTrackEb
  1446: 002e9311    70 FUNC    WEAK   DEFAULT    8 _ZN3rtc13scoped_refptrIN6webrtc19AudioTrackInterfaceEEaSEPS2_
  1447: 002e2e95  1032 FUNC    GLOBAL DEFAULT    8 _ZN9twiliosdk22TSCSessionMediaContext16createVideoTrackEbbPKN3rtc16RefCountedObjectINS_14TSCConstraintsEEE
  1448: 002e9359    70 FUNC    WEAK   DEFAULT    8 _ZN3rtc13scoped_refptrIN6webrtc19VideoTrackInterfaceEEaSEPS2_
  1449: 002e93a1    24 FUNC    WEAK   DEFAULT    8 _ZNK3rtc13scoped_refptrIN6webrtc20MediaStreamInterfaceEE3getEv
  1450: 00a954b4     4 OBJECT  GLOBAL DEFAULT   18 _ZN9twiliosdk15kTSCUserNameKeyE
  1451: 002e2945   708 FUNC    GLOBAL DEFAULT    8 _ZN9twiliosdk22TSCSessionMediaContext5closeEv
  1452: 002e329d   280 FUNC    GLOBAL DEFAULT    8 _ZN9twiliosdk22TSCSessionMediaContext16removeAudioTrackEv
  1453: 002e33b5   524 FUNC    GLOBAL DEFAULT    8 _ZN9twiliosdk22TSCSessionMediaContext16removeVideoTrackEb
  1454: 002e93b9    24 FUNC    WEAK   DEFAULT    8 _ZNK3rtc13scoped_refptrIN6webrtc20MediaStreamInterfaceEEcvPS2_Ev
  1455: 002e93d1    70 FUNC    WEAK   DEFAULT    8 _ZN3rtc13scoped_refptrIN6webrtc20MediaStreamInterfaceEEaSEPS2_
  1456: 002e2c09    28 FUNC    GLOBAL DEFAULT    8 _ZN9twiliosdk22TSCSessionMediaContext24createAudioTrackExternalEb
  1457: 002e2c25    20 FUNC    GLOBAL DEFAULT    8 _ZN9twiliosdk22TSCSessionMediaContext24removeAudioTrackExternalEv
  1458: 002e2c39    34 FUNC    GLOBAL DEFAULT    8 _ZN9twiliosdk22TSCSessionMediaContext24createVideoTrackExternalEbPKN3rtc16RefCountedObjectINS_14TSCConstraintsEEE
  1459: 002e2c5d    22 FUNC    GLOBAL DEFAULT    8 _ZN9twiliosdk22TSCSessionMediaContext24removeVideoTrackExternalEv
  1460: 002e9419    24 FUNC    WEAK   DEFAULT    8 _ZNK3rtc13scoped_refptrIN6webrtc19AudioTrackInterfaceEE3getEv
  1461: 002e9461    24 FUNC    WEAK   DEFAULT    8 _ZNK3rtc13scoped_refptrIN6webrtc20AudioSourceInterfaceEEcvPS2_Ev
  1462: 002e9479    24 FUNC    WEAK   DEFAULT    8 _ZNK3rtc13scoped_refptrIN6webrtc19AudioTrackInterfaceEEptEv
  1463: 002e9491    24 FUNC    WEAK   DEFAULT    8 _ZNK3rtc13scoped_refptrIN6webrtc20MediaStreamInterfaceEEptEv
  1464: 002e94a9    24 FUNC    WEAK   DEFAULT    8 _ZNK3rtc13scoped_refptrIN6webrtc19AudioTrackInterfaceEEcvPS2_Ev
  1465: 003c1425   532 FUNC    GLOBAL DEFAULT    8 _ZN9twiliosdk21TSCMediaTrackObserverC1EPNS_10TSCSessionERNSt3__13mapINS3_12basic_stringIcNS3_11char_traitsIcEENS3_9allocatorIcEEEESA_NS3_4lessISA_EENS8_INS3_4pairIKSA_SA_EEEEEEPN6webrtc25MediaStreamTrackInterfaceE
  1466: 002e94c1    26 FUNC    WEAK   DEFAULT    8 _ZN3rtc10scoped_ptrIN9twiliosdk21TSCMediaTrackObserverENS_14DefaultDeleterIS2_EEE5resetEPS2_
  1467: 002e9431    46 FUNC    WEAK   DEFAULT    8 _ZN3rtc13scoped_refptrIN6webrtc20AudioSourceInterfaceEED1Ev
  1468: 002e94dd    24 FUNC    WEAK   DEFAULT    8 _ZNK3rtc13scoped_refptrIN6webrtc19VideoTrackInterfaceEE3getEv
  1469: 002e94f5    24 FUNC    WEAK   DEFAULT    8 _ZNK3rtc13scoped_refptrIN6webrtc20VideoSourceInterfaceEEcvPS2_Ev
  1470: 002e950d    24 FUNC    WEAK   DEFAULT    8 _ZNK3rtc13scoped_refptrIN6webrtc19VideoTrackInterfaceEEptEv
  1471: 002e9525    24 FUNC    WEAK   DEFAULT    8 _ZNK3rtc13scoped_refptrIN6webrtc19VideoTrackInterfaceEEcvPS2_Ev
  1472: 00306581   242 FUNC    GLOBAL DEFAULT    8 _ZN9twiliosdk19TSCMediaStreamUtils20createVideoTrackInfoEyPN6webrtc20MediaStreamInterfaceEPNS1_19VideoTrackInterfaceERKNSt3__112basic_stringIcNS6_11char_traitsIcEENS6_9allocatorIcEEEENS_21_TSCMediaStreamOriginE
  1473: 002f6b29   416 FUNC    GLOBAL DEFAULT    8 _ZN9twiliosdk10TSCSession14notifyAddTrackEPN3rtc16RefCountedObjectINS_17TSCVideoTrackInfoEEEPN6webrtc19VideoTrackInterfaceE
  1474: 002e953d    28 FUNC    WEAK   DEFAULT    8 _ZN3rtc10scoped_ptrIN9twiliosdk21TSCMediaTrackObserverENS_14DefaultDeleterIS2_EEEaSEDn
  1475: 002f6cc9  2028 FUNC    GLOBAL DEFAULT    8 _ZN9twiliosdk10TSCSession17notifyRemoveTrackEPN3rtc16RefCountedObjectINS_17TSCVideoTrackInfoEEE
  1476: 002e7a5d    28 FUNC    WEAK   DEFAULT    8 _ZNSt3__16vectorIN3rtc13scoped_refptrIN6webrtc19AudioTrackInterfaceEEENS_9allocatorIS5_EEED2Ev
  1477: 002e7a5d    28 FUNC    WEAK   DEFAULT    8 _ZNSt3__16vectorIN3rtc13scoped_refptrIN6webrtc19AudioTrackInterfaceEEENS_9allocatorIS5_EEED1Ev
  1478: 002e7a79    28 FUNC    WEAK   DEFAULT    8 _ZNSt3__16vectorIN3rtc13scoped_refptrIN6webrtc19VideoTrackInterfaceEEENS_9allocatorIS5_EEED2Ev
  1479: 002e7a79    28 FUNC    WEAK   DEFAULT    8 _ZNSt3__16vectorIN3rtc13scoped_refptrIN6webrtc19VideoTrackInterfaceEEENS_9allocatorIS5_EEED1Ev
  1480: 002e35c1  2342 FUNC    GLOBAL DEFAULT    8 _ZNK9twiliosdk22TSCSessionMediaContext12isLocalTrackERKNSt3__112basic_stringIcNS1_11char_traitsIcEENS1_9allocatorIcEEEERyb
  1481: 002e3ee9    38 FUNC    GLOBAL DEFAULT    8 _ZNK9twiliosdk22TSCSessionMediaContext14isAudioEnabledEv
  1482: 002e3f11   132 FUNC    GLOBAL DEFAULT    8 _ZNK9twiliosdk22TSCSessionMediaContext12isAudioMutedEv
  1483: 002e9559    24 FUNC    WEAK   DEFAULT    8 _ZNK3rtc13scoped_refptrINS_16RefCountedObjectIN9twiliosdk26TSCSessionMediaConstraintsEEEEcvPS4_Ev
  1484: 002e9571    24 FUNC    WEAK   DEFAULT    8 _ZNK3rtc13scoped_refptrINS_16RefCountedObjectIN9twiliosdk26TSCSessionMediaConstraintsEEEEptEv
  1485: 002e3f95   104 FUNC    GLOBAL DEFAULT    8 _ZN9twiliosdk22TSCSessionMediaContext9muteAudioEv
  1486: 002e3ffd   110 FUNC    GLOBAL DEFAULT    8 _ZN9twiliosdk22TSCSessionMediaContext11unmuteAudioEv
  1487: 002e4145    38 FUNC    GLOBAL DEFAULT    8 _ZNK9twiliosdk22TSCSessionMediaContext14isVideoEnabledEv
  1488: 002e41f1    24 FUNC    GLOBAL DEFAULT    8 _ZNK9twiliosdk22TSCSessionMediaContext27getPeerConnectionContraintsEv
  1489: 002e4209    24 FUNC    GLOBAL DEFAULT    8 _ZNK9twiliosdk22TSCSessionMediaContext16getSdpContraintsEv
  1490: 002e4221    30 FUNC    GLOBAL DEFAULT    8 _ZNK9twiliosdk22TSCSessionMediaContext14getLocalStreamEv
  1491: 002e4241    24 FUNC    GLOBAL DEFAULT    8 _ZNK9twiliosdk22TSCSessionMediaContext23getAudioInputControllerEv
  1492: 002e4259    24 FUNC    GLOBAL DEFAULT    8 _ZNK9twiliosdk22TSCSessionMediaContext25getVideoCaptureControllerEv
  1493: 002e7a95   146 FUNC    WEAK   DEFAULT    8 _ZN6webrtc23PeerConnectionInterface9IceServerC2Ev
  1494: 002e7a95   146 FUNC    WEAK   DEFAULT    8 _ZN6webrtc23PeerConnectionInterface9IceServerC1Ev
  1495: 002ea431   226 FUNC    WEAK   DEFAULT    8 _ZNSt3__16vectorIN6webrtc23PeerConnectionInterface9IceServerENS_9allocatorIS3_EEE19__annotate_increaseEj
  1496: 00a95508     4 OBJECT  GLOBAL DEFAULT   18 _ZN9twiliosdk14kTSCStunURLKeyE
  1497: 00a9550c     4 OBJECT  GLOBAL DEFAULT   18 _ZN9twiliosdk14kTSCTurnURLKeyE
  1498: 00a954b8     4 OBJECT  GLOBAL DEFAULT   18 _ZN9twiliosdk15kTSCPasswordKeyE
  1499: 002e4895    24 FUNC    GLOBAL DEFAULT    8 _ZNK9twiliosdk22TSCSessionMediaContext10getOptionsEv
  1500: 002e48ad   150 FUNC    GLOBAL DEFAULT    8 _ZNK9twiliosdk22TSCSessionMediaContext20createPeerConnectionEPN6webrtc22PeerConnectionObserverE
  1501: 002e9589    32 FUNC    WEAK   DEFAULT    8 _ZN3rtc10scoped_ptrIN6webrtc26DtlsIdentityStoreInterfaceENS_14DefaultDeleterIS2_EEEC1EDn
  1502: 002e7b41    32 FUNC    WEAK   DEFAULT    8 _ZN3rtc10scoped_ptrIN6webrtc26DtlsIdentityStoreInterfaceENS_14DefaultDeleterIS2_EEEC2IS2_S4_EEONS0_IT_T0_EE
  1503: 002e9d19    48 FUNC    WEAK   DEFAULT    8 _ZN3rtc8internal15scoped_ptr_implIN6webrtc26DtlsIdentityStoreInterfaceENS_14DefaultDeleterIS3_EEEC1IS3_S5_EEPNS1_IT_T0_EE
  1504: 002e9d49    34 FUNC    WEAK   DEFAULT    8 _ZNK3rtc14DefaultDeleterIN6webrtc26DtlsIdentityStoreInterfaceEEclEPS2_
  1505: 002e7b61    38 FUNC    WEAK   DEFAULT    8 _ZN6webrtc25MediaConstraintsInterface10ConstraintD1Ev
  1506: 002e7b61    38 FUNC    WEAK   DEFAULT    8 _ZN6webrtc25MediaConstraintsInterface10ConstraintD2Ev
  1507: 002e9d6d   152 FUNC    WEAK   DEFAULT    8 _ZNSt3__16vectorINS_12basic_stringIcNS_11char_traitsIcEENS_9allocatorIcEEEENS4_IS6_EEE8allocateEj
  1508: 002e9e05   164 FUNC    WEAK   DEFAULT    8 _ZNSt3__16vectorINS_12basic_stringIcNS_11char_traitsIcEENS_9allocatorIcEEEENS4_IS6_EEE18__construct_at_endIPS6_EENS_9enable_ifIXsrNS_21__is_forward_iteratorIT_EE5valueEvE4typeESD_SD_
  1509: 002e7b89    22 FUNC    WEAK   DEFAULT    8 _ZNSt3__112__gcc_atomic14__gcc_atomic_tIbEC2Ev
  1510: 002e7ba1    28 FUNC    WEAK   DEFAULT    8 _ZN3rtc13scoped_refptrIN6webrtc30PeerConnectionFactoryInterfaceEEC2Ev
  1511: 002e7bbd    28 FUNC    WEAK   DEFAULT    8 _ZN3rtc13scoped_refptrIN6webrtc19AudioTrackInterfaceEEC2Ev
  1512: 002e7bd9    28 FUNC    WEAK   DEFAULT    8 _ZN3rtc13scoped_refptrIN6webrtc19VideoTrackInterfaceEEC2Ev
  1513: 002e7bf5    30 FUNC    WEAK   DEFAULT    8 _ZN3rtc10scoped_ptrIN9twiliosdk21TSCMediaTrackObserverENS_14DefaultDeleterIS2_EEEC2Ev
  1514: 002e9ea9    32 FUNC    WEAK   DEFAULT    8 _ZN3rtc8internal15scoped_ptr_implIN9twiliosdk21TSCMediaTrackObserverENS_14DefaultDeleterIS3_EEEC1EPS3_
  1515: 002e7c15    42 FUNC    WEAK   DEFAULT    8 _ZN3rtc8internal15scoped_ptr_implIN9twiliosdk21TSCMediaTrackObserverENS_14DefaultDeleterIS3_EEED2Ev
  1516: 002e9ec9    34 FUNC    WEAK   DEFAULT    8 _ZNK3rtc14DefaultDeleterIN9twiliosdk21TSCMediaTrackObserverEEclEPS2_
  1517: 002e7c41    28 FUNC    WEAK   DEFAULT    8 _ZN3rtc13scoped_refptrIN6webrtc20MediaStreamInterfaceEEC2Ev
  1518: 002ea919  1310 FUNC    WEAK   DEFAULT    8 _ZN6webrtc25MediaConstraintsInterface10ConstraintaSEOS1_
  1519: 002eae39   192 FUNC    WEAK   DEFAULT    8 _ZNSt3__16vectorIN6webrtc25MediaConstraintsInterface10ConstraintENS_9allocatorIS3_EEE17__annotate_shrinkEj
  1520: 002ea835   226 FUNC    WEAK   DEFAULT    8 _ZNSt3__16vectorIN6webrtc25MediaConstraintsInterface10ConstraintENS_9allocatorIS3_EEE19__annotate_increaseEj
  1521: 002ebec5    52 FUNC    WEAK   DEFAULT    8 _ZN6webrtc25MediaConstraintsInterface10ConstraintC1EOS1_
  1522: 002ec135    46 FUNC    WEAK   DEFAULT    8 _ZN3rtc13scoped_refptrIN9twiliosdk14ITSCVideoCodecEED1Ev
  1523: 002e91fd   192 FUNC    WEAK   DEFAULT    8 _ZNSt3__113__vector_baseIN3rtc13scoped_refptrIN9twiliosdk14ITSCVideoCodecEEENS_9allocatorIS5_EEED1Ev
  1524: 002e9431    46 FUNC    WEAK   DEFAULT    8 _ZN3rtc13scoped_refptrIN6webrtc20AudioSourceInterfaceEED2Ev
  1525: 002ea3cd   100 FUNC    WEAK   DEFAULT    8 _ZN3rtc8internal15scoped_ptr_implIN9twiliosdk21TSCMediaTrackObserverENS_14DefaultDeleterIS3_EEE5resetEPS3_
  1526: 002e9589    32 FUNC    WEAK   DEFAULT    8 _ZN3rtc10scoped_ptrIN6webrtc26DtlsIdentityStoreInterfaceENS_14DefaultDeleterIS2_EEEC2EDn
  1527: 002ea515    32 FUNC    WEAK   DEFAULT    8 _ZN3rtc8internal15scoped_ptr_implIN6webrtc26DtlsIdentityStoreInterfaceENS_14DefaultDeleterIS3_EEEC1EPS3_
  1528: 002e95a9   952 FUNC    WEAK   DEFAULT    8 _ZNSt3__16vectorINS_12basic_stringIcNS_11char_traitsIcEENS_9allocatorIcEEEENS4_IS6_EEE6assignIPS6_EENS_9enable_ifIXaasrNS_21__is_forward_iteratorIT_EE5valuesrNS_16is_constructibleIS6_JNS_15iterator_traitsISD_E9referenceEEEE5valueEvE4typeESD_SD_
  1529: 002eb699   192 FUNC    WEAK   DEFAULT    8 _ZNSt3__16vectorINS_12basic_stringIcNS_11char_traitsIcEENS_9allocatorIcEEEENS4_IS6_EEE17__annotate_shrinkEj
  1530: 002eb759   126 FUNC    WEAK   DEFAULT    8 _ZN6webrtc23PeerConnectionInterface9IceServeraSERKS1_
  1531: 002ea535   164 FUNC    WEAK   DEFAULT    8 _ZNSt3__16vectorIN6webrtc23PeerConnectionInterface9IceServerENS_9allocatorIS3_EEE18__construct_at_endIPS3_EENS_9enable_ifIXsrNS_21__is_forward_iteratorIT_EE5valueEvE4typeESB_SB_
  1532: 002eb7d9   192 FUNC    WEAK   DEFAULT    8 _ZNSt3__16vectorIN6webrtc23PeerConnectionInterface9IceServerENS_9allocatorIS3_EEE17__annotate_shrinkEj
  1533: 002ea5d9   354 FUNC    WEAK   DEFAULT    8 _ZNSt3__16vectorIN6webrtc23PeerConnectionInterface9IceServerENS_9allocatorIS3_EEE10deallocateEv
  1534: 002eb899   120 FUNC    WEAK   DEFAULT    8 _ZNKSt3__16vectorIN6webrtc23PeerConnectionInterface9IceServerENS_9allocatorIS3_EEE8max_sizeEv
  1535: 002ea73d   152 FUNC    WEAK   DEFAULT    8 _ZNSt3__16vectorIN6webrtc23PeerConnectionInterface9IceServerENS_9allocatorIS3_EEE8allocateEj
  1536: 002e9d19    48 FUNC    WEAK   DEFAULT    8 _ZN3rtc8internal15scoped_ptr_implIN6webrtc26DtlsIdentityStoreInterfaceENS_14DefaultDeleterIS3_EEEC2IS3_S5_EEPNS1_IT_T0_EE
  1537: 002ea7d5    34 FUNC    WEAK   DEFAULT    8 _ZN3rtc8internal15scoped_ptr_implIN6webrtc26DtlsIdentityStoreInterfaceENS_14DefaultDeleterIS3_EEE7releaseEv
  1538: 002ea7f9    22 FUNC    WEAK   DEFAULT    8 _ZN3rtc8internal15scoped_ptr_implIN6webrtc26DtlsIdentityStoreInterfaceENS_14DefaultDeleterIS3_EEE11get_deleterEv
  1539: 002ea811    34 FUNC    WEAK   DEFAULT    8 _ZN3rtc8internal15scoped_ptr_implIN6webrtc26DtlsIdentityStoreInterfaceENS_14DefaultDeleterIS3_EEE4DataC1EPS3_RKS5_
  1540: 002e9ea9    32 FUNC    WEAK   DEFAULT    8 _ZN3rtc8internal15scoped_ptr_implIN9twiliosdk21TSCMediaTrackObserverENS_14DefaultDeleterIS3_EEEC2EPS3_
  1541: 002eaef9    34 FUNC    WEAK   DEFAULT    8 _ZN3rtc8internal15scoped_ptr_implIN9twiliosdk21TSCMediaTrackObserverENS_14DefaultDeleterIS3_EEE4DataC1EPS3_
  1542: 002e9eed   624 FUNC    WEAK   DEFAULT    8 _ZNSt3__110shared_ptrIN9twiliosdk23TSCAudioInputControllerEEC2IS2_EEPT_NS_9enable_ifIXsrNS_14is_convertibleIS6_PS2_EE5valueENS3_5__natEE4typeE
  1543: 00a78618    28 OBJECT  WEAK   DEFAULT   14 _ZTVNSt3__120__shared_ptr_pointerIPN9twiliosdk23TSCAudioInputControllerENS_14default_deleteIS2_EENS_9allocatorIS2_EEEE
  1544: 002ea15d   624 FUNC    WEAK   DEFAULT    8 _ZNSt3__110shared_ptrIN9twiliosdk25TSCVideoCaptureControllerEEC2IS2_EEPT_NS_9enable_ifIXsrNS_14is_convertibleIS6_PS2_EE5valueENS3_5__natEE4typeE
  1545: 00a785f8    28 OBJECT  WEAK   DEFAULT   14 _ZTVNSt3__120__shared_ptr_pointerIPN9twiliosdk25TSCVideoCaptureControllerENS_14default_deleteIS2_EENS_9allocatorIS2_EEEE
  1546: 002eaf1d   918 FUNC    WEAK   DEFAULT    8 _ZNSt3__16__treeINS_12__value_typeINS_12basic_stringIcNS_11char_traitsIcEENS_9allocatorIcEEEES7_EENS_19__map_value_compareIS7_S8_NS_4lessIS7_EELb1EEENS5_IS8_EEE13__lower_boundIS7_EENS_15__tree_iteratorIS8_PNS_11__tree_nodeIS8_PvEEiEERKT_SK_SK_
  1547: 002eb2b5    24 FUNC    WEAK   DEFAULT    8 _ZNSt3__16vectorIN6webrtc23PeerConnectionInterface9IceServerENS_9allocatorIS3_EEE31__annotate_contiguous_containerEPKvS8_S8_S8_
  1548: 002eb2cd   214 FUNC    WEAK   DEFAULT    8 _ZNSt3__114__split_bufferIN6webrtc23PeerConnectionInterface9IceServerERNS_9allocatorIS3_EEEC1EjjS6_
  1549: 002eb48d   488 FUNC    WEAK   DEFAULT    8 _ZNSt3__16vectorIN6webrtc23PeerConnectionInterface9IceServerENS_9allocatorIS3_EEE26__swap_out_circular_bufferERNS_14__split_bufferIS3_RS5_EE
  1550: 002eb3a5   230 FUNC    WEAK   DEFAULT    8 _ZNSt3__114__split_bufferIN6webrtc23PeerConnectionInterface9IceServerERNS_9allocatorIS3_EEED1Ev
  1551: 002ea515    32 FUNC    WEAK   DEFAULT    8 _ZN3rtc8internal15scoped_ptr_implIN6webrtc26DtlsIdentityStoreInterfaceENS_14DefaultDeleterIS3_EEEC2EPS3_
  1552: 002eb675    34 FUNC    WEAK   DEFAULT    8 _ZN3rtc8internal15scoped_ptr_implIN6webrtc26DtlsIdentityStoreInterfaceENS_14DefaultDeleterIS3_EEE4DataC1EPS3_
  1553: 002eb911   210 FUNC    WEAK   DEFAULT    8 _ZNSt3__16vectorIN6webrtc23PeerConnectionInterface9IceServerENS_9allocatorIS3_EEE14__annotate_newEj
  1554: 002ea811    34 FUNC    WEAK   DEFAULT    8 _ZN3rtc8internal15scoped_ptr_implIN6webrtc26DtlsIdentityStoreInterfaceENS_14DefaultDeleterIS3_EEE4DataC2EPS3_RKS5_
  1555: 002eb9e5    24 FUNC    WEAK   DEFAULT    8 _ZNSt3__16vectorIN6webrtc25MediaConstraintsInterface10ConstraintENS_9allocatorIS3_EEE31__annotate_contiguous_containerEPKvS8_S8_S8_
  1556: 002ebef9   120 FUNC    WEAK   DEFAULT    8 _ZNKSt3__16vectorIN6webrtc25MediaConstraintsInterface10ConstraintENS_9allocatorIS3_EEE8max_sizeEv
  1557: 002eb9fd   214 FUNC    WEAK   DEFAULT    8 _ZNSt3__114__split_bufferIN6webrtc25MediaConstraintsInterface10ConstraintERNS_9allocatorIS3_EEEC1EjjS6_
  1558: 002ebbbd   488 FUNC    WEAK   DEFAULT    8 _ZNSt3__16vectorIN6webrtc25MediaConstraintsInterface10ConstraintENS_9allocatorIS3_EEE26__swap_out_circular_bufferERNS_14__split_bufferIS3_RS5_EE
  1559: 002ebad5   230 FUNC    WEAK   DEFAULT    8 _ZNSt3__114__split_bufferIN6webrtc25MediaConstraintsInterface10ConstraintERNS_9allocatorIS3_EEED1Ev
  1560: 002eaef9    34 FUNC    WEAK   DEFAULT    8 _ZN3rtc8internal15scoped_ptr_implIN9twiliosdk21TSCMediaTrackObserverENS_14DefaultDeleterIS3_EEE4DataC2EPS3_
  1561: 002ebda5    22 FUNC    WEAK   DEFAULT    8 _ZN3rtc14DefaultDeleterIN9twiliosdk21TSCMediaTrackObserverEEC2Ev
  1562: 002eb2cd   214 FUNC    WEAK   DEFAULT    8 _ZNSt3__114__split_bufferIN6webrtc23PeerConnectionInterface9IceServerERNS_9allocatorIS3_EEEC2EjjS6_
  1563: 002eb3a5   230 FUNC    WEAK   DEFAULT    8 _ZNSt3__114__split_bufferIN6webrtc23PeerConnectionInterface9IceServerERNS_9allocatorIS3_EEED2Ev
  1564: 002ebdbd   238 FUNC    WEAK   DEFAULT    8 _ZNSt3__16vectorIN6webrtc23PeerConnectionInterface9IceServerENS_9allocatorIS3_EEE17__annotate_deleteEv
  1565: 002eb675    34 FUNC    WEAK   DEFAULT    8 _ZN3rtc8internal15scoped_ptr_implIN6webrtc26DtlsIdentityStoreInterfaceENS_14DefaultDeleterIS3_EEE4DataC2EPS3_
  1566: 002ebead    22 FUNC    WEAK   DEFAULT    8 _ZN3rtc14DefaultDeleterIN6webrtc26DtlsIdentityStoreInterfaceEEC2Ev
  1567: 002eb9fd   214 FUNC    WEAK   DEFAULT    8 _ZNSt3__114__split_bufferIN6webrtc25MediaConstraintsInterface10ConstraintERNS_9allocatorIS3_EEEC2EjjS6_
  1568: 002ebad5   230 FUNC    WEAK   DEFAULT    8 _ZNSt3__114__split_bufferIN6webrtc25MediaConstraintsInterface10ConstraintERNS_9allocatorIS3_EEED2Ev
  1569: 002ebf71   238 FUNC    WEAK   DEFAULT    8 _ZNSt3__16vectorIN6webrtc25MediaConstraintsInterface10ConstraintENS_9allocatorIS3_EEE17__annotate_deleteEv
  1570: 002ec165    66 FUNC    WEAK   DEFAULT    8 _ZN6webrtc25MediaConstraintsInterface10ConstraintC1ERKS1_
  1571: 002ec061   210 FUNC    WEAK   DEFAULT    8 _ZNSt3__16vectorIN6webrtc25MediaConstraintsInterface10ConstraintENS_9allocatorIS3_EEE14__annotate_newEj
  1572: 002ebda5    22 FUNC    WEAK   DEFAULT    8 _ZN3rtc14DefaultDeleterIN9twiliosdk21TSCMediaTrackObserverEEC1Ev
  1573: 002ebead    22 FUNC    WEAK   DEFAULT    8 _ZN3rtc14DefaultDeleterIN6webrtc26DtlsIdentityStoreInterfaceEEC1Ev
  1574: 002ebec5    52 FUNC    WEAK   DEFAULT    8 _ZN6webrtc25MediaConstraintsInterface10ConstraintC2EOS1_
  1575: 002ec135    46 FUNC    WEAK   DEFAULT    8 _ZN3rtc13scoped_refptrIN9twiliosdk14ITSCVideoCodecEED2Ev
  1576: 002ec165    66 FUNC    WEAK   DEFAULT    8 _ZN6webrtc25MediaConstraintsInterface10ConstraintC2ERKS1_
  1577: 002ec1a9    64 FUNC    WEAK   DEFAULT    8 _ZNSt3__120__shared_ptr_pointerIPN9twiliosdk25TSCVideoCaptureControllerENS_14default_deleteIS2_EENS_9allocatorIS2_EEED1Ev
  1578: 002ec1e9    32 FUNC    WEAK   DEFAULT    8 _ZNSt3__120__shared_ptr_pointerIPN9twiliosdk25TSCVideoCaptureControllerENS_14default_deleteIS2_EENS_9allocatorIS2_EEED0Ev
  1579: 002ec269    96 FUNC    WEAK   DEFAULT    8 _ZNSt3__120__shared_ptr_pointerIPN9twiliosdk25TSCVideoCaptureControllerENS_14default_deleteIS2_EENS_9allocatorIS2_EEE16__on_zero_sharedEv
  1580: 002ec2c9    52 FUNC    WEAK   DEFAULT    8 _ZNSt3__120__shared_ptr_pointerIPN9twiliosdk25TSCVideoCaptureControllerENS_14default_deleteIS2_EENS_9allocatorIS2_EEE21__on_zero_shared_weakEv
  1581: 002ec1a9    64 FUNC    WEAK   DEFAULT    8 _ZNSt3__120__shared_ptr_pointerIPN9twiliosdk25TSCVideoCaptureControllerENS_14default_deleteIS2_EENS_9allocatorIS2_EEED2Ev
  1582: 002ec209    64 FUNC    WEAK   DEFAULT    8 _ZNSt3__120__shared_ptr_pointerIPN9twiliosdk23TSCAudioInputControllerENS_14default_deleteIS2_EENS_9allocatorIS2_EEED1Ev
  1583: 002ec249    32 FUNC    WEAK   DEFAULT    8 _ZNSt3__120__shared_ptr_pointerIPN9twiliosdk23TSCAudioInputControllerENS_14default_deleteIS2_EENS_9allocatorIS2_EEED0Ev
  1584: 002ec2fd    96 FUNC    WEAK   DEFAULT    8 _ZNSt3__120__shared_ptr_pointerIPN9twiliosdk23TSCAudioInputControllerENS_14default_deleteIS2_EENS_9allocatorIS2_EEE16__on_zero_sharedEv
  1585: 002ec35d    52 FUNC    WEAK   DEFAULT    8 _ZNSt3__120__shared_ptr_pointerIPN9twiliosdk23TSCAudioInputControllerENS_14default_deleteIS2_EENS_9allocatorIS2_EEE21__on_zero_shared_weakEv
  1586: 002ec209    64 FUNC    WEAK   DEFAULT    8 _ZNSt3__120__shared_ptr_pointerIPN9twiliosdk23TSCAudioInputControllerENS_14default_deleteIS2_EENS_9allocatorIS2_EEED2Ev
  1587: 002ec391   108 FUNC    GLOBAL DEFAULT    8 _ZN9twiliosdk21TSCMediaTrackIdentityC2EyyRKNSt3__112basic_stringIcNS1_11char_traitsIcEENS1_9allocatorIcEEEENS_21_TSCMediaStreamOriginE
  1588: 00a78690    16 OBJECT  GLOBAL DEFAULT   14 _ZTVN9twiliosdk21TSCMediaTrackIdentityE
  1589: 002ec391   108 FUNC    GLOBAL DEFAULT    8 _ZN9twiliosdk21TSCMediaTrackIdentityC1EyyRKNSt3__112basic_stringIcNS1_11char_traitsIcEENS1_9allocatorIcEEEENS_21_TSCMediaStreamOriginE
  1590: 002ec3fd    64 FUNC    GLOBAL DEFAULT    8 _ZN9twiliosdk21TSCMediaTrackIdentityD2Ev
  1591: 002ec3fd    64 FUNC    GLOBAL DEFAULT    8 _ZN9twiliosdk21TSCMediaTrackIdentityD1Ev
  1592: 002ec43d    32 FUNC    GLOBAL DEFAULT    8 _ZN9twiliosdk21TSCMediaTrackIdentityD0Ev
  1593: 002ec45d   136 FUNC    GLOBAL DEFAULT    8 _ZN9twiliosdk21TSCMediaTrackIdentityC2ERKS0_
  1594: 002ec545    28 FUNC    GLOBAL DEFAULT    8 _ZNK9twiliosdk21TSCMediaTrackIdentity12getSessionIdEv
  1595: 002ec561    28 FUNC    GLOBAL DEFAULT    8 _ZNK9twiliosdk21TSCMediaTrackIdentity11getStreamIdEv
  1596: 002ec57d    24 FUNC    GLOBAL DEFAULT    8 _ZNK9twiliosdk21TSCMediaTrackIdentity10getTrackIdEv
  1597: 002ec595    24 FUNC    GLOBAL DEFAULT    8 _ZNK9twiliosdk21TSCMediaTrackIdentity15getStreamOriginEv
  1598: 002ec45d   136 FUNC    GLOBAL DEFAULT    8 _ZN9twiliosdk21TSCMediaTrackIdentityC1ERKS0_
  1599: 002ec4e5    94 FUNC    GLOBAL DEFAULT    8 _ZN9twiliosdk21TSCMediaTrackIdentityaSERKS0_
  1600: 002ec5ad   108 FUNC    GLOBAL DEFAULT    8 _ZN9twiliosdk17TSCMediaTrackInfoC2ERKNS_21TSCMediaTrackIdentityERKNSt3__112basic_stringIcNS4_11char_traitsIcEENS4_9allocatorIcEEEE
  1601: 00a78680    16 OBJECT  GLOBAL DEFAULT   14 _ZTVN9twiliosdk17TSCMediaTrackInfoE
  1602: 002ec5ad   108 FUNC    GLOBAL DEFAULT    8 _ZN9twiliosdk17TSCMediaTrackInfoC1ERKNS_21TSCMediaTrackIdentityERKNSt3__112basic_stringIcNS4_11char_traitsIcEENS4_9allocatorIcEEEE
  1603: 002ec619    76 FUNC    GLOBAL DEFAULT    8 _ZN9twiliosdk17TSCMediaTrackInfoD2Ev
  1604: 002ec619    76 FUNC    GLOBAL DEFAULT    8 _ZN9twiliosdk17TSCMediaTrackInfoD1Ev
  1605: 002ec665    32 FUNC    GLOBAL DEFAULT    8 _ZN9twiliosdk17TSCMediaTrackInfoD0Ev
  1606: 002ec685   132 FUNC    GLOBAL DEFAULT    8 _ZN9twiliosdk17TSCMediaTrackInfoC2ERKS0_
  1607: 002ec751    24 FUNC    GLOBAL DEFAULT    8 _ZNK9twiliosdk17TSCMediaTrackInfo11getIdentityEv
  1608: 002ec685   132 FUNC    GLOBAL DEFAULT    8 _ZN9twiliosdk17TSCMediaTrackInfoC1ERKS0_
  1609: 002ec709    72 FUNC    GLOBAL DEFAULT    8 _ZN9twiliosdk17TSCMediaTrackInfoaSERKS0_
  1610: 002ec769    34 FUNC    GLOBAL DEFAULT    8 _ZNK9twiliosdk17TSCMediaTrackInfo12getSessionIdEv
  1611: 002ec78d    34 FUNC    GLOBAL DEFAULT    8 _ZNK9twiliosdk17TSCMediaTrackInfo11getStreamIdEv
  1612: 002ec809    56 FUNC    GLOBAL DEFAULT    8 _ZN9twiliosdk17TSCVideoTrackInfoC2ERKNS_21TSCMediaTrackIdentityERKNSt3__112basic_stringIcNS4_11char_traitsIcEENS4_9allocatorIcEEEE
  1613: 00a78670    16 OBJECT  GLOBAL DEFAULT   14 _ZTVN9twiliosdk17TSCVideoTrackInfoE
  1614: 002ec809    56 FUNC    GLOBAL DEFAULT    8 _ZN9twiliosdk17TSCVideoTrackInfoC1ERKNS_21TSCMediaTrackIdentityERKNSt3__112basic_stringIcNS4_11char_traitsIcEENS4_9allocatorIcEEEE
  1615: 002ec841    64 FUNC    GLOBAL DEFAULT    8 _ZN9twiliosdk17TSCVideoTrackInfoD2Ev
  1616: 002ec841    64 FUNC    GLOBAL DEFAULT    8 _ZN9twiliosdk17TSCVideoTrackInfoD1Ev
  1617: 002ec881    32 FUNC    GLOBAL DEFAULT    8 _ZN9twiliosdk17TSCVideoTrackInfoD0Ev
  1618: 002ec8a1    56 FUNC    GLOBAL DEFAULT    8 _ZN9twiliosdk17TSCVideoTrackInfoC2ERKS0_
  1619: 002ec8a1    56 FUNC    GLOBAL DEFAULT    8 _ZN9twiliosdk17TSCVideoTrackInfoC1ERKS0_
  1620: 002ec8d9    32 FUNC    GLOBAL DEFAULT    8 _ZN9twiliosdk17TSCVideoTrackInfoaSERKS0_
  1621: 002ec8f9    56 FUNC    GLOBAL DEFAULT    8 _ZN9twiliosdk17TSCAudioTrackInfoC2ERKNS_21TSCMediaTrackIdentityERKNSt3__112basic_stringIcNS4_11char_traitsIcEENS4_9allocatorIcEEEE
  1622: 00a78660    16 OBJECT  GLOBAL DEFAULT   14 _ZTVN9twiliosdk17TSCAudioTrackInfoE
  1623: 002ec8f9    56 FUNC    GLOBAL DEFAULT    8 _ZN9twiliosdk17TSCAudioTrackInfoC1ERKNS_21TSCMediaTrackIdentityERKNSt3__112basic_stringIcNS4_11char_traitsIcEENS4_9allocatorIcEEEE
  1624: 002ec931    64 FUNC    GLOBAL DEFAULT    8 _ZN9twiliosdk17TSCAudioTrackInfoD2Ev
  1625: 002ec931    64 FUNC    GLOBAL DEFAULT    8 _ZN9twiliosdk17TSCAudioTrackInfoD1Ev
  1626: 002ec971    32 FUNC    GLOBAL DEFAULT    8 _ZN9twiliosdk17TSCAudioTrackInfoD0Ev
  1627: 002ec991    56 FUNC    GLOBAL DEFAULT    8 _ZN9twiliosdk17TSCAudioTrackInfoC2ERKS0_
  1628: 002ec991    56 FUNC    GLOBAL DEFAULT    8 _ZN9twiliosdk17TSCAudioTrackInfoC1ERKS0_
  1629: 002ec9c9    32 FUNC    GLOBAL DEFAULT    8 _ZN9twiliosdk17TSCAudioTrackInfoaSERKS0_
  1630: 00a786a0    12 OBJECT  GLOBAL DEFAULT   14 _ZTIN9twiliosdk17TSCAudioTrackInfoE
  1631: 00a786ac    12 OBJECT  GLOBAL DEFAULT   14 _ZTIN9twiliosdk17TSCVideoTrackInfoE
  1632: 00a786b8     8 OBJECT  GLOBAL DEFAULT   14 _ZTIN9twiliosdk17TSCMediaTrackInfoE
  1633: 00a786c0     8 OBJECT  GLOBAL DEFAULT   14 _ZTIN9twiliosdk21TSCMediaTrackIdentityE
  1634: 009a1cb8    32 OBJECT  GLOBAL DEFAULT   11 _ZTSN9twiliosdk17TSCAudioTrackInfoE
  1635: 009a1cd8    32 OBJECT  GLOBAL DEFAULT   11 _ZTSN9twiliosdk17TSCVideoTrackInfoE
  1636: 009a1cf8    32 OBJECT  GLOBAL DEFAULT   11 _ZTSN9twiliosdk17TSCMediaTrackInfoE
  1637: 009a1d18    36 OBJECT  GLOBAL DEFAULT   11 _ZTSN9twiliosdk21TSCMediaTrackIdentityE
  1638: 002ec9e9    72 FUNC    GLOBAL DEFAULT    8 _ZN9twiliosdk23TSCAudioInputControllerC2EPNS_22TSCSessionMediaContextE
  1639: 00a78708    16 OBJECT  GLOBAL DEFAULT   14 _ZTVN9twiliosdk23TSCAudioInputControllerE
  1640: 002eca31    72 FUNC    GLOBAL DEFAULT    8 _ZN9twiliosdk23TSCAudioInputControllerD2Ev
  1641: 002ef215    38 FUNC    WEAK   DEFAULT    8 _ZNSt3__110shared_ptrIN9twiliosdk31TSCAudioInputControllerObserverEED1Ev
  1642: 002eca31    72 FUNC    GLOBAL DEFAULT    8 _ZN9twiliosdk23TSCAudioInputControllerD1Ev
  1643: 002eca79    32 FUNC    GLOBAL DEFAULT    8 _ZN9twiliosdk23TSCAudioInputControllerD0Ev
  1644: 002eca99   158 FUNC    GLOBAL DEFAULT    8 _ZN9twiliosdk23TSCAudioInputController11setObserverERNSt3__110shared_ptrINS_31TSCAudioInputControllerObserverEEE
  1645: 002ef23d    44 FUNC    WEAK   DEFAULT    8 _ZN3rtc4BindIN9twiliosdk31TSCAudioInputControllerObserverEvbEENS_14MethodFunctor1IT_MS4_FT0_T1_ES5_S6_EES8_PS4_NS_6detail8identityIS6_E4typeE
  1646: 002ef269    94 FUNC    WEAK   DEFAULT    8 _ZN9twiliosdk6TSCSDK8doNotifyIN3rtc14MethodFunctor1INS_31TSCAudioInputControllerObserverEMS4_FvbEvbEEEEvRKT_
  1647: 003f7599    34 FUNC    GLOBAL DEFAULT    8 _ZN9twiliosdk31TSCAudioInputControllerObserver7onMutedEb
  1648: 002ef215    38 FUNC    WEAK   DEFAULT    8 _ZNSt3__110shared_ptrIN9twiliosdk31TSCAudioInputControllerObserverEED2Ev
  1649: 002ef2c9    58 FUNC    WEAK   DEFAULT    8 _ZN3rtc14MethodFunctor1IN9twiliosdk31TSCAudioInputControllerObserverEMS2_FvbEvbEC1ES4_PS2_b
  1650: 002ef305   120 FUNC    WEAK   DEFAULT    8 _ZN3rtc12AsyncInvoker11AsyncInvokeIvNS_14MethodFunctor1IN9twiliosdk31TSCAudioInputControllerObserverEMS4_FvbEvbEEEEvPNS_6ThreadERKT0_j
  1651: 002ef2c9    58 FUNC    WEAK   DEFAULT    8 _ZN3rtc14MethodFunctor1IN9twiliosdk31TSCAudioInputControllerObserverEMS2_FvbEvbEC2ES4_PS2_b
  1652: 002ef3dd    76 FUNC    WEAK   DEFAULT    8 _ZN3rtc16RefCountedObjectINS_25FireAndForgetAsyncClosureINS_14MethodFunctor1IN9twiliosdk31TSCAudioInputControllerObserverEMS4_FvbEvbEEEEEC1IS7_EET_
  1653: 002ef37d    64 FUNC    WEAK   DEFAULT    8 _ZN3rtc25FireAndForgetAsyncClosureINS_14MethodFunctor1IN9twiliosdk31TSCAudioInputControllerObserverEMS3_FvbEvbEEED2Ev
  1654: 00a786e8    28 OBJECT  WEAK   DEFAULT   14 _ZTVN3rtc25FireAndForgetAsyncClosureINS_14MethodFunctor1IN9twiliosdk31TSCAudioInputControllerObserverEMS3_FvbEvbEEEE
  1655: 002ef37d    64 FUNC    WEAK   DEFAULT    8 _ZN3rtc25FireAndForgetAsyncClosureINS_14MethodFunctor1IN9twiliosdk31TSCAudioInputControllerObserverEMS3_FvbEvbEEED1Ev
  1656: 002ef3bd    32 FUNC    WEAK   DEFAULT    8 _ZN3rtc25FireAndForgetAsyncClosureINS_14MethodFunctor1IN9twiliosdk31TSCAudioInputControllerObserverEMS3_FvbEvbEEED0Ev
  1657: 002ef3dd    76 FUNC    WEAK   DEFAULT    8 _ZN3rtc16RefCountedObjectINS_25FireAndForgetAsyncClosureINS_14MethodFunctor1IN9twiliosdk31TSCAudioInputControllerObserverEMS4_FvbEvbEEEEEC2IS7_EET_
  1658: 002ef429    68 FUNC    WEAK   DEFAULT    8 _ZN3rtc25FireAndForgetAsyncClosureINS_14MethodFunctor1IN9twiliosdk31TSCAudioInputControllerObserverEMS3_FvbEvbEEEC2ERKS6_
  1659: 00a786c8    32 OBJECT  WEAK   DEFAULT   14 _ZTVN3rtc16RefCountedObjectINS_25FireAndForgetAsyncClosureINS_14MethodFunctor1IN9twiliosdk31TSCAudioInputControllerObserverEMS4_FvbEvbEEEEEE
  1660: 002ef429    68 FUNC    WEAK   DEFAULT    8 _ZN3rtc25FireAndForgetAsyncClosureINS_14MethodFunctor1IN9twiliosdk31TSCAudioInputControllerObserverEMS3_FvbEvbEEEC1ERKS6_
  1661: 00a78720    12 OBJECT  WEAK   DEFAULT   14 _ZTIN3rtc16RefCountedObjectINS_25FireAndForgetAsyncClosureINS_14MethodFunctor1IN9twiliosdk31TSCAudioInputControllerObserverEMS4_FvbEvbEEEEEE
  1662: 002ef46d    30 FUNC    WEAK   DEFAULT    8 _ZNK3rtc16RefCountedObjectINS_25FireAndForgetAsyncClosureINS_14MethodFunctor1IN9twiliosdk31TSCAudioInputControllerObserverEMS4_FvbEvbEEEEE6AddRefEv
  1663: 002ef48d    56 FUNC    WEAK   DEFAULT    8 _ZNK3rtc16RefCountedObjectINS_25FireAndForgetAsyncClosureINS_14MethodFunctor1IN9twiliosdk31TSCAudioInputControllerObserverEMS4_FvbEvbEEEEE7ReleaseEv
  1664: 002ef4c5    64 FUNC    WEAK   DEFAULT    8 _ZN3rtc16RefCountedObjectINS_25FireAndForgetAsyncClosureINS_14MethodFunctor1IN9twiliosdk31TSCAudioInputControllerObserverEMS4_FvbEvbEEEEED1Ev
  1665: 002ef505    32 FUNC    WEAK   DEFAULT    8 _ZN3rtc16RefCountedObjectINS_25FireAndForgetAsyncClosureINS_14MethodFunctor1IN9twiliosdk31TSCAudioInputControllerObserverEMS4_FvbEvbEEEEED0Ev
  1666: 002ef525    24 FUNC    WEAK   DEFAULT    8 _ZN3rtc25FireAndForgetAsyncClosureINS_14MethodFunctor1IN9twiliosdk31TSCAudioInputControllerObserverEMS3_FvbEvbEEE7ExecuteEv
  1667: 002ef53d    38 FUNC    WEAK   DEFAULT    8 _ZNK3rtc16RefCountedObjectINS_25FireAndForgetAsyncClosureINS_14MethodFunctor1IN9twiliosdk31TSCAudioInputControllerObserverEMS4_FvbEvbEEEEE9HasOneRefEv
  1668: 00a7872c    12 OBJECT  WEAK   DEFAULT   14 _ZTIN3rtc25FireAndForgetAsyncClosureINS_14MethodFunctor1IN9twiliosdk31TSCAudioInputControllerObserverEMS3_FvbEvbEEEE
  1669: 00a78718     8 OBJECT  GLOBAL DEFAULT   14 _ZTIN9twiliosdk23TSCAudioInputControllerE
  1670: 009a2100   137 OBJECT  WEAK   DEFAULT   11 _ZTSN3rtc16RefCountedObjectINS_25FireAndForgetAsyncClosureINS_14MethodFunctor1IN9twiliosdk31TSCAudioInputControllerObserverEMS4_FvbEvbEEEEEE
  1671: 009a218c   113 OBJECT  WEAK   DEFAULT   11 _ZTSN3rtc25FireAndForgetAsyncClosureINS_14MethodFunctor1IN9twiliosdk31TSCAudioInputControllerObserverEMS3_FvbEvbEEEE
  1672: 009a1f3c    38 OBJECT  GLOBAL DEFAULT   11 _ZTSN9twiliosdk23TSCAudioInputControllerE
  1673: 002ef4c5    64 FUNC    WEAK   DEFAULT    8 _ZN3rtc16RefCountedObjectINS_25FireAndForgetAsyncClosureINS_14MethodFunctor1IN9twiliosdk31TSCAudioInputControllerObserverEMS4_FvbEvbEEEEED2Ev
  1674: 002ef565    78 FUNC    WEAK   DEFAULT    8 _ZNK3rtc14MethodFunctor1IN9twiliosdk31TSCAudioInputControllerObserverEMS2_FvbEvbEclEv
  1675: 002fdb41   116 FUNC    WEAK   DEFAULT    8 _ZNK9twiliosdk19CallStateChangeInfo10hasCallSidEv
  1676: 002fdbb5    24 FUNC    WEAK   DEFAULT    8 _ZNK9twiliosdk19CallStateChangeInfo13getStatusCodeEv
  1677: 002fdbcd    32 FUNC    WEAK   DEFAULT    8 _ZNK9twiliosdk19CallStateChangeInfo9getReasonEv
  1678: 002fdbed   368 FUNC    WEAK   DEFAULT    8 _ZN9twiliosdk14TSCConstraints23defaultVideoConstraintsEv
  1679: 002fe145    56 FUNC    WEAK   DEFAULT    8 _ZN3rtc16RefCountedObjectIN9twiliosdk14TSCConstraintsEEC1Ev
  1680: 002fe17d    52 FUNC    WEAK   DEFAULT    8 _ZN3rtc13scoped_refptrINS_16RefCountedObjectIN9twiliosdk14TSCConstraintsEEEEC1EPS4_
  1681: 002fe1e1    24 FUNC    WEAK   DEFAULT    8 _ZNK3rtc13scoped_refptrINS_16RefCountedObjectIN9twiliosdk14TSCConstraintsEEEEptEv
  1682: 002fe1f9  2700 FUNC    WEAK   DEFAULT    8 _ZN9twiliosdk14TSCConstraints12SetMandatoryIiEEvRKNSt3__112basic_stringIcNS2_11char_traitsIcEENS2_9allocatorIcEEEERKT_
  1683: 002fe1b1    46 FUNC    WEAK   DEFAULT    8 _ZN3rtc13scoped_refptrINS_16RefCountedObjectIN9twiliosdk14TSCConstraintsEEEED1Ev
  1684: 002fdd5d    24 FUNC    WEAK   DEFAULT    8 _ZN9twiliosdk22TSCSessionMediaContext12clearSessionEv
  1685: 002fdd75    24 FUNC    WEAK   DEFAULT    8 _ZNK9twiliosdk24TSCParticipantConnection7getCallEv
  1686: 002fdd8d    26 FUNC    WEAK   DEFAULT    8 _ZNK9twiliosdk24TSCParticipantConnection17getConnectionTypeEv
  1687: 002fdda9    28 FUNC    WEAK   DEFAULT    8 _ZNK9twiliosdk24TSCParticipantConnection9isStoppedEv
  1688: 002fddc5    56 FUNC    WEAK   DEFAULT    8 _ZN9twiliosdk32TSCParticipantConnectionObserverD2Ev
  1689: 00a78c10    52 OBJECT  WEAK   DEFAULT   14 _ZTVN9twiliosdk32TSCParticipantConnectionObserverE
  1690: 002fddc5    56 FUNC    WEAK   DEFAULT    8 _ZN9twiliosdk32TSCParticipantConnectionObserverD1Ev
  1691: 002fddfd    32 FUNC    WEAK   DEFAULT    8 _ZN9twiliosdk32TSCParticipantConnectionObserverD0Ev
  1692: 002fde1d    56 FUNC    WEAK   DEFAULT    8 _ZN9twiliosdk32TSCSessionStatisticsDataProviderD2Ev
  1693: 00a78bf8    20 OBJECT  WEAK   DEFAULT   14 _ZTVN9twiliosdk32TSCSessionStatisticsDataProviderE
  1694: 002fde1d    56 FUNC    WEAK   DEFAULT    8 _ZN9twiliosdk32TSCSessionStatisticsDataProviderD1Ev
  1695: 002fde55    32 FUNC    WEAK   DEFAULT    8 _ZN9twiliosdk32TSCSessionStatisticsDataProviderD0Ev
  1696: 002fde75    50 FUNC    WEAK   DEFAULT    8 _ZN9twiliosdk17TSCSIPCallContextC2Eiy
  1697: 002fde75    50 FUNC    WEAK   DEFAULT    8 _ZN9twiliosdk17TSCSIPCallContextC1Eiy
  1698: 002fdea9    48 FUNC    WEAK   DEFAULT    8 _ZN9twiliosdk32TSCParticipantConnectionObserverC2Ev
  1699: 002fdea9    48 FUNC    WEAK   DEFAULT    8 _ZN9twiliosdk32TSCParticipantConnectionObserverC1Ev
  1700: 002fded9    48 FUNC    WEAK   DEFAULT    8 _ZN9twiliosdk32TSCSessionStatisticsDataProviderC2Ev
  1701: 002fded9    48 FUNC    WEAK   DEFAULT    8 _ZN9twiliosdk32TSCSessionStatisticsDataProviderC1Ev
  1702: 002fdf09    28 FUNC    WEAK   DEFAULT    8 _ZNSt3__16vectorIN9twiliosdk17TSCVideoTrackInfoENS_9allocatorIS2_EEED2Ev
  1703: 002fec85   198 FUNC    WEAK   DEFAULT    8 _ZNSt3__113__vector_baseIN9twiliosdk17TSCVideoTrackInfoENS_9allocatorIS2_EEED2Ev
  1704: 002fdf09    28 FUNC    WEAK   DEFAULT    8 _ZNSt3__16vectorIN9twiliosdk17TSCVideoTrackInfoENS_9allocatorIS2_EEED1Ev
  1705: 002fdf25    28 FUNC    WEAK   DEFAULT    8 _ZNSt3__16vectorIN9twiliosdk17TSCAudioTrackInfoENS_9allocatorIS2_EEED2Ev
  1706: 002fed4d   198 FUNC    WEAK   DEFAULT    8 _ZNSt3__113__vector_baseIN9twiliosdk17TSCAudioTrackInfoENS_9allocatorIS2_EEED2Ev
  1707: 002fdf25    28 FUNC    WEAK   DEFAULT    8 _ZNSt3__16vectorIN9twiliosdk17TSCAudioTrackInfoENS_9allocatorIS2_EEED1Ev
  1708: 002fdf41    28 FUNC    WEAK   DEFAULT    8 _ZNSt3__16vectorIN3rtc13scoped_refptrIN9twiliosdk24TSCParticipantConnectionEEENS_9allocatorIS5_EEED2Ev
  1709: 002fee15   192 FUNC    WEAK   DEFAULT    8 _ZNSt3__113__vector_baseIN3rtc13scoped_refptrIN9twiliosdk24TSCParticipantConnectionEEENS_9allocatorIS5_EEED2Ev
  1710: 002fdf41    28 FUNC    WEAK   DEFAULT    8 _ZNSt3__16vectorIN3rtc13scoped_refptrIN9twiliosdk24TSCParticipantConnectionEEENS_9allocatorIS5_EEED1Ev
  1711: 002ef66d  1696 FUNC    GLOBAL DEFAULT    8 _ZN9twiliosdk10TSCSessionC2EPNS_11TSCEndpointEiRKNSt3__13mapINS3_12basic_stringIcNS3_11char_traitsIcEENS3_9allocatorIcEEEESA_NS3_4lessISA_EENS8_INS3_4pairIKSA_SA_EEEEEEyRSE_SK_
  1712: 002feed5    28 FUNC    WEAK   DEFAULT    8 _ZN3rtc13scoped_refptrINS_16RefCountedObjectIN9twiliosdk26TSCSessionMediaConstraintsEEEEC1Ev
  1713: 002f0021   820 FUNC    GLOBAL DEFAULT    8 _ZN9twiliosdk10TSCSession4initEiRKNSt3__13mapINS1_12basic_stringIcNS1_11char_traitsIcEENS1_9allocatorIcEEEES8_NS1_4lessIS8_EENS6_INS1_4pairIKS8_S8_EEEEEERKNS1_10shared_ptrINS_18TSCSessionObserverEEE
  1714: 002fef21    96 FUNC    WEAK   DEFAULT    8 _ZN3rtc16RefCountedObjectIN9twiliosdk24TSCParticipantConnectionEEC1IyNSt3__112basic_stringIcNS5_11char_traitsIcEENS5_9allocatorIcEEEESB_PNS1_17TSCSIPCallContextEPNS1_22TSCSessionMediaContextEPNS1_10TSCSessionEEET_T0_T1_T2_T3_T4_
  1715: 002fef81    50 FUNC    WEAK   DEFAULT    8 _ZN3rtc13scoped_refptrIN9twiliosdk24TSCParticipantConnectionEEC1EPS2_
  1716: 0030010d   166 FUNC    WEAK   DEFAULT    8 _ZNSt3__16vectorIN3rtc13scoped_refptrIN9twiliosdk24TSCParticipantConnectionEEENS_9allocatorIS5_EEE19__annotate_increaseEj
  1717: 0030074d    52 FUNC    WEAK   DEFAULT    8 _ZN3rtc13scoped_refptrIN9twiliosdk24TSCParticipantConnectionEEC1ERKS3_
  1718: 003001b5   458 FUNC    WEAK   DEFAULT    8 _ZNSt3__16vectorIN3rtc13scoped_refptrIN9twiliosdk24TSCParticipantConnectionEEENS_9allocatorIS5_EEE21__push_back_slow_pathIS5_EEvOT_
  1719: 002fefb5    46 FUNC    WEAK   DEFAULT    8 _ZN3rtc13scoped_refptrIN9twiliosdk24TSCParticipantConnectionEED1Ev
  1720: 002fefe5    24 FUNC    WEAK   DEFAULT    8 _ZNK3rtc13scoped_refptrIN9twiliosdk24TSCParticipantConnectionEEptEv
  1721: 003e8a59   124 FUNC    GLOBAL DEFAULT    8 _ZN9twiliosdk24TSCParticipantConnection7ringingEv
  1722: 002feef1    46 FUNC    WEAK   DEFAULT    8 _ZN3rtc13scoped_refptrINS_16RefCountedObjectIN9twiliosdk26TSCSessionMediaConstraintsEEEED1Ev
  1723: 00a78b80    84 OBJECT  GLOBAL DEFAULT   14 _ZTVN9twiliosdk10TSCSessionE
  1724: 002efd0d   788 FUNC    GLOBAL DEFAULT    8 _ZN9twiliosdk10TSCSessionC2EPNS_11TSCEndpointEiRKNSt3__13mapINS3_12basic_stringIcNS3_11char_traitsIcEENS3_9allocatorIcEEEESA_NS3_4lessISA_EENS8_INS3_4pairIKSA_SA_EEEEEERKNS3_10shared_ptrINS_18TSCSessionObserverEEE
  1725: 003ed80d  1488 FUNC    GLOBAL DEFAULT    8 _ZN9twiliosdk29TSCSessionStatisticsProcessorC1ERKNSt3__13mapINS1_12basic_stringIcNS1_11char_traitsIcEENS1_9allocatorIcEEEES8_NS1_4lessIS8_EENS6_INS1_4pairIKS8_S8_EEEEEE
  1726: 003ee369    48 FUNC    GLOBAL DEFAULT    8 _ZN9twiliosdk29TSCSessionStatisticsProcessor15setDataProviderEPNS_32TSCSessionStatisticsDataProviderE
  1727: 002f0355   776 FUNC    GLOBAL DEFAULT    8 _ZN9twiliosdk10TSCSessionD2Ev
  1728: 00300381   144 FUNC    WEAK   DEFAULT    8 _ZNSt3__16vectorIN3rtc13scoped_refptrIN9twiliosdk24TSCParticipantConnectionEEENS_9allocatorIS5_EEE17__annotate_shrinkEj
  1729: 002feffd    68 FUNC    WEAK   DEFAULT    8 _ZN3rtc13scoped_refptrINS_16RefCountedObjectIN9twiliosdk26TSCSessionMediaConstraintsEEEEaSEPS4_
  1730: 003ee399    40 FUNC    GLOBAL DEFAULT    8 _ZN9twiliosdk29TSCSessionStatisticsProcessor19setStatsAutoRefreshEb
  1731: 002f0355   776 FUNC    GLOBAL DEFAULT    8 _ZN9twiliosdk10TSCSessionD1Ev
  1732: 002f065d     6 FUNC    GLOBAL DEFAULT    8 _ZThn4_N9twiliosdk10TSCSessionD1Ev
  1733: 002f0665    32 FUNC    GLOBAL DEFAULT    8 _ZN9twiliosdk10TSCSessionD0Ev
  1734: 002f0685     6 FUNC    GLOBAL DEFAULT    8 _ZThn4_N9twiliosdk10TSCSessionD0Ev
  1735: 002ff041    80 FUNC    WEAK   DEFAULT    8 _ZN3rtc16RefCountedObjectIN9twiliosdk24TSCParticipantConnectionEEC1INSt3__112basic_stringIcNS5_11char_traitsIcEENS5_9allocatorIcEEEEPNS1_22TSCSessionMediaContextEPNS1_10TSCSessionEEET_T0_T1_
  1736: 003e7fa9    70 FUNC    GLOBAL DEFAULT    8 _ZN9twiliosdk24TSCParticipantConnection17getSignalingStateEv
  1737: 002ff091    24 FUNC    WEAK   DEFAULT    8 _ZNK3rtc13scoped_refptrINS_16RefCountedObjectIN9twiliosdk10TSCSIPCallEEEE3getEv
  1738: 003e6831    34 FUNC    GLOBAL DEFAULT    8 _ZN9twiliosdk10TSCSIPCall4xferERKNSt3__112basic_stringIcNS1_11char_traitsIcEENS1_9allocatorIcEEEE
  1739: 002fdf5d    28 FUNC    WEAK   DEFAULT    8 _ZNSt3__14pairINS_12basic_stringIcNS_11char_traitsIcEENS_9allocatorIcEEEEPKcED2Ev
  1740: 002fdf5d    28 FUNC    WEAK   DEFAULT    8 _ZNSt3__14pairINS_12basic_stringIcNS_11char_traitsIcEENS_9allocatorIcEEEEPKcED1Ev
  1741: 003e7f69    32 FUNC    GLOBAL DEFAULT    8 _ZNK9twiliosdk24TSCParticipantConnection14getParticipantEv
  1742: 003e7f89    32 FUNC    GLOBAL DEFAULT    8 _ZNK9twiliosdk24TSCParticipantConnection17getParticipantSidEv
  1743: 00300411   226 FUNC    WEAK   DEFAULT    8 _ZNSt3__16vectorINS_4pairINS_12basic_stringIcNS_11char_traitsIcEENS_9allocatorIcEEEES7_EENS5_IS8_EEE19__annotate_increaseEj
  1744: 003004f5   510 FUNC    WEAK   DEFAULT    8 _ZNSt3__16vectorINS_4pairINS_12basic_stringIcNS_11char_traitsIcEENS_9allocatorIcEEEES7_EENS5_IS8_EEE21__push_back_slow_pathIS8_EEvOT_
  1745: 002fdf79    40 FUNC    WEAK   DEFAULT    8 _ZN3rtc14MethodFunctor2IN9twiliosdk24TSCParticipantConnectionEMS2_FvPNS1_17TSCSIPCallContextERKNSt3__112basic_stringIcNS5_11char_traitsIcEENS5_9allocatorIcEEEEEvS4_SD_ED2Ev
  1746: 002fdf79    40 FUNC    WEAK   DEFAULT    8 _ZN3rtc14MethodFunctor2IN9twiliosdk24TSCParticipantConnectionEMS2_FvPNS1_17TSCSIPCallContextERKNSt3__112basic_stringIcNS5_11char_traitsIcEENS5_9allocatorIcEEEEEvS4_SD_ED1Ev
  1747: 002ff0a9    48 FUNC    WEAK   DEFAULT    8 _ZN3rtc4BindIN9twiliosdk24TSCParticipantConnectionEvPNS1_17TSCSIPCallContextERKNSt3__112basic_stringIcNS5_11char_traitsIcEENS5_9allocatorIcEEEEEENS_14MethodFunctor2IT_MSF_FT0_T1_T2_ESG_SH_SI_EESK_PSF_NS_6detail8identityISH_E4typeENSO_ISI_E4typeE
  1748: 002ff0d9    94 FUNC    WEAK   DEFAULT    8 _ZN9twiliosdk6TSCSDK6doWorkIN3rtc14MethodFunctor2INS_24TSCParticipantConnectionEMS4_FvPNS_17TSCSIPCallContextERKNSt3__112basic_stringIcNS7_11char_traitsIcEENS7_9allocatorIcEEEEEvS6_SF_EEEEvRKT_
  1749: 003e80d1  1820 FUNC    GLOBAL DEFAULT    8 _ZN9twiliosdk24TSCParticipantConnection5startEPNS_17TSCSIPCallContextERKNSt3__112basic_stringIcNS3_11char_traitsIcEENS3_9allocatorIcEEEE
  1750: 002f2215    96 FUNC    GLOBAL DEFAULT    8 _ZN9twiliosdk10TSCSession5startEv
  1751: 002ff139    50 FUNC    WEAK   DEFAULT    8 _ZN3rtc13scoped_refptrINS_16RefCountedObjectIN9twiliosdk26TSCSessionMediaConstraintsEEEEC1EPS4_
  1752: 002ff16d    24 FUNC    WEAK   DEFAULT    8 _ZNK3rtc13scoped_refptrINS_16RefCountedObjectIN9twiliosdk26TSCSessionMediaConstraintsEEEE3getEv
  1753: 002ff185    24 FUNC    WEAK   DEFAULT    8 _ZNK3rtc13scoped_refptrINS_16RefCountedObjectIN9twiliosdk14TSCConstraintsEEEE3getEv
  1754: 002f22c1   284 FUNC    GLOBAL DEFAULT    8 _ZN9twiliosdk10TSCSession5startEPKN3rtc16RefCountedObjectINS_26TSCSessionMediaConstraintsEEEPKNS2_INS_14TSCConstraintsEEE
  1755: 002fdfa1    48 FUNC    WEAK   DEFAULT    8 _ZN6webrtc25MediaConstraintsInterfaceC2ERKS0_
  1756: 002fdfa1    48 FUNC    WEAK   DEFAULT    8 _ZN6webrtc25MediaConstraintsInterfaceC1ERKS0_
  1757: 002fdfd1    34 FUNC    WEAK   DEFAULT    8 _ZN6webrtc25MediaConstraintsInterface11ConstraintsC2ERKS1_
  1758: 002ff19d   178 FUNC    WEAK   DEFAULT    8 _ZNSt3__16vectorIN6webrtc25MediaConstraintsInterface10ConstraintENS_9allocatorIS3_EEEC2ERKS6_
  1759: 002fdfd1    34 FUNC    WEAK   DEFAULT    8 _ZN6webrtc25MediaConstraintsInterface11ConstraintsC1ERKS1_
  1760: 002fdff5   116 FUNC    WEAK   DEFAULT    8 _ZN9twiliosdk14TSCConstraintsC2ERKS0_
  1761: 002fdff5   116 FUNC    WEAK   DEFAULT    8 _ZN9twiliosdk14TSCConstraintsC1ERKS0_
  1762: 002fe069    64 FUNC    WEAK   DEFAULT    8 _ZN3rtc16RefCountedObjectIN9twiliosdk14TSCConstraintsEEC2ERKS3_
  1763: 00a78c48    36 OBJECT  WEAK   DEFAULT   14 _ZTVN3rtc16RefCountedObjectIN9twiliosdk14TSCConstraintsEEE
  1764: 002fe069    64 FUNC    WEAK   DEFAULT    8 _ZN3rtc16RefCountedObjectIN9twiliosdk14TSCConstraintsEEC1ERKS3_
  1765: 002f4d69   136 FUNC    GLOBAL DEFAULT    8 _ZN9twiliosdk10TSCSession11changeStateENS_16_TSCSessionStateE
  1766: 002ff271    48 FUNC    WEAK   DEFAULT    8 _ZN3rtc4BindIN9twiliosdk10TSCSessionEvPNS_16RefCountedObjectINS1_26TSCSessionMediaConstraintsEEEPNS3_INS1_14TSCConstraintsEEEEENS_14MethodFunctor2IT_MSB_FT0_T1_T2_ESC_SD_SE_EESG_PSB_NS_6detail8identityISD_E4typeENSK_ISE_E4typeE
  1767: 002ff2a1    94 FUNC    WEAK   DEFAULT    8 _ZN9twiliosdk6TSCSDK6doWorkIN3rtc14MethodFunctor2INS_10TSCSessionEMS4_FvPNS2_16RefCountedObjectINS_26TSCSessionMediaConstraintsEEEPNS5_INS_14TSCConstraintsEEEEvS8_SB_EEEEvRKT_
  1768: 002f23dd  2360 FUNC    GLOBAL DEFAULT    8 _ZN9twiliosdk10TSCSession7doStartEPN3rtc16RefCountedObjectINS_26TSCSessionMediaConstraintsEEEPNS2_INS_14TSCConstraintsEEE
  1769: 002f2d15   336 FUNC    GLOBAL DEFAULT    8 _ZN9twiliosdk10TSCSession19notifyFailedToStartENS_16_TSCoreErrorCodeERKNSt3__112basic_stringIcNS2_11char_traitsIcEENS2_9allocatorIcEEEE
  1770: 003d7905    56 FUNC    GLOBAL DEFAULT    8 _ZN9twiliosdk11Resiprocate14getFullAddressEiRKNSt3__112basic_stringIcNS1_11char_traitsIcEENS1_9allocatorIcEEEE
  1771: 003e805d   114 FUNC    GLOBAL DEFAULT    8 _ZNK9twiliosdk24TSCParticipantConnection7isValidEb
  1772: 002fe0a9    30 FUNC    WEAK   DEFAULT    8 _ZN3rtc14MethodFunctor4IN9twiliosdk18TSCSessionObserverEMS2_FvPNS1_11TSCEndpointEPNS1_10TSCSessionENS1_16_TSCoreErrorCodeENSt3__112basic_stringIcNS8_11char_traitsIcEENS8_9allocatorIcEEEEEvS4_S6_S7_SE_ED2Ev
  1773: 002fe0a9    30 FUNC    WEAK   DEFAULT    8 _ZN3rtc14MethodFunctor4IN9twiliosdk18TSCSessionObserverEMS2_FvPNS1_11TSCEndpointEPNS1_10TSCSessionENS1_16_TSCoreErrorCodeENSt3__112basic_stringIcNS8_11char_traitsIcEENS8_9allocatorIcEEEEEvS4_S6_S7_SE_ED1Ev
  1774: 002f3091   748 FUNC    GLOBAL DEFAULT    8 _ZN9twiliosdk10TSCSession16stopMediaContextEb
  1775: 002ff339    96 FUNC    WEAK   DEFAULT    8 _ZN3rtc4BindIN9twiliosdk18TSCSessionObserverEvPNS1_11TSCEndpointEPNS1_10TSCSessionENS1_16_TSCoreErrorCodeENSt3__112basic_stringIcNS8_11char_traitsIcEENS8_9allocatorIcEEEEEENS_14MethodFunctor4IT_MSG_FT0_T1_T2_T3_T4_ESH_SI_SJ_SK_SL_EESN_PSG_NS_6detail8identityISI_E4typeENSR_ISJ_E4typeENSR_ISK_E4typeENSR_ISL_E4typeE
  1776: 002ff399    94 FUNC    WEAK   DEFAULT    8 _ZN9twiliosdk6TSCSDK8doNotifyIN3rtc14MethodFunctor4INS_18TSCSessionObserverEMS4_FvPNS_11TSCEndpointEPNS_10TSCSessionENS_16_TSCoreErrorCodeENSt3__112basic_stringIcNSA_11char_traitsIcEENSA_9allocatorIcEEEEEvS6_S8_S9_SG_EEEEvRKT_
  1777: 002f2e65   276 FUNC    GLOBAL DEFAULT    8 _ZN9twiliosdk10TSCSession13notifyStoppedEv
  1778: 002f337d   136 FUNC    GLOBAL DEFAULT    8 _ZN9twiliosdk10TSCSession6doStopEv
  1779: 003edf69    58 FUNC    GLOBAL DEFAULT    8 _ZN9twiliosdk29TSCSessionStatisticsProcessor4stopEv
  1780: 003e87ed   468 FUNC    GLOBAL DEFAULT    8 _ZN9twiliosdk24TSCParticipantConnection4stopEv
  1781: 003e89c1    76 FUNC    GLOBAL DEFAULT    8 _ZN9twiliosdk24TSCParticipantConnection6rejectEv
  1782: 003e8a0d    76 FUNC    GLOBAL DEFAULT    8 _ZN9twiliosdk24TSCParticipantConnection6ignoreEv
  1783: 002f358d   124 FUNC    GLOBAL DEFAULT    8 _ZN9twiliosdk10TSCSession7ringingEv
  1784: 002f3609   244 FUNC    GLOBAL DEFAULT    8 _ZNK9twiliosdk10TSCSession23renegotiateIsInProgressEv
  1785: 003ea2c9    42 FUNC    GLOBAL DEFAULT    8 _ZN9twiliosdk24TSCParticipantConnection23renegotiateIsInProgressEv
  1786: 002ff3f9    48 FUNC    WEAK   DEFAULT    8 _ZN3rtc4BindIN9twiliosdk10TSCSessionEvbbEENS_14MethodFunctor2IT_MS4_FT0_T1_T2_ES5_S6_S7_EES9_PS4_NS_6detail8identityIS6_E4typeENSD_IS7_E4typeE
  1787: 002ff429    94 FUNC    WEAK   DEFAULT    8 _ZN9twiliosdk6TSCSDK6doWorkIN3rtc14MethodFunctor2INS_10TSCSessionEMS4_FvbbEvbbEEEEvRKT_
  1788: 002f3a5d   274 FUNC    GLOBAL DEFAULT    8 _ZN9twiliosdk10TSCSession13doEnableAudioEbb
  1789: 003e8ad5   104 FUNC    GLOBAL DEFAULT    8 _ZN9twiliosdk24TSCParticipantConnection16renegotiateMediaEb
  1790: 002f3bd1   924 FUNC    GLOBAL DEFAULT    8 _ZN9twiliosdk10TSCSession11enableVideoEbbPKN3rtc16RefCountedObjectINS_14TSCConstraintsEEE
  1791: 002ff489    52 FUNC    WEAK   DEFAULT    8 _ZN3rtc4BindIN9twiliosdk10TSCSessionEvbbPNS_16RefCountedObjectINS1_14TSCConstraintsEEEEENS_14MethodFunctor3IT_MS8_FT0_T1_T2_T3_ES9_SA_SB_SC_EESE_PS8_NS_6detail8identityISA_E4typeENSI_ISB_E4typeENSI_ISC_E4typeE
  1792: 002ff4bd    94 FUNC    WEAK   DEFAULT    8 _ZN9twiliosdk6TSCSDK6doWorkIN3rtc14MethodFunctor3INS_10TSCSessionEMS4_FvbbPNS2_16RefCountedObjectINS_14TSCConstraintsEEEEvbbS8_EEEEvRKT_
  1793: 002f3f6d    70 FUNC    GLOBAL DEFAULT    8 _ZN9twiliosdk10TSCSession13doEnableVideoEbbPN3rtc16RefCountedObjectINS_14TSCConstraintsEEE
  1794: 002f40f5   284 FUNC    GLOBAL DEFAULT    8 _ZN9twiliosdk10TSCSession13doRenegotiateEv
  1795: 002f4361    34 FUNC    GLOBAL DEFAULT    8 _ZN9twiliosdk10TSCSession19setStatsAutoRefreshEb
  1796: 002f4385    30 FUNC    GLOBAL DEFAULT    8 _ZNK9twiliosdk10TSCSession25isStatsAutoRefreshEnabledEv
  1797: 003ee3c1    36 FUNC    GLOBAL DEFAULT    8 _ZNK9twiliosdk29TSCSessionStatisticsProcessor25isStatsAutoRefreshEnabledEv
  1798: 002f43a5  1054 FUNC    GLOBAL DEFAULT    8 _ZNK9twiliosdk10TSCSession12requestStatsERKNSt3__112basic_stringIcNS1_11char_traitsIcEENS1_9allocatorIcEEEES9_NS_20_TSCStatsOutputLevelE
  1799: 003e8bad    86 FUNC    GLOBAL DEFAULT    8 _ZNK9twiliosdk24TSCParticipantConnection8getStatsERKNSt3__112basic_stringIcNS1_11char_traitsIcEENS1_9allocatorIcEEEEN6webrtc23PeerConnectionInterface16StatsOutputLevelE
  1800: 002f47c5   200 FUNC    GLOBAL DEFAULT    8 _ZN9twiliosdk10TSCSession21requestStatisticsDataEv
  1801: 002f488d     6 FUNC    GLOBAL DEFAULT    8 _ZThn4_N9twiliosdk10TSCSession21requestStatisticsDataEv
  1802: 002fe0c9    50 FUNC    WEAK   DEFAULT    8 _ZN3rtc14MethodFunctor4IN9twiliosdk18TSCSessionObserverEMS2_FvNSt3__112basic_stringIcNS3_11char_traitsIcEENS3_9allocatorIcEEEES9_NS1_16_TSCoreErrorCodeES9_EvS9_S9_SA_S9_ED2Ev
  1803: 002fe0c9    50 FUNC    WEAK   DEFAULT    8 _ZN3rtc14MethodFunctor4IN9twiliosdk18TSCSessionObserverEMS2_FvNSt3__112basic_stringIcNS3_11char_traitsIcEENS3_9allocatorIcEEEES9_NS1_16_TSCoreErrorCodeES9_EvS9_S9_SA_S9_ED1Ev
  1804: 002f4905  1124 FUNC    GLOBAL DEFAULT    8 _ZN9twiliosdk10TSCSession25processParticipantConnectERKN3rtc13scoped_refptrINS_24TSCParticipantConnectionEEENS_16_TSCoreErrorCodeERKNSt3__112basic_stringIcNS8_11char_traitsIcEENS8_9allocatorIcEEEE
  1805: 002f5819   866 FUNC    GLOBAL DEFAULT    8 _ZN9twiliosdk10TSCSession18cleanupParticipantERKN3rtc13scoped_refptrINS_24TSCParticipantConnectionEEE
  1806: 002ff51d   168 FUNC    WEAK   DEFAULT    8 _ZN3rtc4BindIN9twiliosdk18TSCSessionObserverEvNSt3__112basic_stringIcNS3_11char_traitsIcEENS3_9allocatorIcEEEES9_NS1_16_TSCoreErrorCodeES9_EENS_14MethodFunctor4IT_MSC_FT0_T1_T2_T3_T4_ESD_SE_SF_SG_SH_EESJ_PSC_NS_6detail8identityISE_E4typeENSN_ISF_E4typeENSN_ISG_E4typeENSN_ISH_E4typeE
  1807: 002ff5c5    94 FUNC    WEAK   DEFAULT    8 _ZN9twiliosdk6TSCSDK8doNotifyIN3rtc14MethodFunctor4INS_18TSCSessionObserverEMS4_FvNSt3__112basic_stringIcNS5_11char_traitsIcEENS5_9allocatorIcEEEESB_NS_16_TSCoreErrorCodeESB_EvSB_SB_SC_SB_EEEEvRKT_
  1808: 002ff625    44 FUNC    WEAK   DEFAULT    8 _ZN3rtc4BindIN9twiliosdk18TSCSessionObserverEvNS1_16_TSCSessionStateEEENS_14MethodFunctor1IT_MS5_FT0_T1_ES6_S7_EES9_PS5_NS_6detail8identityIS7_E4typeE
  1809: 002ff651    94 FUNC    WEAK   DEFAULT    8 _ZN9twiliosdk6TSCSDK8doNotifyIN3rtc14MethodFunctor1INS_18TSCSessionObserverEMS4_FvNS_16_TSCSessionStateEEvS5_EEEEvRKT_
  1810: 002fe0fd    40 FUNC    WEAK   DEFAULT    8 _ZN3rtc14MethodFunctor3IN9twiliosdk18TSCSessionObserverEMS2_FvNSt3__112basic_stringIcNS3_11char_traitsIcEENS3_9allocatorIcEEEES9_NS1_20_TSCDisconnectReasonEEvS9_S9_SA_ED2Ev
  1811: 002fe0fd    40 FUNC    WEAK   DEFAULT    8 _ZN3rtc14MethodFunctor3IN9twiliosdk18TSCSessionObserverEMS2_FvNSt3__112basic_stringIcNS3_11char_traitsIcEENS3_9allocatorIcEEEES9_NS1_20_TSCDisconnectReasonEEvS9_S9_SA_ED1Ev
  1812: 002ff6b1   128 FUNC    WEAK   DEFAULT    8 _ZN3rtc4BindIN9twiliosdk18TSCSessionObserverEvNSt3__112basic_stringIcNS3_11char_traitsIcEENS3_9allocatorIcEEEES9_NS1_20_TSCDisconnectReasonEEENS_14MethodFunctor3IT_MSC_FT0_T1_T2_T3_ESD_SE_SF_SG_EESI_PSC_NS_6detail8identityISE_E4typeENSM_ISF_E4typeENSM_ISG_E4typeE
  1813: 002ff731    94 FUNC    WEAK   DEFAULT    8 _ZN9twiliosdk6TSCSDK8doNotifyIN3rtc14MethodFunctor3INS_18TSCSessionObserverEMS4_FvNSt3__112basic_stringIcNS5_11char_traitsIcEENS5_9allocatorIcEEEESB_NS_20_TSCDisconnectReasonEEvSB_SB_SC_EEEEvRKT_
  1814: 002f560d   216 FUNC    GLOBAL DEFAULT    8 _ZNK9twiliosdk10TSCSession12isTerminatedEv
  1815: 003e98f5    96 FUNC    GLOBAL DEFAULT    8 _ZN9twiliosdk24TSCParticipantConnection14onOfferUpdatedERKNSt3__112basic_stringIcNS1_11char_traitsIcEENS1_9allocatorIcEEEE
  1816: 003e9955    76 FUNC    GLOBAL DEFAULT    8 _ZN9twiliosdk24TSCParticipantConnection21onOfferUpdateAcceptedERKNSt3__112basic_stringIcNS1_11char_traitsIcEENS1_9allocatorIcEEEE
  1817: 003e99a1    72 FUNC    GLOBAL DEFAULT    8 _ZN9twiliosdk24TSCParticipantConnection21onOfferUpdateRejectedEv
  1818: 002ff791    24 FUNC    WEAK   DEFAULT    8 _ZNK3rtc13scoped_refptrIN9twiliosdk24TSCParticipantConnectionEE3getEv
  1819: 003044d9    34 FUNC    WEAK   DEFAULT    8 _ZN3rtc13scoped_refptrIN9twiliosdk24TSCParticipantConnectionEEaSERKS3_
  1820: 002f5b7d   236 FUNC    GLOBAL DEFAULT    8 _ZN9twiliosdk10TSCSession25onDidIceGatheringCompleteERKN3rtc13scoped_refptrINS_24TSCParticipantConnectionEEENS_16_TSCoreErrorCodeERKNSt3__112basic_stringIcNS8_11char_traitsIcEENS8_9allocatorIcEEEE
  1821: 002f5c69   236 FUNC    GLOBAL DEFAULT    8 _ZN9twiliosdk10TSCSession31onDidSetSessionLocalDescriptionERKN3rtc13scoped_refptrINS_24TSCParticipantConnectionEEENS_16_TSCoreErrorCodeERKNSt3__112basic_stringIcNS8_11char_traitsIcEENS8_9allocatorIcEEEE
  1822: 002f5d55   236 FUNC    GLOBAL DEFAULT    8 _ZN9twiliosdk10TSCSession32onDidSetSessionRemoteDescriptionERKN3rtc13scoped_refptrINS_24TSCParticipantConnectionEEENS_16_TSCoreErrorCodeERKNSt3__112basic_stringIcNS8_11char_traitsIcEENS8_9allocatorIcEEEE
  1823: 002f5e41   560 FUNC    GLOBAL DEFAULT    8 _ZN9twiliosdk10TSCSession26onDidConnectPeerConnectionERKN3rtc13scoped_refptrINS_24TSCParticipantConnectionEEENS_16_TSCoreErrorCodeERKNSt3__112basic_stringIcNS8_11char_traitsIcEENS8_9allocatorIcEEEE
  1824: 002f6071   476 FUNC    GLOBAL DEFAULT    8 _ZN9twiliosdk10TSCSession29onDidDisconnectPeerConnectionERKN3rtc13scoped_refptrINS_24TSCParticipantConnectionEEENS_20_TSCDisconnectReasonE
  1825: 002f624d   360 FUNC    GLOBAL DEFAULT    8 _ZN9twiliosdk10TSCSession19onDidAddLocalStreamEPN6webrtc20MediaStreamInterfaceE
  1826: 00305fc1  1470 FUNC    GLOBAL DEFAULT    8 _ZN9twiliosdk19TSCMediaStreamUtils21createMediaStreamInfoEyPN6webrtc20MediaStreamInterfaceERKNSt3__112basic_stringIcNS4_11char_traitsIcEENS4_9allocatorIcEEEENS_21_TSCMediaStreamOriginE
  1827: 002f692d   332 FUNC    GLOBAL DEFAULT    8 _ZN9twiliosdk10TSCSession11onAddStreamEPN3rtc16RefCountedObjectINS_18TSCMediaStreamInfoEEEPN6webrtc20MediaStreamInterfaceE
  1828: 002f63b5   360 FUNC    GLOBAL DEFAULT    8 _ZN9twiliosdk10TSCSession22onDidRemoveLocalStreamEPN6webrtc20MediaStreamInterfaceE
  1829: 002f6a79   176 FUNC    GLOBAL DEFAULT    8 _ZN9twiliosdk10TSCSession14onRemoveStreamEPN3rtc16RefCountedObjectINS_18TSCMediaStreamInfoEEEPN6webrtc20MediaStreamInterfaceE
  1830: 002f651d   520 FUNC    GLOBAL DEFAULT    8 _ZN9twiliosdk10TSCSession20onDidAddRemoteStreamERKN3rtc13scoped_refptrINS_24TSCParticipantConnectionEEEPN6webrtc20MediaStreamInterfaceE
  1831: 002f6725   520 FUNC    GLOBAL DEFAULT    8 _ZN9twiliosdk10TSCSession23onDidRemoveRemoteStreamERKN3rtc13scoped_refptrINS_24TSCParticipantConnectionEEEPN6webrtc20MediaStreamInterfaceE
  1832: 002ff7a9    44 FUNC    WEAK   DEFAULT    8 _ZN3rtc4BindIN9twiliosdk18TSCSessionObserverEvPNS_16RefCountedObjectINS1_18TSCMediaStreamInfoEEEEENS_14MethodFunctor1IT_MS8_FT0_T1_ES9_SA_EESC_PS8_NS_6detail8identityISA_E4typeE
  1833: 002ff7d5    94 FUNC    WEAK   DEFAULT    8 _ZN9twiliosdk6TSCSDK8doNotifyIN3rtc14MethodFunctor1INS_18TSCSessionObserverEMS4_FvPNS2_16RefCountedObjectINS_18TSCMediaStreamInfoEEEEvS8_EEEEvRKT_
  1834: 00306dfd    24 FUNC    GLOBAL DEFAULT    8 _ZNK9twiliosdk18TSCMediaStreamInfo14getAudioTracksEv
  1835: 002ff835   166 FUNC    WEAK   DEFAULT    8 _ZNSt3__16vectorIN9twiliosdk17TSCAudioTrackInfoENS_9allocatorIS2_EEEC1ERKS5_
  1836: 002fa779  2584 FUNC    GLOBAL DEFAULT    8 _ZN9twiliosdk10TSCSession23addAndNotifyAudioTracksENSt3__16vectorINS_17TSCAudioTrackInfoENS1_9allocatorIS3_EEEENS2_IN3rtc13scoped_refptrIN6webrtc19AudioTrackInterfaceEEENS4_ISB_EEEE
  1837: 00306de5    24 FUNC    GLOBAL DEFAULT    8 _ZNK9twiliosdk18TSCMediaStreamInfo14getVideoTracksEv
  1838: 002ff8dd   166 FUNC    WEAK   DEFAULT    8 _ZNSt3__16vectorIN9twiliosdk17TSCVideoTrackInfoENS_9allocatorIS2_EEEC1ERKS5_
  1839: 002f8da9  2640 FUNC    GLOBAL DEFAULT    8 _ZN9twiliosdk10TSCSession23addAndNotifyVideoTracksENSt3__16vectorINS_17TSCVideoTrackInfoENS1_9allocatorIS3_EEEENS2_IN3rtc13scoped_refptrIN6webrtc19VideoTrackInterfaceEEENS4_ISB_EEEE
  1840: 002f97f9  3966 FUNC    GLOBAL DEFAULT    8 _ZN9twiliosdk10TSCSession20checkAudioTracksPrivEv
  1841: 002f7e25  3970 FUNC    GLOBAL DEFAULT    8 _ZN9twiliosdk10TSCSession20checkVideoTracksPrivEv
  1842: 0030142d   166 FUNC    WEAK   DEFAULT    8 _ZNSt3__16vectorIN9twiliosdk17TSCVideoTrackInfoENS_9allocatorIS2_EEE19__annotate_increaseEj
  1843: 003014d5   456 FUNC    WEAK   DEFAULT    8 _ZNSt3__16vectorIN9twiliosdk17TSCVideoTrackInfoENS_9allocatorIS2_EEE21__push_back_slow_pathIRKS2_EEvOT_
  1844: 002ff985    52 FUNC    WEAK   DEFAULT    8 _ZN3rtc4BindIN9twiliosdk18TSCSessionObserverEvPNS1_10TSCSessionEPNS_16RefCountedObjectINS1_17TSCVideoTrackInfoEEEPN6webrtc19VideoTrackInterfaceEEENS_14MethodFunctor3IT_MSD_FT0_T1_T2_T3_ESE_SF_SG_SH_EESJ_PSD_NS_6detail8identityISF_E4typeENSN_ISG_E4typeENSN_ISH_E4typeE
  1845: 002ff9b9    94 FUNC    WEAK   DEFAULT    8 _ZN9twiliosdk6TSCSDK8doNotifyIN3rtc14MethodFunctor3INS_18TSCSessionObserverEMS4_FvPNS_10TSCSessionEPNS2_16RefCountedObjectINS_17TSCVideoTrackInfoEEEPN6webrtc19VideoTrackInterfaceEEvS6_SA_SD_EEEEvRKT_
  1846: 003033a5   144 FUNC    WEAK   DEFAULT    8 _ZNSt3__16vectorIN9twiliosdk17TSCVideoTrackInfoENS_9allocatorIS2_EEE17__annotate_shrinkEj
  1847: 002ffa19    48 FUNC    WEAK   DEFAULT    8 _ZN3rtc4BindIN9twiliosdk18TSCSessionObserverEvPNS1_10TSCSessionEPNS_16RefCountedObjectINS1_17TSCVideoTrackInfoEEEEENS_14MethodFunctor2IT_MSA_FT0_T1_T2_ESB_SC_SD_EESF_PSA_NS_6detail8identityISC_E4typeENSJ_ISD_E4typeE
  1848: 002ffa49    94 FUNC    WEAK   DEFAULT    8 _ZN9twiliosdk6TSCSDK8doNotifyIN3rtc14MethodFunctor2INS_18TSCSessionObserverEMS4_FvPNS_10TSCSessionEPNS2_16RefCountedObjectINS_17TSCVideoTrackInfoEEEEvS6_SA_EEEEvRKT_
  1849: 003cc2c5   468 FUNC    GLOBAL DEFAULT    8 _ZN9twiliosdk17ConversationEvent21notifySessionObserverEPNS_10TSCSessionEPNS_18TSCSessionObserverE
  1850: 002f74f5  2278 FUNC    GLOBAL DEFAULT    8 _ZNK9twiliosdk10TSCSession12isLocalTrackERKNSt3__112basic_stringIcNS1_11char_traitsIcEENS1_9allocatorIcEEEERyb
  1851: 002f7ddd    70 FUNC    GLOBAL DEFAULT    8 _ZN9twiliosdk10TSCSession18onCheckMediaTracksEPKNS_24TSCParticipantConnectionE
  1852: 003e9fed   200 FUNC    GLOBAL DEFAULT    8 _ZN9twiliosdk24TSCParticipantConnection20addActiveVideoTracksERNSt3__16vectorIN3rtc13scoped_refptrIN6webrtc19VideoTrackInterfaceEEENS1_9allocatorIS7_EEEERNS2_INS_17TSCVideoTrackInfoENS8_ISC_EEEEy
  1853: 002ffaa9    64 FUNC    WEAK   DEFAULT    8 _ZN3rtc16RefCountedObjectIN9twiliosdk17TSCVideoTrackInfoEEC1INS1_21TSCMediaTrackIdentityENSt3__112basic_stringIcNS6_11char_traitsIcEENS6_9allocatorIcEEEEEET_T0_
  1854: 002ffb09   166 FUNC    WEAK   DEFAULT    8 _ZNSt3__16vectorIN3rtc13scoped_refptrIN6webrtc19VideoTrackInterfaceEEENS_9allocatorIS5_EEEC1ERKS8_
  1855: 003ea0b5   200 FUNC    GLOBAL DEFAULT    8 _ZN9twiliosdk24TSCParticipantConnection20addActiveAudioTracksERNSt3__16vectorIN3rtc13scoped_refptrIN6webrtc19AudioTrackInterfaceEEENS1_9allocatorIS7_EEEERNS2_INS_17TSCAudioTrackInfoENS8_ISC_EEEEy
  1856: 002ffbb1    64 FUNC    WEAK   DEFAULT    8 _ZN3rtc16RefCountedObjectIN9twiliosdk17TSCAudioTrackInfoEEC1INS1_21TSCMediaTrackIdentityENSt3__112basic_stringIcNS6_11char_traitsIcEENS6_9allocatorIcEEEEEET_T0_
  1857: 002ffc11    44 FUNC    WEAK   DEFAULT    8 _ZN3rtc4BindIN9twiliosdk18TSCSessionObserverEvPNS_16RefCountedObjectINS1_17TSCAudioTrackInfoEEEEENS_14MethodFunctor1IT_MS8_FT0_T1_ES9_SA_EESC_PS8_NS_6detail8identityISA_E4typeE
  1858: 002ffc3d    94 FUNC    WEAK   DEFAULT    8 _ZN9twiliosdk6TSCSDK8doNotifyIN3rtc14MethodFunctor1INS_18TSCSessionObserverEMS4_FvPNS2_16RefCountedObjectINS_17TSCAudioTrackInfoEEEEvS8_EEEEvRKT_
  1859: 0030374d   144 FUNC    WEAK   DEFAULT    8 _ZNSt3__16vectorIN9twiliosdk17TSCAudioTrackInfoENS_9allocatorIS2_EEE17__annotate_shrinkEj
  1860: 002ffc9d   166 FUNC    WEAK   DEFAULT    8 _ZNSt3__16vectorIN3rtc13scoped_refptrIN6webrtc19AudioTrackInterfaceEEENS_9allocatorIS5_EEEC1ERKS8_
  1861: 00301b4d   166 FUNC    WEAK   DEFAULT    8 _ZNSt3__16vectorIN9twiliosdk17TSCAudioTrackInfoENS_9allocatorIS2_EEE19__annotate_increaseEj
  1862: 00301bf5   456 FUNC    WEAK   DEFAULT    8 _ZNSt3__16vectorIN9twiliosdk17TSCAudioTrackInfoENS_9allocatorIS2_EEE21__push_back_slow_pathIRKS2_EEvOT_
  1863: 002ffd45    48 FUNC    WEAK   DEFAULT    8 _ZN3rtc4BindIN9twiliosdk18TSCSessionObserverEvPNS_16RefCountedObjectINS1_17TSCAudioTrackInfoEEEPN6webrtc19AudioTrackInterfaceEEENS_14MethodFunctor2IT_MSB_FT0_T1_T2_ESC_SD_SE_EESG_PSB_NS_6detail8identityISD_E4typeENSK_ISE_E4typeE
  1864: 002ffd75    94 FUNC    WEAK   DEFAULT    8 _ZN9twiliosdk6TSCSDK8doNotifyIN3rtc14MethodFunctor2INS_18TSCSessionObserverEMS4_FvPNS2_16RefCountedObjectINS_17TSCAudioTrackInfoEEEPN6webrtc19AudioTrackInterfaceEEvS8_SB_EEEEvRKT_
  1865: 002fe125    30 FUNC    WEAK   DEFAULT    8 _ZN3rtc14MethodFunctor1IN9twiliosdk18TSCSessionObserverEMS2_FvNSt3__110shared_ptrINS1_20TSCSessionStatisticsEEEEvS6_ED2Ev
  1866: 002fe125    30 FUNC    WEAK   DEFAULT    8 _ZN3rtc14MethodFunctor1IN9twiliosdk18TSCSessionObserverEMS2_FvNSt3__110shared_ptrINS1_20TSCSessionStatisticsEEEEvS6_ED1Ev
  1867: 002fb191   480 FUNC    GLOBAL DEFAULT    8 _ZN9twiliosdk10TSCSession17onDidReceiveStatsERKN3rtc13scoped_refptrINS_24TSCParticipantConnectionEEERKNS_24TSCConnectionStatsReportE
  1868: 003f51e5    80 FUNC    GLOBAL DEFAULT    8 _ZN9twiliosdk20TSCSessionStatisticsC1ERKNS_24TSCConnectionStatsReportE
  1869: 002ffdd5   624 FUNC    WEAK   DEFAULT    8 _ZNSt3__110shared_ptrIN9twiliosdk20TSCSessionStatisticsEEC1IS2_EEPT_NS_9enable_ifIXsrNS_14is_convertibleIS6_PS2_EE5valueENS3_5__natEE4typeE
  1870: 003f5339    32 FUNC    GLOBAL DEFAULT    8 _ZN9twiliosdk20TSCSessionStatistics12setSessionIdEy
  1871: 003f538d    28 FUNC    GLOBAL DEFAULT    8 _ZN9twiliosdk20TSCSessionStatistics18setEndpointAddressERKNSt3__112basic_stringIcNS1_11char_traitsIcEENS1_9allocatorIcEEEE
  1872: 003f5359    28 FUNC    GLOBAL DEFAULT    8 _ZN9twiliosdk20TSCSessionStatistics10setCallSidERKNSt3__112basic_stringIcNS1_11char_traitsIcEENS1_9allocatorIcEEEE
  1873: 003edfa5   964 FUNC    GLOBAL DEFAULT    8 _ZN9twiliosdk29TSCSessionStatisticsProcessor9addReportERKNSt3__110shared_ptrINS_20TSCSessionStatisticsEEE
  1874: 00300045   102 FUNC    WEAK   DEFAULT    8 _ZN3rtc4BindIN9twiliosdk18TSCSessionObserverEvNSt3__110shared_ptrINS1_20TSCSessionStatisticsEEEEENS_14MethodFunctor1IT_MS8_FT0_T1_ES9_SA_EESC_PS8_NS_6detail8identityISA_E4typeE
  1875: 003000ad    94 FUNC    WEAK   DEFAULT    8 _ZN9twiliosdk6TSCSDK8doNotifyIN3rtc14MethodFunctor1INS_18TSCSessionObserverEMS4_FvNSt3__110shared_ptrINS_20TSCSessionStatisticsEEEEvS8_EEEEvRKT_
  1876: 002fb371   192 FUNC    GLOBAL DEFAULT    8 _ZN9twiliosdk10TSCSession26onPublishConversationEventEPNS_17ConversationEventE
  1877: 003ea2f5   572 FUNC    GLOBAL DEFAULT    8 _ZN9twiliosdk24TSCParticipantConnection14onPublishEventEPNS_17ConversationEventE
  1878: 002fe145    56 FUNC    WEAK   DEFAULT    8 _ZN3rtc16RefCountedObjectIN9twiliosdk14TSCConstraintsEEC2Ev
  1879: 002fe17d    52 FUNC    WEAK   DEFAULT    8 _ZN3rtc13scoped_refptrINS_16RefCountedObjectIN9twiliosdk14TSCConstraintsEEEEC2EPS4_
  1880: 002fe1b1    46 FUNC    WEAK   DEFAULT    8 _ZN3rtc13scoped_refptrINS_16RefCountedObjectIN9twiliosdk14TSCConstraintsEEEED2Ev
  1881: 002fec85   198 FUNC    WEAK   DEFAULT    8 _ZNSt3__113__vector_baseIN9twiliosdk17TSCVideoTrackInfoENS_9allocatorIS2_EEED1Ev
  1882: 002fed4d   198 FUNC    WEAK   DEFAULT    8 _ZNSt3__113__vector_baseIN9twiliosdk17TSCAudioTrackInfoENS_9allocatorIS2_EEED1Ev
  1883: 002fee15   192 FUNC    WEAK   DEFAULT    8 _ZNSt3__113__vector_baseIN3rtc13scoped_refptrIN9twiliosdk24TSCParticipantConnectionEEENS_9allocatorIS5_EEED1Ev
  1884: 002feed5    28 FUNC    WEAK   DEFAULT    8 _ZN3rtc13scoped_refptrINS_16RefCountedObjectIN9twiliosdk26TSCSessionMediaConstraintsEEEEC2Ev
  1885: 002feef1    46 FUNC    WEAK   DEFAULT    8 _ZN3rtc13scoped_refptrINS_16RefCountedObjectIN9twiliosdk26TSCSessionMediaConstraintsEEEED2Ev
  1886: 002fef21    96 FUNC    WEAK   DEFAULT    8 _ZN3rtc16RefCountedObjectIN9twiliosdk24TSCParticipantConnectionEEC2IyNSt3__112basic_stringIcNS5_11char_traitsIcEENS5_9allocatorIcEEEESB_PNS1_17TSCSIPCallContextEPNS1_22TSCSessionMediaContextEPNS1_10TSCSessionEEET_T0_T1_T2_T3_T4_
  1887: 003e781d  1368 FUNC    GLOBAL DEFAULT    8 _ZN9twiliosdk24TSCParticipantConnectionC2EyRKNSt3__112basic_stringIcNS1_11char_traitsIcEENS1_9allocatorIcEEEES9_PNS_17TSCSIPCallContextEPNS_22TSCSessionMediaContextEPNS_32TSCParticipantConnectionObserverE
  1888: 00a78b18   104 OBJECT  WEAK   DEFAULT   14 _ZTVN3rtc16RefCountedObjectIN9twiliosdk24TSCParticipantConnectionEEE
  1889: 002fef81    50 FUNC    WEAK   DEFAULT    8 _ZN3rtc13scoped_refptrIN9twiliosdk24TSCParticipantConnectionEEC2EPS2_
  1890: 002fefb5    46 FUNC    WEAK   DEFAULT    8 _ZN3rtc13scoped_refptrIN9twiliosdk24TSCParticipantConnectionEED2Ev
  1891: 002ff041    80 FUNC    WEAK   DEFAULT    8 _ZN3rtc16RefCountedObjectIN9twiliosdk24TSCParticipantConnectionEEC2INSt3__112basic_stringIcNS5_11char_traitsIcEENS5_9allocatorIcEEEEPNS1_22TSCSessionMediaContextEPNS1_10TSCSessionEEET_T0_T1_
  1892: 003e76ad   368 FUNC    GLOBAL DEFAULT    8 _ZN9twiliosdk24TSCParticipantConnectionC2ERKNSt3__112basic_stringIcNS1_11char_traitsIcEENS1_9allocatorIcEEEEPNS_22TSCSessionMediaContextEPNS_32TSCParticipantConnectionObserverE
  1893: 003006f5    88 FUNC    WEAK   DEFAULT    8 _ZN3rtc14MethodFunctor2IN9twiliosdk24TSCParticipantConnectionEMS2_FvPNS1_17TSCSIPCallContextERKNSt3__112basic_stringIcNS5_11char_traitsIcEENS5_9allocatorIcEEEEEvS4_SD_EC1ESF_PS2_S4_SD_
  1894: 003007e1   138 FUNC    WEAK   DEFAULT    8 _ZN3rtc12AsyncInvoker11AsyncInvokeIvNS_14MethodFunctor2IN9twiliosdk24TSCParticipantConnectionEMS4_FvPNS3_17TSCSIPCallContextERKNSt3__112basic_stringIcNS7_11char_traitsIcEENS7_9allocatorIcEEEEEvS6_SF_EEEEvPNS_6ThreadERKT0_j
  1895: 002ff139    50 FUNC    WEAK   DEFAULT    8 _ZN3rtc13scoped_refptrINS_16RefCountedObjectIN9twiliosdk26TSCSessionMediaConstraintsEEEEC2EPS4_
  1896: 0030086d   152 FUNC    WEAK   DEFAULT    8 _ZNSt3__16vectorIN6webrtc25MediaConstraintsInterface10ConstraintENS_9allocatorIS3_EEE8allocateEj
  1897: 00300905   164 FUNC    WEAK   DEFAULT    8 _ZNSt3__16vectorIN6webrtc25MediaConstraintsInterface10ConstraintENS_9allocatorIS3_EEE18__construct_at_endIPS3_EENS_9enable_ifIXsrNS_21__is_forward_iteratorIT_EE5valueEvE4typeESB_SB_
  1898: 002ff19d   178 FUNC    WEAK   DEFAULT    8 _ZNSt3__16vectorIN6webrtc25MediaConstraintsInterface10ConstraintENS_9allocatorIS3_EEEC1ERKS6_
  1899: 002ff251    30 FUNC    WEAK   DEFAULT    8 _ZNK3rtc16RefCountedObjectIN9twiliosdk14TSCConstraintsEE6AddRefEv
  1900: 003009a9    64 FUNC    WEAK   DEFAULT    8 _ZN3rtc14MethodFunctor2IN9twiliosdk10TSCSessionEMS2_FvPNS_16RefCountedObjectINS1_26TSCSessionMediaConstraintsEEEPNS3_INS1_14TSCConstraintsEEEEvS6_S9_EC1ESB_PS2_S6_S9_
  1901: 003009e9   134 FUNC    WEAK   DEFAULT    8 _ZN3rtc12AsyncInvoker11AsyncInvokeIvNS_14MethodFunctor2IN9twiliosdk10TSCSessionEMS4_FvPNS_16RefCountedObjectINS3_26TSCSessionMediaConstraintsEEEPNS5_INS3_14TSCConstraintsEEEEvS8_SB_EEEEvPNS_6ThreadERKT0_j
  1902: 002ff301    56 FUNC    WEAK   DEFAULT    8 _ZNK3rtc16RefCountedObjectIN9twiliosdk14TSCConstraintsEE7ReleaseEv
  1903: 00300ad1    78 FUNC    WEAK   DEFAULT    8 _ZN3rtc14MethodFunctor4IN9twiliosdk18TSCSessionObserverEMS2_FvPNS1_11TSCEndpointEPNS1_10TSCSessionENS1_16_TSCoreErrorCodeENSt3__112basic_stringIcNS8_11char_traitsIcEENS8_9allocatorIcEEEEEvS4_S6_S7_SE_EC1ESG_PS2_S4_S6_S7_SE_
  1904: 00300b75   138 FUNC    WEAK   DEFAULT    8 _ZN3rtc12AsyncInvoker11AsyncInvokeIvNS_14MethodFunctor4IN9twiliosdk18TSCSessionObserverEMS4_FvPNS3_11TSCEndpointEPNS3_10TSCSessionENS3_16_TSCoreErrorCodeENSt3__112basic_stringIcNSA_11char_traitsIcEENSA_9allocatorIcEEEEEvS6_S8_S9_SG_EEEEvPNS_6ThreadERKT0_j
  1905: 00300c01    64 FUNC    WEAK   DEFAULT    8 _ZN3rtc14MethodFunctor2IN9twiliosdk10TSCSessionEMS2_FvbbEvbbEC1ES4_PS2_bb
  1906: 00300c41   120 FUNC    WEAK   DEFAULT    8 _ZN3rtc12AsyncInvoker11AsyncInvokeIvNS_14MethodFunctor2IN9twiliosdk10TSCSessionEMS4_FvbbEvbbEEEEvPNS_6ThreadERKT0_j
  1907: 00300cb9    70 FUNC    WEAK   DEFAULT    8 _ZN3rtc14MethodFunctor3IN9twiliosdk10TSCSessionEMS2_FvbbPNS_16RefCountedObjectINS1_14TSCConstraintsEEEEvbbS6_EC1ES8_PS2_bbS6_
  1908: 00300d01   134 FUNC    WEAK   DEFAULT    8 _ZN3rtc12AsyncInvoker11AsyncInvokeIvNS_14MethodFunctor3IN9twiliosdk10TSCSessionEMS4_FvbbPNS_16RefCountedObjectINS3_14TSCConstraintsEEEEvbbS8_EEEEvPNS_6ThreadERKT0_j
  1909: 00300d89   118 FUNC    WEAK   DEFAULT    8 _ZN3rtc14MethodFunctor4IN9twiliosdk18TSCSessionObserverEMS2_FvNSt3__112basic_stringIcNS3_11char_traitsIcEENS3_9allocatorIcEEEES9_NS1_16_TSCoreErrorCodeES9_EvS9_S9_SA_S9_EC1ESC_PS2_S9_S9_SA_S9_
  1910: 00300e85   138 FUNC    WEAK   DEFAULT    8 _ZN3rtc12AsyncInvoker11AsyncInvokeIvNS_14MethodFunctor4IN9twiliosdk18TSCSessionObserverEMS4_FvNSt3__112basic_stringIcNS5_11char_traitsIcEENS5_9allocatorIcEEEESB_NS3_16_TSCoreErrorCodeESB_EvSB_SB_SC_SB_EEEEvPNS_6ThreadERKT0_j
  1911: 00300f11    58 FUNC    WEAK   DEFAULT    8 _ZN3rtc14MethodFunctor1IN9twiliosdk18TSCSessionObserverEMS2_FvNS1_16_TSCSessionStateEEvS3_EC1ES5_PS2_S3_
  1912: 00300f4d   120 FUNC    WEAK   DEFAULT    8 _ZN3rtc12AsyncInvoker11AsyncInvokeIvNS_14MethodFunctor1IN9twiliosdk18TSCSessionObserverEMS4_FvNS3_16_TSCSessionStateEEvS5_EEEEvPNS_6ThreadERKT0_j
  1913: 00300fc5    94 FUNC    WEAK   DEFAULT    8 _ZN3rtc14MethodFunctor3IN9twiliosdk18TSCSessionObserverEMS2_FvNSt3__112basic_stringIcNS3_11char_traitsIcEENS3_9allocatorIcEEEES9_NS1_20_TSCDisconnectReasonEEvS9_S9_SA_EC1ESC_PS2_S9_S9_SA_
  1914: 0030108d   138 FUNC    WEAK   DEFAULT    8 _ZN3rtc12AsyncInvoker11AsyncInvokeIvNS_14MethodFunctor3IN9twiliosdk18TSCSessionObserverEMS4_FvNSt3__112basic_stringIcNS5_11char_traitsIcEENS5_9allocatorIcEEEESB_NS3_20_TSCDisconnectReasonEEvSB_SB_SC_EEEEvPNS_6ThreadERKT0_j
  1915: 00301119    58 FUNC    WEAK   DEFAULT    8 _ZN3rtc14MethodFunctor1IN9twiliosdk18TSCSessionObserverEMS2_FvPNS_16RefCountedObjectINS1_18TSCMediaStreamInfoEEEEvS6_EC1ES8_PS2_S6_
  1916: 00301155   120 FUNC    WEAK   DEFAULT    8 _ZN3rtc12AsyncInvoker11AsyncInvokeIvNS_14MethodFunctor1IN9twiliosdk18TSCSessionObserverEMS4_FvPNS_16RefCountedObjectINS3_18TSCMediaStreamInfoEEEEvS8_EEEEvPNS_6ThreadERKT0_j
  1917: 002ff835   166 FUNC    WEAK   DEFAULT    8 _ZNSt3__16vectorIN9twiliosdk17TSCAudioTrackInfoENS_9allocatorIS2_EEEC2ERKS5_
  1918: 003011cd   140 FUNC    WEAK   DEFAULT    8 _ZNSt3__16vectorIN9twiliosdk17TSCAudioTrackInfoENS_9allocatorIS2_EEE8allocateEj
  1919: 00301259   164 FUNC    WEAK   DEFAULT    8 _ZNSt3__16vectorIN9twiliosdk17TSCAudioTrackInfoENS_9allocatorIS2_EEE18__construct_at_endIPS2_EENS_9enable_ifIXsrNS_21__is_forward_iteratorIT_EE5valueEvE4typeESA_SA_
  1920: 002ff8dd   166 FUNC    WEAK   DEFAULT    8 _ZNSt3__16vectorIN9twiliosdk17TSCVideoTrackInfoENS_9allocatorIS2_EEEC2ERKS5_
  1921: 003012fd   140 FUNC    WEAK   DEFAULT    8 _ZNSt3__16vectorIN9twiliosdk17TSCVideoTrackInfoENS_9allocatorIS2_EEE8allocateEj
  1922: 00301389   164 FUNC    WEAK   DEFAULT    8 _ZNSt3__16vectorIN9twiliosdk17TSCVideoTrackInfoENS_9allocatorIS2_EEE18__construct_at_endIPS2_EENS_9enable_ifIXsrNS_21__is_forward_iteratorIT_EE5valueEvE4typeESA_SA_
  1923: 0030169d    70 FUNC    WEAK   DEFAULT    8 _ZN3rtc14MethodFunctor3IN9twiliosdk18TSCSessionObserverEMS2_FvPNS1_10TSCSessionEPNS_16RefCountedObjectINS1_17TSCVideoTrackInfoEEEPN6webrtc19VideoTrackInterfaceEEvS4_S8_SB_EC1ESD_PS2_S4_S8_SB_
  1924: 003016e5   138 FUNC    WEAK   DEFAULT    8 _ZN3rtc12AsyncInvoker11AsyncInvokeIvNS_14MethodFunctor3IN9twiliosdk18TSCSessionObserverEMS4_FvPNS3_10TSCSessionEPNS_16RefCountedObjectINS3_17TSCVideoTrackInfoEEEPN6webrtc19VideoTrackInterfaceEEvS6_SA_SD_EEEEvPNS_6ThreadERKT0_j
  1925: 00301771    64 FUNC    WEAK   DEFAULT    8 _ZN3rtc14MethodFunctor2IN9twiliosdk18TSCSessionObserverEMS2_FvPNS1_10TSCSessionEPNS_16RefCountedObjectINS1_17TSCVideoTrackInfoEEEEvS4_S8_EC1ESA_PS2_S4_S8_
  1926: 003017b1   134 FUNC    WEAK   DEFAULT    8 _ZN3rtc12AsyncInvoker11AsyncInvokeIvNS_14MethodFunctor2IN9twiliosdk18TSCSessionObserverEMS4_FvPNS3_10TSCSessionEPNS_16RefCountedObjectINS3_17TSCVideoTrackInfoEEEEvS6_SA_EEEEvPNS_6ThreadERKT0_j
  1927: 002ffaa9    64 FUNC    WEAK   DEFAULT    8 _ZN3rtc16RefCountedObjectIN9twiliosdk17TSCVideoTrackInfoEEC2INS1_21TSCMediaTrackIdentityENSt3__112basic_stringIcNS6_11char_traitsIcEENS6_9allocatorIcEEEEEET_T0_
  1928: 00a78af8    28 OBJECT  WEAK   DEFAULT   14 _ZTVN3rtc16RefCountedObjectIN9twiliosdk17TSCVideoTrackInfoEEE
  1929: 002ffae9    30 FUNC    WEAK   DEFAULT    8 _ZNK3rtc16RefCountedObjectIN9twiliosdk17TSCVideoTrackInfoEE6AddRefEv
  1930: 002ffb09   166 FUNC    WEAK   DEFAULT    8 _ZNSt3__16vectorIN3rtc13scoped_refptrIN6webrtc19VideoTrackInterfaceEEENS_9allocatorIS5_EEEC2ERKS8_
  1931: 00301839   140 FUNC    WEAK   DEFAULT    8 _ZNSt3__16vectorIN3rtc13scoped_refptrIN6webrtc19VideoTrackInterfaceEEENS_9allocatorIS5_EEE8allocateEj
  1932: 003018c5   162 FUNC    WEAK   DEFAULT    8 _ZNSt3__16vectorIN3rtc13scoped_refptrIN6webrtc19VideoTrackInterfaceEEENS_9allocatorIS5_EEE18__construct_at_endIPS5_EENS_9enable_ifIXsrNS_21__is_forward_iteratorIT_EE5valueEvE4typeESD_SD_
  1933: 002ffbb1    64 FUNC    WEAK   DEFAULT    8 _ZN3rtc16RefCountedObjectIN9twiliosdk17TSCAudioTrackInfoEEC2INS1_21TSCMediaTrackIdentityENSt3__112basic_stringIcNS6_11char_traitsIcEENS6_9allocatorIcEEEEEET_T0_
  1934: 00a78ad8    28 OBJECT  WEAK   DEFAULT   14 _ZTVN3rtc16RefCountedObjectIN9twiliosdk17TSCAudioTrackInfoEEE
  1935: 002ffbf1    30 FUNC    WEAK   DEFAULT    8 _ZNK3rtc16RefCountedObjectIN9twiliosdk17TSCAudioTrackInfoEE6AddRefEv
  1936: 00301969    58 FUNC    WEAK   DEFAULT    8 _ZN3rtc14MethodFunctor1IN9twiliosdk18TSCSessionObserverEMS2_FvPNS_16RefCountedObjectINS1_17TSCAudioTrackInfoEEEEvS6_EC1ES8_PS2_S6_
  1937: 003019a5   120 FUNC    WEAK   DEFAULT    8 _ZN3rtc12AsyncInvoker11AsyncInvokeIvNS_14MethodFunctor1IN9twiliosdk18TSCSessionObserverEMS4_FvPNS_16RefCountedObjectINS3_17TSCAudioTrackInfoEEEEvS8_EEEEvPNS_6ThreadERKT0_j
  1938: 002ffc9d   166 FUNC    WEAK   DEFAULT    8 _ZNSt3__16vectorIN3rtc13scoped_refptrIN6webrtc19AudioTrackInterfaceEEENS_9allocatorIS5_EEEC2ERKS8_
  1939: 00301a1d   140 FUNC    WEAK   DEFAULT    8 _ZNSt3__16vectorIN3rtc13scoped_refptrIN6webrtc19AudioTrackInterfaceEEENS_9allocatorIS5_EEE8allocateEj
  1940: 00301aa9   162 FUNC    WEAK   DEFAULT    8 _ZNSt3__16vectorIN3rtc13scoped_refptrIN6webrtc19AudioTrackInterfaceEEENS_9allocatorIS5_EEE18__construct_at_endIPS5_EENS_9enable_ifIXsrNS_21__is_forward_iteratorIT_EE5valueEvE4typeESD_SD_
  1941: 00301dbd    64 FUNC    WEAK   DEFAULT    8 _ZN3rtc14MethodFunctor2IN9twiliosdk18TSCSessionObserverEMS2_FvPNS_16RefCountedObjectINS1_17TSCAudioTrackInfoEEEPN6webrtc19AudioTrackInterfaceEEvS6_S9_EC1ESB_PS2_S6_S9_
  1942: 00301dfd   134 FUNC    WEAK   DEFAULT    8 _ZN3rtc12AsyncInvoker11AsyncInvokeIvNS_14MethodFunctor2IN9twiliosdk18TSCSessionObserverEMS4_FvPNS_16RefCountedObjectINS3_17TSCAudioTrackInfoEEEPN6webrtc19AudioTrackInterfaceEEvS8_SB_EEEEvPNS_6ThreadERKT0_j
  1943: 002ffdd5   624 FUNC    WEAK   DEFAULT    8 _ZNSt3__110shared_ptrIN9twiliosdk20TSCSessionStatisticsEEC2IS2_EEPT_NS_9enable_ifIXsrNS_14is_convertibleIS6_PS2_EE5valueENS3_5__natEE4typeE
  1944: 00a78ab8    28 OBJECT  WEAK   DEFAULT   14 _ZTVNSt3__120__shared_ptr_pointerIPN9twiliosdk20TSCSessionStatisticsENS_14default_deleteIS2_EENS_9allocatorIS2_EEEE
  1945: 00301e85    92 FUNC    WEAK   DEFAULT    8 _ZN3rtc14MethodFunctor1IN9twiliosdk18TSCSessionObserverEMS2_FvNSt3__110shared_ptrINS1_20TSCSessionStatisticsEEEEvS6_EC1ES8_PS2_S6_
  1946: 00301f3d   138 FUNC    WEAK   DEFAULT    8 _ZN3rtc12AsyncInvoker11AsyncInvokeIvNS_14MethodFunctor1IN9twiliosdk18TSCSessionObserverEMS4_FvNSt3__110shared_ptrINS3_20TSCSessionStatisticsEEEEvS8_EEEEvPNS_6ThreadERKT0_j
  1947: 00301fc9    24 FUNC    WEAK   DEFAULT    8 _ZNSt3__16vectorIN3rtc13scoped_refptrIN9twiliosdk24TSCParticipantConnectionEEENS_9allocatorIS5_EEE31__annotate_contiguous_containerEPKvSA_SA_SA_
  1948: 00303e85   116 FUNC    WEAK   DEFAULT    8 _ZNKSt3__16vectorIN3rtc13scoped_refptrIN9twiliosdk24TSCParticipantConnectionEEENS_9allocatorIS5_EEE8max_sizeEv
  1949: 00301fe1   196 FUNC    WEAK   DEFAULT    8 _ZNSt3__114__split_bufferIN3rtc13scoped_refptrIN9twiliosdk24TSCParticipantConnectionEEERNS_9allocatorIS5_EEEC1EjjS8_
  1950: 0030217d   474 FUNC    WEAK   DEFAULT    8 _ZNSt3__16vectorIN3rtc13scoped_refptrIN9twiliosdk24TSCParticipantConnectionEEENS_9allocatorIS5_EEE26__swap_out_circular_bufferERNS_14__split_bufferIS5_RS7_EE
  1951: 003020a5   216 FUNC    WEAK   DEFAULT    8 _ZNSt3__114__split_bufferIN3rtc13scoped_refptrIN9twiliosdk24TSCParticipantConnectionEEERNS_9allocatorIS5_EEED1Ev
  1952: 00302359    24 FUNC    WEAK   DEFAULT    8 _ZNSt3__16vectorINS_4pairINS_12basic_stringIcNS_11char_traitsIcEENS_9allocatorIcEEEES7_EENS5_IS8_EEE31__annotate_contiguous_containerEPKvSC_SC_SC_
  1953: 0030404d   120 FUNC    WEAK   DEFAULT    8 _ZNKSt3__16vectorINS_4pairINS_12basic_stringIcNS_11char_traitsIcEENS_9allocatorIcEEEES7_EENS5_IS8_EEE8max_sizeEv
  1954: 00302371   214 FUNC    WEAK   DEFAULT    8 _ZNSt3__114__split_bufferINS_4pairINS_12basic_stringIcNS_11char_traitsIcEENS_9allocatorIcEEEES7_EERNS5_IS8_EEEC1EjjSA_
  1955: 00302531   530 FUNC    WEAK   DEFAULT    8 _ZNSt3__16vectorINS_4pairINS_12basic_stringIcNS_11char_traitsIcEENS_9allocatorIcEEEES7_EENS5_IS8_EEE26__swap_out_circular_bufferERNS_14__split_bufferIS8_RS9_EE
  1956: 00302449   230 FUNC    WEAK   DEFAULT    8 _ZNSt3__114__split_bufferINS_4pairINS_12basic_stringIcNS_11char_traitsIcEENS_9allocatorIcEEEES7_EERNS5_IS8_EEED1Ev
  1957: 003006f5    88 FUNC    WEAK   DEFAULT    8 _ZN3rtc14MethodFunctor2IN9twiliosdk24TSCParticipantConnectionEMS2_FvPNS1_17TSCSIPCallContextERKNSt3__112basic_stringIcNS5_11char_traitsIcEENS5_9allocatorIcEEEEEvS4_SD_EC2ESF_PS2_S4_SD_
  1958: 0030074d    52 FUNC    WEAK   DEFAULT    8 _ZN3rtc13scoped_refptrIN9twiliosdk24TSCParticipantConnectionEEC2ERKS3_
  1959: 00300781    94 FUNC    WEAK   DEFAULT    8 _ZN3rtc14MethodFunctor2IN9twiliosdk24TSCParticipantConnectionEMS2_FvPNS1_17TSCSIPCallContextERKNSt3__112basic_stringIcNS5_11char_traitsIcEENS5_9allocatorIcEEEEEvS4_SD_EC2ERKSG_
  1960: 00300781    94 FUNC    WEAK   DEFAULT    8 _ZN3rtc14MethodFunctor2IN9twiliosdk24TSCParticipantConnectionEMS2_FvPNS1_17TSCSIPCallContextERKNSt3__112basic_stringIcNS5_11char_traitsIcEENS5_9allocatorIcEEEEEvS4_SD_EC1ERKSG_
  1961: 003027ad    60 FUNC    WEAK   DEFAULT    8 _ZN3rtc16RefCountedObjectINS_25FireAndForgetAsyncClosureINS_14MethodFunctor2IN9twiliosdk24TSCParticipantConnectionEMS4_FvPNS3_17TSCSIPCallContextERKNSt3__112basic_stringIcNS7_11char_traitsIcEENS7_9allocatorIcEEEEEvS6_SF_EEEEEC1ISI_EET_
  1962: 003009a9    64 FUNC    WEAK   DEFAULT    8 _ZN3rtc14MethodFunctor2IN9twiliosdk10TSCSessionEMS2_FvPNS_16RefCountedObjectINS1_26TSCSessionMediaConstraintsEEEPNS3_INS1_14TSCConstraintsEEEEvS6_S9_EC2ESB_PS2_S6_S9_
  1963: 00302849    76 FUNC    WEAK   DEFAULT    8 _ZN3rtc16RefCountedObjectINS_25FireAndForgetAsyncClosureINS_14MethodFunctor2IN9twiliosdk10TSCSessionEMS4_FvPNS0_INS3_26TSCSessionMediaConstraintsEEEPNS0_INS3_14TSCConstraintsEEEEvS7_SA_EEEEEC1ISD_EET_
  1964: 00300a71    64 FUNC    WEAK   DEFAULT    8 _ZN3rtc16RefCountedObjectIN9twiliosdk14TSCConstraintsEED2Ev
  1965: 00300a71    64 FUNC    WEAK   DEFAULT    8 _ZN3rtc16RefCountedObjectIN9twiliosdk14TSCConstraintsEED1Ev
  1966: 00300ab1    32 FUNC    WEAK   DEFAULT    8 _ZN3rtc16RefCountedObjectIN9twiliosdk14TSCConstraintsEED0Ev
  1967: 00300ad1    78 FUNC    WEAK   DEFAULT    8 _ZN3rtc14MethodFunctor4IN9twiliosdk18TSCSessionObserverEMS2_FvPNS1_11TSCEndpointEPNS1_10TSCSessionENS1_16_TSCoreErrorCodeENSt3__112basic_stringIcNS8_11char_traitsIcEENS8_9allocatorIcEEEEEvS4_S6_S7_SE_EC2ESG_PS2_S4_S6_S7_SE_
  1968: 00300b21    84 FUNC    WEAK   DEFAULT    8 _ZN3rtc14MethodFunctor4IN9twiliosdk18TSCSessionObserverEMS2_FvPNS1_11TSCEndpointEPNS1_10TSCSessionENS1_16_TSCoreErrorCodeENSt3__112basic_stringIcNS8_11char_traitsIcEENS8_9allocatorIcEEEEEvS4_S6_S7_SE_EC2ERKSH_
  1969: 00300b21    84 FUNC    WEAK   DEFAULT    8 _ZN3rtc14MethodFunctor4IN9twiliosdk18TSCSessionObserverEMS2_FvPNS1_11TSCEndpointEPNS1_10TSCSessionENS1_16_TSCoreErrorCodeENSt3__112basic_stringIcNS8_11char_traitsIcEENS8_9allocatorIcEEEEEvS4_S6_S7_SE_EC1ERKSH_
  1970: 003028fd    60 FUNC    WEAK   DEFAULT    8 _ZN3rtc16RefCountedObjectINS_25FireAndForgetAsyncClosureINS_14MethodFunctor4IN9twiliosdk18TSCSessionObserverEMS4_FvPNS3_11TSCEndpointEPNS3_10TSCSessionENS3_16_TSCoreErrorCodeENSt3__112basic_stringIcNSA_11char_traitsIcEENSA_9allocatorIcEEEEEvS6_S8_S9_SG_EEEEEC1ISJ_EET_
  1971: 00300c01    64 FUNC    WEAK   DEFAULT    8 _ZN3rtc14MethodFunctor2IN9twiliosdk10TSCSessionEMS2_FvbbEvbbEC2ES4_PS2_bb
  1972: 00302999    76 FUNC    WEAK   DEFAULT    8 _ZN3rtc16RefCountedObjectINS_25FireAndForgetAsyncClosureINS_14MethodFunctor2IN9twiliosdk10TSCSessionEMS4_FvbbEvbbEEEEEC1IS7_EET_
  1973: 00300cb9    70 FUNC    WEAK   DEFAULT    8 _ZN3rtc14MethodFunctor3IN9twiliosdk10TSCSessionEMS2_FvbbPNS_16RefCountedObjectINS1_14TSCConstraintsEEEEvbbS6_EC2ES8_PS2_bbS6_
  1974: 00302a45    76 FUNC    WEAK   DEFAULT    8 _ZN3rtc16RefCountedObjectINS_25FireAndForgetAsyncClosureINS_14MethodFunctor3IN9twiliosdk10TSCSessionEMS4_FvbbPNS0_INS3_14TSCConstraintsEEEEvbbS7_EEEEEC1ISA_EET_
  1975: 00300d89   118 FUNC    WEAK   DEFAULT    8 _ZN3rtc14MethodFunctor4IN9twiliosdk18TSCSessionObserverEMS2_FvNSt3__112basic_stringIcNS3_11char_traitsIcEENS3_9allocatorIcEEEES9_NS1_16_TSCoreErrorCodeES9_EvS9_S9_SA_S9_EC2ESC_PS2_S9_S9_SA_S9_
  1976: 00300e01   132 FUNC    WEAK   DEFAULT    8 _ZN3rtc14MethodFunctor4IN9twiliosdk18TSCSessionObserverEMS2_FvNSt3__112basic_stringIcNS3_11char_traitsIcEENS3_9allocatorIcEEEES9_NS1_16_TSCoreErrorCodeES9_EvS9_S9_SA_S9_EC2ERKSD_
  1977: 00300e01   132 FUNC    WEAK   DEFAULT    8 _ZN3rtc14MethodFunctor4IN9twiliosdk18TSCSessionObserverEMS2_FvNSt3__112basic_stringIcNS3_11char_traitsIcEENS3_9allocatorIcEEEES9_NS1_16_TSCoreErrorCodeES9_EvS9_S9_SA_S9_EC1ERKSD_
  1978: 00302af9    60 FUNC    WEAK   DEFAULT    8 _ZN3rtc16RefCountedObjectINS_25FireAndForgetAsyncClosureINS_14MethodFunctor4IN9twiliosdk18TSCSessionObserverEMS4_FvNSt3__112basic_stringIcNS5_11char_traitsIcEENS5_9allocatorIcEEEESB_NS3_16_TSCoreErrorCodeESB_EvSB_SB_SC_SB_EEEEEC1ISF_EET_
  1979: 00300f11    58 FUNC    WEAK   DEFAULT    8 _ZN3rtc14MethodFunctor1IN9twiliosdk18TSCSessionObserverEMS2_FvNS1_16_TSCSessionStateEEvS3_EC2ES5_PS2_S3_
  1980: 00302b95    76 FUNC    WEAK   DEFAULT    8 _ZN3rtc16RefCountedObjectINS_25FireAndForgetAsyncClosureINS_14MethodFunctor1IN9twiliosdk18TSCSessionObserverEMS4_FvNS3_16_TSCSessionStateEEvS5_EEEEEC1IS8_EET_
  1981: 00300fc5    94 FUNC    WEAK   DEFAULT    8 _ZN3rtc14MethodFunctor3IN9twiliosdk18TSCSessionObserverEMS2_FvNSt3__112basic_stringIcNS3_11char_traitsIcEENS3_9allocatorIcEEEES9_NS1_20_TSCDisconnectReasonEEvS9_S9_SA_EC2ESC_PS2_S9_S9_SA_
  1982: 00301025   102 FUNC    WEAK   DEFAULT    8 _ZN3rtc14MethodFunctor3IN9twiliosdk18TSCSessionObserverEMS2_FvNSt3__112basic_stringIcNS3_11char_traitsIcEENS3_9allocatorIcEEEES9_NS1_20_TSCDisconnectReasonEEvS9_S9_SA_EC2ERKSD_
  1983: 00301025   102 FUNC    WEAK   DEFAULT    8 _ZN3rtc14MethodFunctor3IN9twiliosdk18TSCSessionObserverEMS2_FvNSt3__112basic_stringIcNS3_11char_traitsIcEENS3_9allocatorIcEEEES9_NS1_20_TSCDisconnectReasonEEvS9_S9_SA_EC1ERKSD_
  1984: 00302c49    60 FUNC    WEAK   DEFAULT    8 _ZN3rtc16RefCountedObjectINS_25FireAndForgetAsyncClosureINS_14MethodFunctor3IN9twiliosdk18TSCSessionObserverEMS4_FvNSt3__112basic_stringIcNS5_11char_traitsIcEENS5_9allocatorIcEEEESB_NS3_20_TSCDisconnectReasonEEvSB_SB_SC_EEEEEC1ISF_EET_
  1985: 00301119    58 FUNC    WEAK   DEFAULT    8 _ZN3rtc14MethodFunctor1IN9twiliosdk18TSCSessionObserverEMS2_FvPNS_16RefCountedObjectINS1_18TSCMediaStreamInfoEEEEvS6_EC2ES8_PS2_S6_
  1986: 00302ce5    76 FUNC    WEAK   DEFAULT    8 _ZN3rtc16RefCountedObjectINS_25FireAndForgetAsyncClosureINS_14MethodFunctor1IN9twiliosdk18TSCSessionObserverEMS4_FvPNS0_INS3_18TSCMediaStreamInfoEEEEvS7_EEEEEC1ISA_EET_
  1987: 00302d31   116 FUNC    WEAK   DEFAULT    8 _ZNKSt3__16vectorIN9twiliosdk17TSCAudioTrackInfoENS_9allocatorIS2_EEE8max_sizeEv
  1988: 00302da5   162 FUNC    WEAK   DEFAULT    8 _ZNSt3__16vectorIN9twiliosdk17TSCAudioTrackInfoENS_9allocatorIS2_EEE14__annotate_newEj
  1989: 00302e49   116 FUNC    WEAK   DEFAULT    8 _ZNKSt3__16vectorIN9twiliosdk17TSCVideoTrackInfoENS_9allocatorIS2_EEE8max_sizeEv
  1990: 00302ebd   162 FUNC    WEAK   DEFAULT    8 _ZNSt3__16vectorIN9twiliosdk17TSCVideoTrackInfoENS_9allocatorIS2_EEE14__annotate_newEj
  1991: 00302f61    24 FUNC    WEAK   DEFAULT    8 _ZNSt3__16vectorIN9twiliosdk17TSCVideoTrackInfoENS_9allocatorIS2_EEE31__annotate_contiguous_containerEPKvS7_S7_S7_
  1992: 00302f79   196 FUNC    WEAK   DEFAULT    8 _ZNSt3__114__split_bufferIN9twiliosdk17TSCVideoTrackInfoERNS_9allocatorIS2_EEEC1EjjS5_
  1993: 0030311d   476 FUNC    WEAK   DEFAULT    8 _ZNSt3__16vectorIN9twiliosdk17TSCVideoTrackInfoENS_9allocatorIS2_EEE26__swap_out_circular_bufferERNS_14__split_bufferIS2_RS4_EE
  1994: 0030303d   222 FUNC    WEAK   DEFAULT    8 _ZNSt3__114__split_bufferIN9twiliosdk17TSCVideoTrackInfoERNS_9allocatorIS2_EEED1Ev
  1995: 0030169d    70 FUNC    WEAK   DEFAULT    8 _ZN3rtc14MethodFunctor3IN9twiliosdk18TSCSessionObserverEMS2_FvPNS1_10TSCSessionEPNS_16RefCountedObjectINS1_17TSCVideoTrackInfoEEEPN6webrtc19VideoTrackInterfaceEEvS4_S8_SB_EC2ESD_PS2_S4_S8_SB_
  1996: 00303359    76 FUNC    WEAK   DEFAULT    8 _ZN3rtc16RefCountedObjectINS_25FireAndForgetAsyncClosureINS_14MethodFunctor3IN9twiliosdk18TSCSessionObserverEMS4_FvPNS3_10TSCSessionEPNS0_INS3_17TSCVideoTrackInfoEEEPN6webrtc19VideoTrackInterfaceEEvS6_S9_SC_EEEEEC1ISF_EET_
  1997: 00301771    64 FUNC    WEAK   DEFAULT    8 _ZN3rtc14MethodFunctor2IN9twiliosdk18TSCSessionObserverEMS2_FvPNS1_10TSCSessionEPNS_16RefCountedObjectINS1_17TSCVideoTrackInfoEEEEvS4_S8_EC2ESA_PS2_S4_S8_
  1998: 00303495    76 FUNC    WEAK   DEFAULT    8 _ZN3rtc16RefCountedObjectINS_25FireAndForgetAsyncClosureINS_14MethodFunctor2IN9twiliosdk18TSCSessionObserverEMS4_FvPNS3_10TSCSessionEPNS0_INS3_17TSCVideoTrackInfoEEEEvS6_S9_EEEEEC1ISC_EET_
  1999: 003034e1   116 FUNC    WEAK   DEFAULT    8 _ZNKSt3__16vectorIN3rtc13scoped_refptrIN6webrtc19VideoTrackInterfaceEEENS_9allocatorIS5_EEE8max_sizeEv
  2000: 00303555   162 FUNC    WEAK   DEFAULT    8 _ZNSt3__16vectorIN3rtc13scoped_refptrIN6webrtc19VideoTrackInterfaceEEENS_9allocatorIS5_EEE14__annotate_newEj
  2001: 003035f9   166 FUNC    WEAK   DEFAULT    8 _ZNSt3__16vectorIN3rtc13scoped_refptrIN6webrtc19VideoTrackInterfaceEEENS_9allocatorIS5_EEE19__annotate_increaseEj
  2002: 00301969    58 FUNC    WEAK   DEFAULT    8 _ZN3rtc14MethodFunctor1IN9twiliosdk18TSCSessionObserverEMS2_FvPNS_16RefCountedObjectINS1_17TSCAudioTrackInfoEEEEvS6_EC2ES8_PS2_S6_
  2003: 00303701    76 FUNC    WEAK   DEFAULT    8 _ZN3rtc16RefCountedObjectINS_25FireAndForgetAsyncClosureINS_14MethodFunctor1IN9twiliosdk18TSCSessionObserverEMS4_FvPNS0_INS3_17TSCAudioTrackInfoEEEEvS7_EEEEEC1ISA_EET_
  2004: 003037dd   116 FUNC    WEAK   DEFAULT    8 _ZNKSt3__16vectorIN3rtc13scoped_refptrIN6webrtc19AudioTrackInterfaceEEENS_9allocatorIS5_EEE8max_sizeEv
  2005: 00303851   162 FUNC    WEAK   DEFAULT    8 _ZNSt3__16vectorIN3rtc13scoped_refptrIN6webrtc19AudioTrackInterfaceEEENS_9allocatorIS5_EEE14__annotate_newEj
  2006: 003038f5   166 FUNC    WEAK   DEFAULT    8 _ZNSt3__16vectorIN3rtc13scoped_refptrIN6webrtc19AudioTrackInterfaceEEENS_9allocatorIS5_EEE19__annotate_increaseEj
  2007: 0030399d    24 FUNC    WEAK   DEFAULT    8 _ZNSt3__16vectorIN9twiliosdk17TSCAudioTrackInfoENS_9allocatorIS2_EEE31__annotate_contiguous_containerEPKvS7_S7_S7_
  2008: 003039b5   196 FUNC    WEAK   DEFAULT    8 _ZNSt3__114__split_bufferIN9twiliosdk17TSCAudioTrackInfoERNS_9allocatorIS2_EEEC1EjjS5_
  2009: 00303b59   476 FUNC    WEAK   DEFAULT    8 _ZNSt3__16vectorIN9twiliosdk17TSCAudioTrackInfoENS_9allocatorIS2_EEE26__swap_out_circular_bufferERNS_14__split_bufferIS2_RS4_EE
  2010: 00303a79   222 FUNC    WEAK   DEFAULT    8 _ZNSt3__114__split_bufferIN9twiliosdk17TSCAudioTrackInfoERNS_9allocatorIS2_EEED1Ev
  2011: 00301dbd    64 FUNC    WEAK   DEFAULT    8 _ZN3rtc14MethodFunctor2IN9twiliosdk18TSCSessionObserverEMS2_FvPNS_16RefCountedObjectINS1_17TSCAudioTrackInfoEEEPN6webrtc19AudioTrackInterfaceEEvS6_S9_EC2ESB_PS2_S6_S9_
  2012: 00303d95    76 FUNC    WEAK   DEFAULT    8 _ZN3rtc16RefCountedObjectINS_25FireAndForgetAsyncClosureINS_14MethodFunctor2IN9twiliosdk18TSCSessionObserverEMS4_FvPNS0_INS3_17TSCAudioTrackInfoEEEPN6webrtc19AudioTrackInterfaceEEvS7_SA_EEEEEC1ISD_EET_
  2013: 00301e85    92 FUNC    WEAK   DEFAULT    8 _ZN3rtc14MethodFunctor1IN9twiliosdk18TSCSessionObserverEMS2_FvNSt3__110shared_ptrINS1_20TSCSessionStatisticsEEEEvS6_EC2ES8_PS2_S6_
  2014: 00301ee1    90 FUNC    WEAK   DEFAULT    8 _ZN3rtc14MethodFunctor1IN9twiliosdk18TSCSessionObserverEMS2_FvNSt3__110shared_ptrINS1_20TSCSessionStatisticsEEEEvS6_EC2ERKS9_
  2015: 00301ee1    90 FUNC    WEAK   DEFAULT    8 _ZN3rtc14MethodFunctor1IN9twiliosdk18TSCSessionObserverEMS2_FvNSt3__110shared_ptrINS1_20TSCSessionStatisticsEEEEvS6_EC1ERKS9_
  2016: 00303e49    60 FUNC    WEAK   DEFAULT    8 _ZN3rtc16RefCountedObjectINS_25FireAndForgetAsyncClosureINS_14MethodFunctor1IN9twiliosdk18TSCSessionObserverEMS4_FvNSt3__110shared_ptrINS3_20TSCSessionStatisticsEEEEvS8_EEEEEC1ISB_EET_
  2017: 00301fe1   196 FUNC    WEAK   DEFAULT    8 _ZNSt3__114__split_bufferIN3rtc13scoped_refptrIN9twiliosdk24TSCParticipantConnectionEEERNS_9allocatorIS5_EEEC2EjjS8_
  2018: 003020a5   216 FUNC    WEAK   DEFAULT    8 _ZNSt3__114__split_bufferIN3rtc13scoped_refptrIN9twiliosdk24TSCParticipantConnectionEEERNS_9allocatorIS5_EEED2Ev
  2019: 00303ef9   176 FUNC    WEAK   DEFAULT    8 _ZNSt3__16vectorIN3rtc13scoped_refptrIN9twiliosdk24TSCParticipantConnectionEEENS_9allocatorIS5_EEE17__annotate_deleteEv
  2020: 00303fa9   162 FUNC    WEAK   DEFAULT    8 _ZNSt3__16vectorIN3rtc13scoped_refptrIN9twiliosdk24TSCParticipantConnectionEEENS_9allocatorIS5_EEE14__annotate_newEj
  2021: 00302371   214 FUNC    WEAK   DEFAULT    8 _ZNSt3__114__split_bufferINS_4pairINS_12basic_stringIcNS_11char_traitsIcEENS_9allocatorIcEEEES7_EERNS5_IS8_EEEC2EjjSA_
  2022: 00302449   230 FUNC    WEAK   DEFAULT    8 _ZNSt3__114__split_bufferINS_4pairINS_12basic_stringIcNS_11char_traitsIcEENS_9allocatorIcEEEES7_EERNS5_IS8_EEED2Ev
  2023: 003040c5   238 FUNC    WEAK   DEFAULT    8 _ZNSt3__16vectorINS_4pairINS_12basic_stringIcNS_11char_traitsIcEENS_9allocatorIcEEEES7_EENS5_IS8_EEE17__annotate_deleteEv
  2024: 003041b5   210 FUNC    WEAK   DEFAULT    8 _ZNSt3__16vectorINS_4pairINS_12basic_stringIcNS_11char_traitsIcEENS_9allocatorIcEEEES7_EENS5_IS8_EEE14__annotate_newEj
  2025: 00302745    72 FUNC    WEAK   DEFAULT    8 _ZN3rtc25FireAndForgetAsyncClosureINS_14MethodFunctor2IN9twiliosdk24TSCParticipantConnectionEMS3_FvPNS2_17TSCSIPCallContextERKNSt3__112basic_stringIcNS6_11char_traitsIcEENS6_9allocatorIcEEEEEvS5_SE_EEED2Ev
  2026: 00a78a98    28 OBJECT  WEAK   DEFAULT   14 _ZTVN3rtc25FireAndForgetAsyncClosureINS_14MethodFunctor2IN9twiliosdk24TSCParticipantConnectionEMS3_FvPNS2_17TSCSIPCallContextERKNSt3__112basic_stringIcNS6_11char_traitsIcEENS6_9allocatorIcEEEEEvS5_SE_EEEE
  2027: 00302745    72 FUNC    WEAK   DEFAULT    8 _ZN3rtc25FireAndForgetAsyncClosureINS_14MethodFunctor2IN9twiliosdk24TSCParticipantConnectionEMS3_FvPNS2_17TSCSIPCallContextERKNSt3__112basic_stringIcNS6_11char_traitsIcEENS6_9allocatorIcEEEEEvS5_SE_EEED1Ev
  2028: 0030278d    32 FUNC    WEAK   DEFAULT    8 _ZN3rtc25FireAndForgetAsyncClosureINS_14MethodFunctor2IN9twiliosdk24TSCParticipantConnectionEMS3_FvPNS2_17TSCSIPCallContextERKNSt3__112basic_stringIcNS6_11char_traitsIcEENS6_9allocatorIcEEEEEvS5_SE_EEED0Ev
  2029: 003027ad    60 FUNC    WEAK   DEFAULT    8 _ZN3rtc16RefCountedObjectINS_25FireAndForgetAsyncClosureINS_14MethodFunctor2IN9twiliosdk24TSCParticipantConnectionEMS4_FvPNS3_17TSCSIPCallContextERKNSt3__112basic_stringIcNS7_11char_traitsIcEENS7_9allocatorIcEEEEEvS6_SF_EEEEEC2ISI_EET_
  2030: 00304289    80 FUNC    WEAK   DEFAULT    8 _ZN3rtc25FireAndForgetAsyncClosureINS_14MethodFunctor2IN9twiliosdk24TSCParticipantConnectionEMS3_FvPNS2_17TSCSIPCallContextERKNSt3__112basic_stringIcNS6_11char_traitsIcEENS6_9allocatorIcEEEEEvS5_SE_EEEC2ERKSH_
  2031: 00a78a78    32 OBJECT  WEAK   DEFAULT   14 _ZTVN3rtc16RefCountedObjectINS_25FireAndForgetAsyncClosureINS_14MethodFunctor2IN9twiliosdk24TSCParticipantConnectionEMS4_FvPNS3_17TSCSIPCallContextERKNSt3__112basic_stringIcNS7_11char_traitsIcEENS7_9allocatorIcEEEEEvS6_SF_EEEEEE
  2032: 003027e9    64 FUNC    WEAK   DEFAULT    8 _ZN3rtc25FireAndForgetAsyncClosureINS_14MethodFunctor2IN9twiliosdk10TSCSessionEMS3_FvPNS_16RefCountedObjectINS2_26TSCSessionMediaConstraintsEEEPNS4_INS2_14TSCConstraintsEEEEvS7_SA_EEED2Ev
  2033: 00a78a58    28 OBJECT  WEAK   DEFAULT   14 _ZTVN3rtc25FireAndForgetAsyncClosureINS_14MethodFunctor2IN9twiliosdk10TSCSessionEMS3_FvPNS_16RefCountedObjectINS2_26TSCSessionMediaConstraintsEEEPNS4_INS2_14TSCConstraintsEEEEvS7_SA_EEEE
  2034: 003027e9    64 FUNC    WEAK   DEFAULT    8 _ZN3rtc25FireAndForgetAsyncClosureINS_14MethodFunctor2IN9twiliosdk10TSCSessionEMS3_FvPNS_16RefCountedObjectINS2_26TSCSessionMediaConstraintsEEEPNS4_INS2_14TSCConstraintsEEEEvS7_SA_EEED1Ev
  2035: 00302829    32 FUNC    WEAK   DEFAULT    8 _ZN3rtc25FireAndForgetAsyncClosureINS_14MethodFunctor2IN9twiliosdk10TSCSessionEMS3_FvPNS_16RefCountedObjectINS2_26TSCSessionMediaConstraintsEEEPNS4_INS2_14TSCConstraintsEEEEvS7_SA_EEED0Ev
  2036: 00302849    76 FUNC    WEAK   DEFAULT    8 _ZN3rtc16RefCountedObjectINS_25FireAndForgetAsyncClosureINS_14MethodFunctor2IN9twiliosdk10TSCSessionEMS4_FvPNS0_INS3_26TSCSessionMediaConstraintsEEEPNS0_INS3_14TSCConstraintsEEEEvS7_SA_EEEEEC2ISD_EET_
  2037: 003042d9    68 FUNC    WEAK   DEFAULT    8 _ZN3rtc25FireAndForgetAsyncClosureINS_14MethodFunctor2IN9twiliosdk10TSCSessionEMS3_FvPNS_16RefCountedObjectINS2_26TSCSessionMediaConstraintsEEEPNS4_INS2_14TSCConstraintsEEEEvS7_SA_EEEC2ERKSD_
  2038: 00a78a38    32 OBJECT  WEAK   DEFAULT   14 _ZTVN3rtc16RefCountedObjectINS_25FireAndForgetAsyncClosureINS_14MethodFunctor2IN9twiliosdk10TSCSessionEMS4_FvPNS0_INS3_26TSCSessionMediaConstraintsEEEPNS0_INS3_14TSCConstraintsEEEEvS7_SA_EEEEEE
  2039: 00302895    72 FUNC    WEAK   DEFAULT    8 _ZN3rtc25FireAndForgetAsyncClosureINS_14MethodFunctor4IN9twiliosdk18TSCSessionObserverEMS3_FvPNS2_11TSCEndpointEPNS2_10TSCSessionENS2_16_TSCoreErrorCodeENSt3__112basic_stringIcNS9_11char_traitsIcEENS9_9allocatorIcEEEEEvS5_S7_S8_SF_EEED2Ev
  2040: 00a78a18    28 OBJECT  WEAK   DEFAULT   14 _ZTVN3rtc25FireAndForgetAsyncClosureINS_14MethodFunctor4IN9twiliosdk18TSCSessionObserverEMS3_FvPNS2_11TSCEndpointEPNS2_10TSCSessionENS2_16_TSCoreErrorCodeENSt3__112basic_stringIcNS9_11char_traitsIcEENS9_9allocatorIcEEEEEvS5_S7_S8_SF_EEEE
  2041: 00302895    72 FUNC    WEAK   DEFAULT    8 _ZN3rtc25FireAndForgetAsyncClosureINS_14MethodFunctor4IN9twiliosdk18TSCSessionObserverEMS3_FvPNS2_11TSCEndpointEPNS2_10TSCSessionENS2_16_TSCoreErrorCodeENSt3__112basic_stringIcNS9_11char_traitsIcEENS9_9allocatorIcEEEEEvS5_S7_S8_SF_EEED1Ev
  2042: 003028dd    32 FUNC    WEAK   DEFAULT    8 _ZN3rtc25FireAndForgetAsyncClosureINS_14MethodFunctor4IN9twiliosdk18TSCSessionObserverEMS3_FvPNS2_11TSCEndpointEPNS2_10TSCSessionENS2_16_TSCoreErrorCodeENSt3__112basic_stringIcNS9_11char_traitsIcEENS9_9allocatorIcEEEEEvS5_S7_S8_SF_EEED0Ev
  2043: 003028fd    60 FUNC    WEAK   DEFAULT    8 _ZN3rtc16RefCountedObjectINS_25FireAndForgetAsyncClosureINS_14MethodFunctor4IN9twiliosdk18TSCSessionObserverEMS4_FvPNS3_11TSCEndpointEPNS3_10TSCSessionENS3_16_TSCoreErrorCodeENSt3__112basic_stringIcNSA_11char_traitsIcEENSA_9allocatorIcEEEEEvS6_S8_S9_SG_EEEEEC2ISJ_EET_
  2044: 0030431d    80 FUNC    WEAK   DEFAULT    8 _ZN3rtc25FireAndForgetAsyncClosureINS_14MethodFunctor4IN9twiliosdk18TSCSessionObserverEMS3_FvPNS2_11TSCEndpointEPNS2_10TSCSessionENS2_16_TSCoreErrorCodeENSt3__112basic_stringIcNS9_11char_traitsIcEENS9_9allocatorIcEEEEEvS5_S7_S8_SF_EEEC2ERKSI_
  2045: 00a789f8    32 OBJECT  WEAK   DEFAULT   14 _ZTVN3rtc16RefCountedObjectINS_25FireAndForgetAsyncClosureINS_14MethodFunctor4IN9twiliosdk18TSCSessionObserverEMS4_FvPNS3_11TSCEndpointEPNS3_10TSCSessionENS3_16_TSCoreErrorCodeENSt3__112basic_stringIcNSA_11char_traitsIcEENSA_9allocatorIcEEEEEvS6_S8_S9_SG_EEEEEE
  2046: 00302939    64 FUNC    WEAK   DEFAULT    8 _ZN3rtc25FireAndForgetAsyncClosureINS_14MethodFunctor2IN9twiliosdk10TSCSessionEMS3_FvbbEvbbEEED2Ev
  2047: 00a789d8    28 OBJECT  WEAK   DEFAULT   14 _ZTVN3rtc25FireAndForgetAsyncClosureINS_14MethodFunctor2IN9twiliosdk10TSCSessionEMS3_FvbbEvbbEEEE
  2048: 00302939    64 FUNC    WEAK   DEFAULT    8 _ZN3rtc25FireAndForgetAsyncClosureINS_14MethodFunctor2IN9twiliosdk10TSCSessionEMS3_FvbbEvbbEEED1Ev
  2049: 00302979    32 FUNC    WEAK   DEFAULT    8 _ZN3rtc25FireAndForgetAsyncClosureINS_14MethodFunctor2IN9twiliosdk10TSCSessionEMS3_FvbbEvbbEEED0Ev
  2050: 00302999    76 FUNC    WEAK   DEFAULT    8 _ZN3rtc16RefCountedObjectINS_25FireAndForgetAsyncClosureINS_14MethodFunctor2IN9twiliosdk10TSCSessionEMS4_FvbbEvbbEEEEEC2IS7_EET_
  2051: 0030436d    68 FUNC    WEAK   DEFAULT    8 _ZN3rtc25FireAndForgetAsyncClosureINS_14MethodFunctor2IN9twiliosdk10TSCSessionEMS3_FvbbEvbbEEEC2ERKS6_
  2052: 00a789b8    32 OBJECT  WEAK   DEFAULT   14 _ZTVN3rtc16RefCountedObjectINS_25FireAndForgetAsyncClosureINS_14MethodFunctor2IN9twiliosdk10TSCSessionEMS4_FvbbEvbbEEEEEE
  2053: 003029e5    64 FUNC    WEAK   DEFAULT    8 _ZN3rtc25FireAndForgetAsyncClosureINS_14MethodFunctor3IN9twiliosdk10TSCSessionEMS3_FvbbPNS_16RefCountedObjectINS2_14TSCConstraintsEEEEvbbS7_EEED2Ev
  2054: 00a78998    28 OBJECT  WEAK   DEFAULT   14 _ZTVN3rtc25FireAndForgetAsyncClosureINS_14MethodFunctor3IN9twiliosdk10TSCSessionEMS3_FvbbPNS_16RefCountedObjectINS2_14TSCConstraintsEEEEvbbS7_EEEE
  2055: 003029e5    64 FUNC    WEAK   DEFAULT    8 _ZN3rtc25FireAndForgetAsyncClosureINS_14MethodFunctor3IN9twiliosdk10TSCSessionEMS3_FvbbPNS_16RefCountedObjectINS2_14TSCConstraintsEEEEvbbS7_EEED1Ev
  2056: 00302a25    32 FUNC    WEAK   DEFAULT    8 _ZN3rtc25FireAndForgetAsyncClosureINS_14MethodFunctor3IN9twiliosdk10TSCSessionEMS3_FvbbPNS_16RefCountedObjectINS2_14TSCConstraintsEEEEvbbS7_EEED0Ev
  2057: 00302a45    76 FUNC    WEAK   DEFAULT    8 _ZN3rtc16RefCountedObjectINS_25FireAndForgetAsyncClosureINS_14MethodFunctor3IN9twiliosdk10TSCSessionEMS4_FvbbPNS0_INS3_14TSCConstraintsEEEEvbbS7_EEEEEC2ISA_EET_
  2058: 003043b1    68 FUNC    WEAK   DEFAULT    8 _ZN3rtc25FireAndForgetAsyncClosureINS_14MethodFunctor3IN9twiliosdk10TSCSessionEMS3_FvbbPNS_16RefCountedObjectINS2_14TSCConstraintsEEEEvbbS7_EEEC2ERKSA_
  2059: 00a78978    32 OBJECT  WEAK   DEFAULT   14 _ZTVN3rtc16RefCountedObjectINS_25FireAndForgetAsyncClosureINS_14MethodFunctor3IN9twiliosdk10TSCSessionEMS4_FvbbPNS0_INS3_14TSCConstraintsEEEEvbbS7_EEEEEE
  2060: 00302a91    72 FUNC    WEAK   DEFAULT    8 _ZN3rtc25FireAndForgetAsyncClosureINS_14MethodFunctor4IN9twiliosdk18TSCSessionObserverEMS3_FvNSt3__112basic_stringIcNS4_11char_traitsIcEENS4_9allocatorIcEEEESA_NS2_16_TSCoreErrorCodeESA_EvSA_SA_SB_SA_EEED2Ev
  2061: 00a78958    28 OBJECT  WEAK   DEFAULT   14 _ZTVN3rtc25FireAndForgetAsyncClosureINS_14MethodFunctor4IN9twiliosdk18TSCSessionObserverEMS3_FvNSt3__112basic_stringIcNS4_11char_traitsIcEENS4_9allocatorIcEEEESA_NS2_16_TSCoreErrorCodeESA_EvSA_SA_SB_SA_EEEE
  2062: 00302a91    72 FUNC    WEAK   DEFAULT    8 _ZN3rtc25FireAndForgetAsyncClosureINS_14MethodFunctor4IN9twiliosdk18TSCSessionObserverEMS3_FvNSt3__112basic_stringIcNS4_11char_traitsIcEENS4_9allocatorIcEEEESA_NS2_16_TSCoreErrorCodeESA_EvSA_SA_SB_SA_EEED1Ev
  2063: 00302ad9    32 FUNC    WEAK   DEFAULT    8 _ZN3rtc25FireAndForgetAsyncClosureINS_14MethodFunctor4IN9twiliosdk18TSCSessionObserverEMS3_FvNSt3__112basic_stringIcNS4_11char_traitsIcEENS4_9allocatorIcEEEESA_NS2_16_TSCoreErrorCodeESA_EvSA_SA_SB_SA_EEED0Ev
  2064: 00302af9    60 FUNC    WEAK   DEFAULT    8 _ZN3rtc16RefCountedObjectINS_25FireAndForgetAsyncClosureINS_14MethodFunctor4IN9twiliosdk18TSCSessionObserverEMS4_FvNSt3__112basic_stringIcNS5_11char_traitsIcEENS5_9allocatorIcEEEESB_NS3_16_TSCoreErrorCodeESB_EvSB_SB_SC_SB_EEEEEC2ISF_EET_
  2065: 003043f5    80 FUNC    WEAK   DEFAULT    8 _ZN3rtc25FireAndForgetAsyncClosureINS_14MethodFunctor4IN9twiliosdk18TSCSessionObserverEMS3_FvNSt3__112basic_stringIcNS4_11char_traitsIcEENS4_9allocatorIcEEEESA_NS2_16_TSCoreErrorCodeESA_EvSA_SA_SB_SA_EEEC2ERKSE_
  2066: 00a78938    32 OBJECT  WEAK   DEFAULT   14 _ZTVN3rtc16RefCountedObjectINS_25FireAndForgetAsyncClosureINS_14MethodFunctor4IN9twiliosdk18TSCSessionObserverEMS4_FvNSt3__112basic_stringIcNS5_11char_traitsIcEENS5_9allocatorIcEEEESB_NS3_16_TSCoreErrorCodeESB_EvSB_SB_SC_SB_EEEEEE
  2067: 00302b35    64 FUNC    WEAK   DEFAULT    8 _ZN3rtc25FireAndForgetAsyncClosureINS_14MethodFunctor1IN9twiliosdk18TSCSessionObserverEMS3_FvNS2_16_TSCSessionStateEEvS4_EEED2Ev
  2068: 00a78918    28 OBJECT  WEAK   DEFAULT   14 _ZTVN3rtc25FireAndForgetAsyncClosureINS_14MethodFunctor1IN9twiliosdk18TSCSessionObserverEMS3_FvNS2_16_TSCSessionStateEEvS4_EEEE
  2069: 00302b35    64 FUNC    WEAK   DEFAULT    8 _ZN3rtc25FireAndForgetAsyncClosureINS_14MethodFunctor1IN9twiliosdk18TSCSessionObserverEMS3_FvNS2_16_TSCSessionStateEEvS4_EEED1Ev
  2070: 00302b75    32 FUNC    WEAK   DEFAULT    8 _ZN3rtc25FireAndForgetAsyncClosureINS_14MethodFunctor1IN9twiliosdk18TSCSessionObserverEMS3_FvNS2_16_TSCSessionStateEEvS4_EEED0Ev
  2071: 00302b95    76 FUNC    WEAK   DEFAULT    8 _ZN3rtc16RefCountedObjectINS_25FireAndForgetAsyncClosureINS_14MethodFunctor1IN9twiliosdk18TSCSessionObserverEMS4_FvNS3_16_TSCSessionStateEEvS5_EEEEEC2IS8_EET_
  2072: 00304445    68 FUNC    WEAK   DEFAULT    8 _ZN3rtc25FireAndForgetAsyncClosureINS_14MethodFunctor1IN9twiliosdk18TSCSessionObserverEMS3_FvNS2_16_TSCSessionStateEEvS4_EEEC2ERKS7_
  2073: 00a788f8    32 OBJECT  WEAK   DEFAULT   14 _ZTVN3rtc16RefCountedObjectINS_25FireAndForgetAsyncClosureINS_14MethodFunctor1IN9twiliosdk18TSCSessionObserverEMS4_FvNS3_16_TSCSessionStateEEvS5_EEEEEE
  2074: 00302be1    72 FUNC    WEAK   DEFAULT    8 _ZN3rtc25FireAndForgetAsyncClosureINS_14MethodFunctor3IN9twiliosdk18TSCSessionObserverEMS3_FvNSt3__112basic_stringIcNS4_11char_traitsIcEENS4_9allocatorIcEEEESA_NS2_20_TSCDisconnectReasonEEvSA_SA_SB_EEED2Ev
  2075: 00a788d8    28 OBJECT  WEAK   DEFAULT   14 _ZTVN3rtc25FireAndForgetAsyncClosureINS_14MethodFunctor3IN9twiliosdk18TSCSessionObserverEMS3_FvNSt3__112basic_stringIcNS4_11char_traitsIcEENS4_9allocatorIcEEEESA_NS2_20_TSCDisconnectReasonEEvSA_SA_SB_EEEE
  2076: 00302be1    72 FUNC    WEAK   DEFAULT    8 _ZN3rtc25FireAndForgetAsyncClosureINS_14MethodFunctor3IN9twiliosdk18TSCSessionObserverEMS3_FvNSt3__112basic_stringIcNS4_11char_traitsIcEENS4_9allocatorIcEEEESA_NS2_20_TSCDisconnectReasonEEvSA_SA_SB_EEED1Ev
  2077: 00302c29    32 FUNC    WEAK   DEFAULT    8 _ZN3rtc25FireAndForgetAsyncClosureINS_14MethodFunctor3IN9twiliosdk18TSCSessionObserverEMS3_FvNSt3__112basic_stringIcNS4_11char_traitsIcEENS4_9allocatorIcEEEESA_NS2_20_TSCDisconnectReasonEEvSA_SA_SB_EEED0Ev
  2078: 00302c49    60 FUNC    WEAK   DEFAULT    8 _ZN3rtc16RefCountedObjectINS_25FireAndForgetAsyncClosureINS_14MethodFunctor3IN9twiliosdk18TSCSessionObserverEMS4_FvNSt3__112basic_stringIcNS5_11char_traitsIcEENS5_9allocatorIcEEEESB_NS3_20_TSCDisconnectReasonEEvSB_SB_SC_EEEEEC2ISF_EET_
  2079: 00304489    80 FUNC    WEAK   DEFAULT    8 _ZN3rtc25FireAndForgetAsyncClosureINS_14MethodFunctor3IN9twiliosdk18TSCSessionObserverEMS3_FvNSt3__112basic_stringIcNS4_11char_traitsIcEENS4_9allocatorIcEEEESA_NS2_20_TSCDisconnectReasonEEvSA_SA_SB_EEEC2ERKSE_
  2080: 00a788b8    32 OBJECT  WEAK   DEFAULT   14 _ZTVN3rtc16RefCountedObjectINS_25FireAndForgetAsyncClosureINS_14MethodFunctor3IN9twiliosdk18TSCSessionObserverEMS4_FvNSt3__112basic_stringIcNS5_11char_traitsIcEENS5_9allocatorIcEEEESB_NS3_20_TSCDisconnectReasonEEvSB_SB_SC_EEEEEE
  2081: 00302c85    64 FUNC    WEAK   DEFAULT    8 _ZN3rtc25FireAndForgetAsyncClosureINS_14MethodFunctor1IN9twiliosdk18TSCSessionObserverEMS3_FvPNS_16RefCountedObjectINS2_18TSCMediaStreamInfoEEEEvS7_EEED2Ev
  2082: 00a78898    28 OBJECT  WEAK   DEFAULT   14 _ZTVN3rtc25FireAndForgetAsyncClosureINS_14MethodFunctor1IN9twiliosdk18TSCSessionObserverEMS3_FvPNS_16RefCountedObjectINS2_18TSCMediaStreamInfoEEEEvS7_EEEE
  2083: 00302c85    64 FUNC    WEAK   DEFAULT    8 _ZN3rtc25FireAndForgetAsyncClosureINS_14MethodFunctor1IN9twiliosdk18TSCSessionObserverEMS3_FvPNS_16RefCountedObjectINS2_18TSCMediaStreamInfoEEEEvS7_EEED1Ev
  2084: 00302cc5    32 FUNC    WEAK   DEFAULT    8 _ZN3rtc25FireAndForgetAsyncClosureINS_14MethodFunctor1IN9twiliosdk18TSCSessionObserverEMS3_FvPNS_16RefCountedObjectINS2_18TSCMediaStreamInfoEEEEvS7_EEED0Ev
  2085: 00302ce5    76 FUNC    WEAK   DEFAULT    8 _ZN3rtc16RefCountedObjectINS_25FireAndForgetAsyncClosureINS_14MethodFunctor1IN9twiliosdk18TSCSessionObserverEMS4_FvPNS0_INS3_18TSCMediaStreamInfoEEEEvS7_EEEEEC2ISA_EET_
  2086: 003044fd    68 FUNC    WEAK   DEFAULT    8 _ZN3rtc25FireAndForgetAsyncClosureINS_14MethodFunctor1IN9twiliosdk18TSCSessionObserverEMS3_FvPNS_16RefCountedObjectINS2_18TSCMediaStreamInfoEEEEvS7_EEEC2ERKSA_
  2087: 00a78878    32 OBJECT  WEAK   DEFAULT   14 _ZTVN3rtc16RefCountedObjectINS_25FireAndForgetAsyncClosureINS_14MethodFunctor1IN9twiliosdk18TSCSessionObserverEMS4_FvPNS0_INS3_18TSCMediaStreamInfoEEEEvS7_EEEEEE
  2088: 00302f79   196 FUNC    WEAK   DEFAULT    8 _ZNSt3__114__split_bufferIN9twiliosdk17TSCVideoTrackInfoERNS_9allocatorIS2_EEEC2EjjS5_
  2089: 0030303d   222 FUNC    WEAK   DEFAULT    8 _ZNSt3__114__split_bufferIN9twiliosdk17TSCVideoTrackInfoERNS_9allocatorIS2_EEED2Ev
  2090: 00304541   176 FUNC    WEAK   DEFAULT    8 _ZNSt3__16vectorIN9twiliosdk17TSCVideoTrackInfoENS_9allocatorIS2_EEE17__annotate_deleteEv
  2091: 003032f9    64 FUNC    WEAK   DEFAULT    8 _ZN3rtc25FireAndForgetAsyncClosureINS_14MethodFunctor3IN9twiliosdk18TSCSessionObserverEMS3_FvPNS2_10TSCSessionEPNS_16RefCountedObjectINS2_17TSCVideoTrackInfoEEEPN6webrtc19VideoTrackInterfaceEEvS5_S9_SC_EEED2Ev
  2092: 00a78858    28 OBJECT  WEAK   DEFAULT   14 _ZTVN3rtc25FireAndForgetAsyncClosureINS_14MethodFunctor3IN9twiliosdk18TSCSessionObserverEMS3_FvPNS2_10TSCSessionEPNS_16RefCountedObjectINS2_17TSCVideoTrackInfoEEEPN6webrtc19VideoTrackInterfaceEEvS5_S9_SC_EEEE
  2093: 003032f9    64 FUNC    WEAK   DEFAULT    8 _ZN3rtc25FireAndForgetAsyncClosureINS_14MethodFunctor3IN9twiliosdk18TSCSessionObserverEMS3_FvPNS2_10TSCSessionEPNS_16RefCountedObjectINS2_17TSCVideoTrackInfoEEEPN6webrtc19VideoTrackInterfaceEEvS5_S9_SC_EEED1Ev
  2094: 00303339    32 FUNC    WEAK   DEFAULT    8 _ZN3rtc25FireAndForgetAsyncClosureINS_14MethodFunctor3IN9twiliosdk18TSCSessionObserverEMS3_FvPNS2_10TSCSessionEPNS_16RefCountedObjectINS2_17TSCVideoTrackInfoEEEPN6webrtc19VideoTrackInterfaceEEvS5_S9_SC_EEED0Ev
  2095: 00303359    76 FUNC    WEAK   DEFAULT    8 _ZN3rtc16RefCountedObjectINS_25FireAndForgetAsyncClosureINS_14MethodFunctor3IN9twiliosdk18TSCSessionObserverEMS4_FvPNS3_10TSCSessionEPNS0_INS3_17TSCVideoTrackInfoEEEPN6webrtc19VideoTrackInterfaceEEvS6_S9_SC_EEEEEC2ISF_EET_
  2096: 003045f1    72 FUNC    WEAK   DEFAULT    8 _ZN3rtc25FireAndForgetAsyncClosureINS_14MethodFunctor3IN9twiliosdk18TSCSessionObserverEMS3_FvPNS2_10TSCSessionEPNS_16RefCountedObjectINS2_17TSCVideoTrackInfoEEEPN6webrtc19VideoTrackInterfaceEEvS5_S9_SC_EEEC2ERKSF_
  2097: 00a78838    32 OBJECT  WEAK   DEFAULT   14 _ZTVN3rtc16RefCountedObjectINS_25FireAndForgetAsyncClosureINS_14MethodFunctor3IN9twiliosdk18TSCSessionObserverEMS4_FvPNS3_10TSCSessionEPNS0_INS3_17TSCVideoTrackInfoEEEPN6webrtc19VideoTrackInterfaceEEvS6_S9_SC_EEEEEE
  2098: 00303435    64 FUNC    WEAK   DEFAULT    8 _ZN3rtc25FireAndForgetAsyncClosureINS_14MethodFunctor2IN9twiliosdk18TSCSessionObserverEMS3_FvPNS2_10TSCSessionEPNS_16RefCountedObjectINS2_17TSCVideoTrackInfoEEEEvS5_S9_EEED2Ev
  2099: 00a78818    28 OBJECT  WEAK   DEFAULT   14 _ZTVN3rtc25FireAndForgetAsyncClosureINS_14MethodFunctor2IN9twiliosdk18TSCSessionObserverEMS3_FvPNS2_10TSCSessionEPNS_16RefCountedObjectINS2_17TSCVideoTrackInfoEEEEvS5_S9_EEEE
  2100: 00303435    64 FUNC    WEAK   DEFAULT    8 _ZN3rtc25FireAndForgetAsyncClosureINS_14MethodFunctor2IN9twiliosdk18TSCSessionObserverEMS3_FvPNS2_10TSCSessionEPNS_16RefCountedObjectINS2_17TSCVideoTrackInfoEEEEvS5_S9_EEED1Ev
  2101: 00303475    32 FUNC    WEAK   DEFAULT    8 _ZN3rtc25FireAndForgetAsyncClosureINS_14MethodFunctor2IN9twiliosdk18TSCSessionObserverEMS3_FvPNS2_10TSCSessionEPNS_16RefCountedObjectINS2_17TSCVideoTrackInfoEEEEvS5_S9_EEED0Ev
  2102: 00303495    76 FUNC    WEAK   DEFAULT    8 _ZN3rtc16RefCountedObjectINS_25FireAndForgetAsyncClosureINS_14MethodFunctor2IN9twiliosdk18TSCSessionObserverEMS4_FvPNS3_10TSCSessionEPNS0_INS3_17TSCVideoTrackInfoEEEEvS6_S9_EEEEEC2ISC_EET_
  2103: 00304639    68 FUNC    WEAK   DEFAULT    8 _ZN3rtc25FireAndForgetAsyncClosureINS_14MethodFunctor2IN9twiliosdk18TSCSessionObserverEMS3_FvPNS2_10TSCSessionEPNS_16RefCountedObjectINS2_17TSCVideoTrackInfoEEEEvS5_S9_EEEC2ERKSC_
  2104: 00a787f8    32 OBJECT  WEAK   DEFAULT   14 _ZTVN3rtc16RefCountedObjectINS_25FireAndForgetAsyncClosureINS_14MethodFunctor2IN9twiliosdk18TSCSessionObserverEMS4_FvPNS3_10TSCSessionEPNS0_INS3_17TSCVideoTrackInfoEEEEvS6_S9_EEEEEE
  2105: 0030467d    24 FUNC    WEAK   DEFAULT    8 _ZNSt3__16vectorIN3rtc13scoped_refptrIN6webrtc19VideoTrackInterfaceEEENS_9allocatorIS5_EEE31__annotate_contiguous_containerEPKvSA_SA_SA_
  2106: 003036a1    64 FUNC    WEAK   DEFAULT    8 _ZN3rtc25FireAndForgetAsyncClosureINS_14MethodFunctor1IN9twiliosdk18TSCSessionObserverEMS3_FvPNS_16RefCountedObjectINS2_17TSCAudioTrackInfoEEEEvS7_EEED2Ev
  2107: 00a787d8    28 OBJECT  WEAK   DEFAULT   14 _ZTVN3rtc25FireAndForgetAsyncClosureINS_14MethodFunctor1IN9twiliosdk18TSCSessionObserverEMS3_FvPNS_16RefCountedObjectINS2_17TSCAudioTrackInfoEEEEvS7_EEEE
  2108: 003036a1    64 FUNC    WEAK   DEFAULT    8 _ZN3rtc25FireAndForgetAsyncClosureINS_14MethodFunctor1IN9twiliosdk18TSCSessionObserverEMS3_FvPNS_16RefCountedObjectINS2_17TSCAudioTrackInfoEEEEvS7_EEED1Ev
  2109: 003036e1    32 FUNC    WEAK   DEFAULT    8 _ZN3rtc25FireAndForgetAsyncClosureINS_14MethodFunctor1IN9twiliosdk18TSCSessionObserverEMS3_FvPNS_16RefCountedObjectINS2_17TSCAudioTrackInfoEEEEvS7_EEED0Ev
  2110: 00303701    76 FUNC    WEAK   DEFAULT    8 _ZN3rtc16RefCountedObjectINS_25FireAndForgetAsyncClosureINS_14MethodFunctor1IN9twiliosdk18TSCSessionObserverEMS4_FvPNS0_INS3_17TSCAudioTrackInfoEEEEvS7_EEEEEC2ISA_EET_
  2111: 00304695    68 FUNC    WEAK   DEFAULT    8 _ZN3rtc25FireAndForgetAsyncClosureINS_14MethodFunctor1IN9twiliosdk18TSCSessionObserverEMS3_FvPNS_16RefCountedObjectINS2_17TSCAudioTrackInfoEEEEvS7_EEEC2ERKSA_
  2112: 00a787b8    32 OBJECT  WEAK   DEFAULT   14 _ZTVN3rtc16RefCountedObjectINS_25FireAndForgetAsyncClosureINS_14MethodFunctor1IN9twiliosdk18TSCSessionObserverEMS4_FvPNS0_INS3_17TSCAudioTrackInfoEEEEvS7_EEEEEE
  2113: 003046d9    24 FUNC    WEAK   DEFAULT    8 _ZNSt3__16vectorIN3rtc13scoped_refptrIN6webrtc19AudioTrackInterfaceEEENS_9allocatorIS5_EEE31__annotate_contiguous_containerEPKvSA_SA_SA_
  2114: 003039b5   196 FUNC    WEAK   DEFAULT    8 _ZNSt3__114__split_bufferIN9twiliosdk17TSCAudioTrackInfoERNS_9allocatorIS2_EEEC2EjjS5_
  2115: 00303a79   222 FUNC    WEAK   DEFAULT    8 _ZNSt3__114__split_bufferIN9twiliosdk17TSCAudioTrackInfoERNS_9allocatorIS2_EEED2Ev
  2116: 003046f1   176 FUNC    WEAK   DEFAULT    8 _ZNSt3__16vectorIN9twiliosdk17TSCAudioTrackInfoENS_9allocatorIS2_EEE17__annotate_deleteEv
  2117: 00303d35    64 FUNC    WEAK   DEFAULT    8 _ZN3rtc25FireAndForgetAsyncClosureINS_14MethodFunctor2IN9twiliosdk18TSCSessionObserverEMS3_FvPNS_16RefCountedObjectINS2_17TSCAudioTrackInfoEEEPN6webrtc19AudioTrackInterfaceEEvS7_SA_EEED2Ev
  2118: 00a78798    28 OBJECT  WEAK   DEFAULT   14 _ZTVN3rtc25FireAndForgetAsyncClosureINS_14MethodFunctor2IN9twiliosdk18TSCSessionObserverEMS3_FvPNS_16RefCountedObjectINS2_17TSCAudioTrackInfoEEEPN6webrtc19AudioTrackInterfaceEEvS7_SA_EEEE
  2119: 00303d35    64 FUNC    WEAK   DEFAULT    8 _ZN3rtc25FireAndForgetAsyncClosureINS_14MethodFunctor2IN9twiliosdk18TSCSessionObserverEMS3_FvPNS_16RefCountedObjectINS2_17TSCAudioTrackInfoEEEPN6webrtc19AudioTrackInterfaceEEvS7_SA_EEED1Ev
  2120: 00303d75    32 FUNC    WEAK   DEFAULT    8 _ZN3rtc25FireAndForgetAsyncClosureINS_14MethodFunctor2IN9twiliosdk18TSCSessionObserverEMS3_FvPNS_16RefCountedObjectINS2_17TSCAudioTrackInfoEEEPN6webrtc19AudioTrackInterfaceEEvS7_SA_EEED0Ev
  2121: 00303d95    76 FUNC    WEAK   DEFAULT    8 _ZN3rtc16RefCountedObjectINS_25FireAndForgetAsyncClosureINS_14MethodFunctor2IN9twiliosdk18TSCSessionObserverEMS4_FvPNS0_INS3_17TSCAudioTrackInfoEEEPN6webrtc19AudioTrackInterfaceEEvS7_SA_EEEEEC2ISD_EET_
  2122: 003047a1    68 FUNC    WEAK   DEFAULT    8 _ZN3rtc25FireAndForgetAsyncClosureINS_14MethodFunctor2IN9twiliosdk18TSCSessionObserverEMS3_FvPNS_16RefCountedObjectINS2_17TSCAudioTrackInfoEEEPN6webrtc19AudioTrackInterfaceEEvS7_SA_EEEC2ERKSD_
  2123: 00a78778    32 OBJECT  WEAK   DEFAULT   14 _ZTVN3rtc16RefCountedObjectINS_25FireAndForgetAsyncClosureINS_14MethodFunctor2IN9twiliosdk18TSCSessionObserverEMS4_FvPNS0_INS3_17TSCAudioTrackInfoEEEPN6webrtc19AudioTrackInterfaceEEvS7_SA_EEEEEE
  2124: 00303de1    72 FUNC    WEAK   DEFAULT    8 _ZN3rtc25FireAndForgetAsyncClosureINS_14MethodFunctor1IN9twiliosdk18TSCSessionObserverEMS3_FvNSt3__110shared_ptrINS2_20TSCSessionStatisticsEEEEvS7_EEED2Ev
  2125: 00a78758    28 OBJECT  WEAK   DEFAULT   14 _ZTVN3rtc25FireAndForgetAsyncClosureINS_14MethodFunctor1IN9twiliosdk18TSCSessionObserverEMS3_FvNSt3__110shared_ptrINS2_20TSCSessionStatisticsEEEEvS7_EEEE
  2126: 00303de1    72 FUNC    WEAK   DEFAULT    8 _ZN3rtc25FireAndForgetAsyncClosureINS_14MethodFunctor1IN9twiliosdk18TSCSessionObserverEMS3_FvNSt3__110shared_ptrINS2_20TSCSessionStatisticsEEEEvS7_EEED1Ev
  2127: 00303e29    32 FUNC    WEAK   DEFAULT    8 _ZN3rtc25FireAndForgetAsyncClosureINS_14MethodFunctor1IN9twiliosdk18TSCSessionObserverEMS3_FvNSt3__110shared_ptrINS2_20TSCSessionStatisticsEEEEvS7_EEED0Ev
  2128: 00303e49    60 FUNC    WEAK   DEFAULT    8 _ZN3rtc16RefCountedObjectINS_25FireAndForgetAsyncClosureINS_14MethodFunctor1IN9twiliosdk18TSCSessionObserverEMS4_FvNSt3__110shared_ptrINS3_20TSCSessionStatisticsEEEEvS8_EEEEEC2ISB_EET_
  2129: 003047e5    64 FUNC    WEAK   DEFAULT    8 _ZN3rtc25FireAndForgetAsyncClosureINS_14MethodFunctor1IN9twiliosdk18TSCSessionObserverEMS3_FvNSt3__110shared_ptrINS2_20TSCSessionStatisticsEEEEvS7_EEEC2ERKSA_
  2130: 00a78738    32 OBJECT  WEAK   DEFAULT   14 _ZTVN3rtc16RefCountedObjectINS_25FireAndForgetAsyncClosureINS_14MethodFunctor1IN9twiliosdk18TSCSessionObserverEMS4_FvNSt3__110shared_ptrINS3_20TSCSessionStatisticsEEEEvS8_EEEEEE
  2131: 00304289    80 FUNC    WEAK   DEFAULT    8 _ZN3rtc25FireAndForgetAsyncClosureINS_14MethodFunctor2IN9twiliosdk24TSCParticipantConnectionEMS3_FvPNS2_17TSCSIPCallContextERKNSt3__112basic_stringIcNS6_11char_traitsIcEENS6_9allocatorIcEEEEEvS5_SE_EEEC1ERKSH_
  2132: 003042d9    68 FUNC    WEAK   DEFAULT    8 _ZN3rtc25FireAndForgetAsyncClosureINS_14MethodFunctor2IN9twiliosdk10TSCSessionEMS3_FvPNS_16RefCountedObjectINS2_26TSCSessionMediaConstraintsEEEPNS4_INS2_14TSCConstraintsEEEEvS7_SA_EEEC1ERKSD_
  2133: 0030431d    80 FUNC    WEAK   DEFAULT    8 _ZN3rtc25FireAndForgetAsyncClosureINS_14MethodFunctor4IN9twiliosdk18TSCSessionObserverEMS3_FvPNS2_11TSCEndpointEPNS2_10TSCSessionENS2_16_TSCoreErrorCodeENSt3__112basic_stringIcNS9_11char_traitsIcEENS9_9allocatorIcEEEEEvS5_S7_S8_SF_EEEC1ERKSI_
  2134: 0030436d    68 FUNC    WEAK   DEFAULT    8 _ZN3rtc25FireAndForgetAsyncClosureINS_14MethodFunctor2IN9twiliosdk10TSCSessionEMS3_FvbbEvbbEEEC1ERKS6_
  2135: 003043b1    68 FUNC    WEAK   DEFAULT    8 _ZN3rtc25FireAndForgetAsyncClosureINS_14MethodFunctor3IN9twiliosdk10TSCSessionEMS3_FvbbPNS_16RefCountedObjectINS2_14TSCConstraintsEEEEvbbS7_EEEC1ERKSA_
  2136: 003043f5    80 FUNC    WEAK   DEFAULT    8 _ZN3rtc25FireAndForgetAsyncClosureINS_14MethodFunctor4IN9twiliosdk18TSCSessionObserverEMS3_FvNSt3__112basic_stringIcNS4_11char_traitsIcEENS4_9allocatorIcEEEESA_NS2_16_TSCoreErrorCodeESA_EvSA_SA_SB_SA_EEEC1ERKSE_
  2137: 00304445    68 FUNC    WEAK   DEFAULT    8 _ZN3rtc25FireAndForgetAsyncClosureINS_14MethodFunctor1IN9twiliosdk18TSCSessionObserverEMS3_FvNS2_16_TSCSessionStateEEvS4_EEEC1ERKS7_
  2138: 00304489    80 FUNC    WEAK   DEFAULT    8 _ZN3rtc25FireAndForgetAsyncClosureINS_14MethodFunctor3IN9twiliosdk18TSCSessionObserverEMS3_FvNSt3__112basic_stringIcNS4_11char_traitsIcEENS4_9allocatorIcEEEESA_NS2_20_TSCDisconnectReasonEEvSA_SA_SB_EEEC1ERKSE_
  2139: 00304825    70 FUNC    WEAK   DEFAULT    8 _ZN3rtc13scoped_refptrIN9twiliosdk24TSCParticipantConnectionEEaSEPS2_
  2140: 003044fd    68 FUNC    WEAK   DEFAULT    8 _ZN3rtc25FireAndForgetAsyncClosureINS_14MethodFunctor1IN9twiliosdk18TSCSessionObserverEMS3_FvPNS_16RefCountedObjectINS2_18TSCMediaStreamInfoEEEEvS7_EEEC1ERKSA_
  2141: 003045f1    72 FUNC    WEAK   DEFAULT    8 _ZN3rtc25FireAndForgetAsyncClosureINS_14MethodFunctor3IN9twiliosdk18TSCSessionObserverEMS3_FvPNS2_10TSCSessionEPNS_16RefCountedObjectINS2_17TSCVideoTrackInfoEEEPN6webrtc19VideoTrackInterfaceEEvS5_S9_SC_EEEC1ERKSF_
  2142: 00304639    68 FUNC    WEAK   DEFAULT    8 _ZN3rtc25FireAndForgetAsyncClosureINS_14MethodFunctor2IN9twiliosdk18TSCSessionObserverEMS3_FvPNS2_10TSCSessionEPNS_16RefCountedObjectINS2_17TSCVideoTrackInfoEEEEvS5_S9_EEEC1ERKSC_
  2143: 00304695    68 FUNC    WEAK   DEFAULT    8 _ZN3rtc25FireAndForgetAsyncClosureINS_14MethodFunctor1IN9twiliosdk18TSCSessionObserverEMS3_FvPNS_16RefCountedObjectINS2_17TSCAudioTrackInfoEEEEvS7_EEEC1ERKSA_
  2144: 003047a1    68 FUNC    WEAK   DEFAULT    8 _ZN3rtc25FireAndForgetAsyncClosureINS_14MethodFunctor2IN9twiliosdk18TSCSessionObserverEMS3_FvPNS_16RefCountedObjectINS2_17TSCAudioTrackInfoEEEPN6webrtc19AudioTrackInterfaceEEvS7_SA_EEEC1ERKSD_
  2145: 003047e5    64 FUNC    WEAK   DEFAULT    8 _ZN3rtc25FireAndForgetAsyncClosureINS_14MethodFunctor1IN9twiliosdk18TSCSessionObserverEMS3_FvNSt3__110shared_ptrINS2_20TSCSessionStatisticsEEEEvS7_EEEC1ERKSA_
  2146: 00a78c70    12 OBJECT  WEAK   DEFAULT   14 _ZTIN3rtc16RefCountedObjectINS_25FireAndForgetAsyncClosureINS_14MethodFunctor1IN9twiliosdk18TSCSessionObserverEMS4_FvNSt3__110shared_ptrINS3_20TSCSessionStatisticsEEEEvS8_EEEEEE
  2147: 003048cd    30 FUNC    WEAK   DEFAULT    8 _ZNK3rtc16RefCountedObjectINS_25FireAndForgetAsyncClosureINS_14MethodFunctor1IN9twiliosdk18TSCSessionObserverEMS4_FvNSt3__110shared_ptrINS3_20TSCSessionStatisticsEEEEvS8_EEEEE6AddRefEv
  2148: 003048ed    56 FUNC    WEAK   DEFAULT    8 _ZNK3rtc16RefCountedObjectINS_25FireAndForgetAsyncClosureINS_14MethodFunctor1IN9twiliosdk18TSCSessionObserverEMS4_FvNSt3__110shared_ptrINS3_20TSCSessionStatisticsEEEEvS8_EEEEE7ReleaseEv
  2149: 00304925    64 FUNC    WEAK   DEFAULT    8 _ZN3rtc16RefCountedObjectINS_25FireAndForgetAsyncClosureINS_14MethodFunctor1IN9twiliosdk18TSCSessionObserverEMS4_FvNSt3__110shared_ptrINS3_20TSCSessionStatisticsEEEEvS8_EEEEED1Ev
  2150: 00304965    32 FUNC    WEAK   DEFAULT    8 _ZN3rtc16RefCountedObjectINS_25FireAndForgetAsyncClosureINS_14MethodFunctor1IN9twiliosdk18TSCSessionObserverEMS4_FvNSt3__110shared_ptrINS3_20TSCSessionStatisticsEEEEvS8_EEEEED0Ev
  2151: 00304985    24 FUNC    WEAK   DEFAULT    8 _ZN3rtc25FireAndForgetAsyncClosureINS_14MethodFunctor1IN9twiliosdk18TSCSessionObserverEMS3_FvNSt3__110shared_ptrINS2_20TSCSessionStatisticsEEEEvS7_EEE7ExecuteEv
  2152: 0030499d    38 FUNC    WEAK   DEFAULT    8 _ZNK3rtc16RefCountedObjectINS_25FireAndForgetAsyncClosureINS_14MethodFunctor1IN9twiliosdk18TSCSessionObserverEMS4_FvNSt3__110shared_ptrINS3_20TSCSessionStatisticsEEEEvS8_EEEEE9HasOneRefEv
  2153: 00a78c7c    12 OBJECT  WEAK   DEFAULT   14 _ZTIN3rtc25FireAndForgetAsyncClosureINS_14MethodFunctor1IN9twiliosdk18TSCSessionObserverEMS3_FvNSt3__110shared_ptrINS2_20TSCSessionStatisticsEEEEvS7_EEEE
  2154: 00a78c88    12 OBJECT  WEAK   DEFAULT   14 _ZTIN3rtc16RefCountedObjectINS_25FireAndForgetAsyncClosureINS_14MethodFunctor2IN9twiliosdk18TSCSessionObserverEMS4_FvPNS0_INS3_17TSCAudioTrackInfoEEEPN6webrtc19AudioTrackInterfaceEEvS7_SA_EEEEEE
  2155: 003049c5    30 FUNC    WEAK   DEFAULT    8 _ZNK3rtc16RefCountedObjectINS_25FireAndForgetAsyncClosureINS_14MethodFunctor2IN9twiliosdk18TSCSessionObserverEMS4_FvPNS0_INS3_17TSCAudioTrackInfoEEEPN6webrtc19AudioTrackInterfaceEEvS7_SA_EEEEE6AddRefEv
  2156: 003049e5    56 FUNC    WEAK   DEFAULT    8 _ZNK3rtc16RefCountedObjectINS_25FireAndForgetAsyncClosureINS_14MethodFunctor2IN9twiliosdk18TSCSessionObserverEMS4_FvPNS0_INS3_17TSCAudioTrackInfoEEEPN6webrtc19AudioTrackInterfaceEEvS7_SA_EEEEE7ReleaseEv
  2157: 00304a1d    64 FUNC    WEAK   DEFAULT    8 _ZN3rtc16RefCountedObjectINS_25FireAndForgetAsyncClosureINS_14MethodFunctor2IN9twiliosdk18TSCSessionObserverEMS4_FvPNS0_INS3_17TSCAudioTrackInfoEEEPN6webrtc19AudioTrackInterfaceEEvS7_SA_EEEEED1Ev
  2158: 00304a5d    32 FUNC    WEAK   DEFAULT    8 _ZN3rtc16RefCountedObjectINS_25FireAndForgetAsyncClosureINS_14MethodFunctor2IN9twiliosdk18TSCSessionObserverEMS4_FvPNS0_INS3_17TSCAudioTrackInfoEEEPN6webrtc19AudioTrackInterfaceEEvS7_SA_EEEEED0Ev
  2159: 00304a7d    24 FUNC    WEAK   DEFAULT    8 _ZN3rtc25FireAndForgetAsyncClosureINS_14MethodFunctor2IN9twiliosdk18TSCSessionObserverEMS3_FvPNS_16RefCountedObjectINS2_17TSCAudioTrackInfoEEEPN6webrtc19AudioTrackInterfaceEEvS7_SA_EEE7ExecuteEv
  2160: 00304a95    38 FUNC    WEAK   DEFAULT    8 _ZNK3rtc16RefCountedObjectINS_25FireAndForgetAsyncClosureINS_14MethodFunctor2IN9twiliosdk18TSCSessionObserverEMS4_FvPNS0_INS3_17TSCAudioTrackInfoEEEPN6webrtc19AudioTrackInterfaceEEvS7_SA_EEEEE9HasOneRefEv
  2161: 00a78c94    12 OBJECT  WEAK   DEFAULT   14 _ZTIN3rtc25FireAndForgetAsyncClosureINS_14MethodFunctor2IN9twiliosdk18TSCSessionObserverEMS3_FvPNS_16RefCountedObjectINS2_17TSCAudioTrackInfoEEEPN6webrtc19AudioTrackInterfaceEEvS7_SA_EEEE
  2162: 00a78ca0    12 OBJECT  WEAK   DEFAULT   14 _ZTIN3rtc16RefCountedObjectINS_25FireAndForgetAsyncClosureINS_14MethodFunctor1IN9twiliosdk18TSCSessionObserverEMS4_FvPNS0_INS3_17TSCAudioTrackInfoEEEEvS7_EEEEEE
  2163: 00304abd    30 FUNC    WEAK   DEFAULT    8 _ZNK3rtc16RefCountedObjectINS_25FireAndForgetAsyncClosureINS_14MethodFunctor1IN9twiliosdk18TSCSessionObserverEMS4_FvPNS0_INS3_17TSCAudioTrackInfoEEEEvS7_EEEEE6AddRefEv
  2164: 00304add    56 FUNC    WEAK   DEFAULT    8 _ZNK3rtc16RefCountedObjectINS_25FireAndForgetAsyncClosureINS_14MethodFunctor1IN9twiliosdk18TSCSessionObserverEMS4_FvPNS0_INS3_17TSCAudioTrackInfoEEEEvS7_EEEEE7ReleaseEv
  2165: 00304b15    64 FUNC    WEAK   DEFAULT    8 _ZN3rtc16RefCountedObjectINS_25FireAndForgetAsyncClosureINS_14MethodFunctor1IN9twiliosdk18TSCSessionObserverEMS4_FvPNS0_INS3_17TSCAudioTrackInfoEEEEvS7_EEEEED1Ev
  2166: 00304b55    32 FUNC    WEAK   DEFAULT    8 _ZN3rtc16RefCountedObjectINS_25FireAndForgetAsyncClosureINS_14MethodFunctor1IN9twiliosdk18TSCSessionObserverEMS4_FvPNS0_INS3_17TSCAudioTrackInfoEEEEvS7_EEEEED0Ev
  2167: 00304b75    24 FUNC    WEAK   DEFAULT    8 _ZN3rtc25FireAndForgetAsyncClosureINS_14MethodFunctor1IN9twiliosdk18TSCSessionObserverEMS3_FvPNS_16RefCountedObjectINS2_17TSCAudioTrackInfoEEEEvS7_EEE7ExecuteEv
  2168: 00304b8d    38 FUNC    WEAK   DEFAULT    8 _ZNK3rtc16RefCountedObjectINS_25FireAndForgetAsyncClosureINS_14MethodFunctor1IN9twiliosdk18TSCSessionObserverEMS4_FvPNS0_INS3_17TSCAudioTrackInfoEEEEvS7_EEEEE9HasOneRefEv
  2169: 00a78cac    12 OBJECT  WEAK   DEFAULT   14 _ZTIN3rtc25FireAndForgetAsyncClosureINS_14MethodFunctor1IN9twiliosdk18TSCSessionObserverEMS3_FvPNS_16RefCountedObjectINS2_17TSCAudioTrackInfoEEEEvS7_EEEE
  2170: 00a78cb8    12 OBJECT  WEAK   DEFAULT   14 _ZTIN3rtc16RefCountedObjectINS_25FireAndForgetAsyncClosureINS_14MethodFunctor2IN9twiliosdk18TSCSessionObserverEMS4_FvPNS3_10TSCSessionEPNS0_INS3_17TSCVideoTrackInfoEEEEvS6_S9_EEEEEE
  2171: 00304bb5    30 FUNC    WEAK   DEFAULT    8 _ZNK3rtc16RefCountedObjectINS_25FireAndForgetAsyncClosureINS_14MethodFunctor2IN9twiliosdk18TSCSessionObserverEMS4_FvPNS3_10TSCSessionEPNS0_INS3_17TSCVideoTrackInfoEEEEvS6_S9_EEEEE6AddRefEv
  2172: 00304bd5    56 FUNC    WEAK   DEFAULT    8 _ZNK3rtc16RefCountedObjectINS_25FireAndForgetAsyncClosureINS_14MethodFunctor2IN9twiliosdk18TSCSessionObserverEMS4_FvPNS3_10TSCSessionEPNS0_INS3_17TSCVideoTrackInfoEEEEvS6_S9_EEEEE7ReleaseEv
  2173: 00304c0d    64 FUNC    WEAK   DEFAULT    8 _ZN3rtc16RefCountedObjectINS_25FireAndForgetAsyncClosureINS_14MethodFunctor2IN9twiliosdk18TSCSessionObserverEMS4_FvPNS3_10TSCSessionEPNS0_INS3_17TSCVideoTrackInfoEEEEvS6_S9_EEEEED1Ev
  2174: 00304c4d    32 FUNC    WEAK   DEFAULT    8 _ZN3rtc16RefCountedObjectINS_25FireAndForgetAsyncClosureINS_14MethodFunctor2IN9twiliosdk18TSCSessionObserverEMS4_FvPNS3_10TSCSessionEPNS0_INS3_17TSCVideoTrackInfoEEEEvS6_S9_EEEEED0Ev
  2175: 00304c6d    24 FUNC    WEAK   DEFAULT    8 _ZN3rtc25FireAndForgetAsyncClosureINS_14MethodFunctor2IN9twiliosdk18TSCSessionObserverEMS3_FvPNS2_10TSCSessionEPNS_16RefCountedObjectINS2_17TSCVideoTrackInfoEEEEvS5_S9_EEE7ExecuteEv
  2176: 00304c85    38 FUNC    WEAK   DEFAULT    8 _ZNK3rtc16RefCountedObjectINS_25FireAndForgetAsyncClosureINS_14MethodFunctor2IN9twiliosdk18TSCSessionObserverEMS4_FvPNS3_10TSCSessionEPNS0_INS3_17TSCVideoTrackInfoEEEEvS6_S9_EEEEE9HasOneRefEv
  2177: 00a78cc4    12 OBJECT  WEAK   DEFAULT   14 _ZTIN3rtc25FireAndForgetAsyncClosureINS_14MethodFunctor2IN9twiliosdk18TSCSessionObserverEMS3_FvPNS2_10TSCSessionEPNS_16RefCountedObjectINS2_17TSCVideoTrackInfoEEEEvS5_S9_EEEE
  2178: 00a78cd0    12 OBJECT  WEAK   DEFAULT   14 _ZTIN3rtc16RefCountedObjectINS_25FireAndForgetAsyncClosureINS_14MethodFunctor3IN9twiliosdk18TSCSessionObserverEMS4_FvPNS3_10TSCSessionEPNS0_INS3_17TSCVideoTrackInfoEEEPN6webrtc19VideoTrackInterfaceEEvS6_S9_SC_EEEEEE
  2179: 00304cad    30 FUNC    WEAK   DEFAULT    8 _ZNK3rtc16RefCountedObjectINS_25FireAndForgetAsyncClosureINS_14MethodFunctor3IN9twiliosdk18TSCSessionObserverEMS4_FvPNS3_10TSCSessionEPNS0_INS3_17TSCVideoTrackInfoEEEPN6webrtc19VideoTrackInterfaceEEvS6_S9_SC_EEEEE6AddRefEv
  2180: 00304ccd    56 FUNC    WEAK   DEFAULT    8 _ZNK3rtc16RefCountedObjectINS_25FireAndForgetAsyncClosureINS_14MethodFunctor3IN9twiliosdk18TSCSessionObserverEMS4_FvPNS3_10TSCSessionEPNS0_INS3_17TSCVideoTrackInfoEEEPN6webrtc19VideoTrackInterfaceEEvS6_S9_SC_EEEEE7ReleaseEv
  2181: 00304d05    64 FUNC    WEAK   DEFAULT    8 _ZN3rtc16RefCountedObjectINS_25FireAndForgetAsyncClosureINS_14MethodFunctor3IN9twiliosdk18TSCSessionObserverEMS4_FvPNS3_10TSCSessionEPNS0_INS3_17TSCVideoTrackInfoEEEPN6webrtc19VideoTrackInterfaceEEvS6_S9_SC_EEEEED1Ev
  2182: 00304d45    32 FUNC    WEAK   DEFAULT    8 _ZN3rtc16RefCountedObjectINS_25FireAndForgetAsyncClosureINS_14MethodFunctor3IN9twiliosdk18TSCSessionObserverEMS4_FvPNS3_10TSCSessionEPNS0_INS3_17TSCVideoTrackInfoEEEPN6webrtc19VideoTrackInterfaceEEvS6_S9_SC_EEEEED0Ev
  2183: 00304d65    24 FUNC    WEAK   DEFAULT    8 _ZN3rtc25FireAndForgetAsyncClosureINS_14MethodFunctor3IN9twiliosdk18TSCSessionObserverEMS3_FvPNS2_10TSCSessionEPNS_16RefCountedObjectINS2_17TSCVideoTrackInfoEEEPN6webrtc19VideoTrackInterfaceEEvS5_S9_SC_EEE7ExecuteEv
  2184: 00304d7d    38 FUNC    WEAK   DEFAULT    8 _ZNK3rtc16RefCountedObjectINS_25FireAndForgetAsyncClosureINS_14MethodFunctor3IN9twiliosdk18TSCSessionObserverEMS4_FvPNS3_10TSCSessionEPNS0_INS3_17TSCVideoTrackInfoEEEPN6webrtc19VideoTrackInterfaceEEvS6_S9_SC_EEEEE9HasOneRefEv
  2185: 00a78cdc    12 OBJECT  WEAK   DEFAULT   14 _ZTIN3rtc25FireAndForgetAsyncClosureINS_14MethodFunctor3IN9twiliosdk18TSCSessionObserverEMS3_FvPNS2_10TSCSessionEPNS_16RefCountedObjectINS2_17TSCVideoTrackInfoEEEPN6webrtc19VideoTrackInterfaceEEvS5_S9_SC_EEEE
  2186: 00a78ce8    12 OBJECT  WEAK   DEFAULT   14 _ZTIN3rtc16RefCountedObjectINS_25FireAndForgetAsyncClosureINS_14MethodFunctor1IN9twiliosdk18TSCSessionObserverEMS4_FvPNS0_INS3_18TSCMediaStreamInfoEEEEvS7_EEEEEE
  2187: 00304da5    30 FUNC    WEAK   DEFAULT    8 _ZNK3rtc16RefCountedObjectINS_25FireAndForgetAsyncClosureINS_14MethodFunctor1IN9twiliosdk18TSCSessionObserverEMS4_FvPNS0_INS3_18TSCMediaStreamInfoEEEEvS7_EEEEE6AddRefEv
  2188: 00304dc5    56 FUNC    WEAK   DEFAULT    8 _ZNK3rtc16RefCountedObjectINS_25FireAndForgetAsyncClosureINS_14MethodFunctor1IN9twiliosdk18TSCSessionObserverEMS4_FvPNS0_INS3_18TSCMediaStreamInfoEEEEvS7_EEEEE7ReleaseEv
  2189: 00304dfd    64 FUNC    WEAK   DEFAULT    8 _ZN3rtc16RefCountedObjectINS_25FireAndForgetAsyncClosureINS_14MethodFunctor1IN9twiliosdk18TSCSessionObserverEMS4_FvPNS0_INS3_18TSCMediaStreamInfoEEEEvS7_EEEEED1Ev
  2190: 00304e3d    32 FUNC    WEAK   DEFAULT    8 _ZN3rtc16RefCountedObjectINS_25FireAndForgetAsyncClosureINS_14MethodFunctor1IN9twiliosdk18TSCSessionObserverEMS4_FvPNS0_INS3_18TSCMediaStreamInfoEEEEvS7_EEEEED0Ev
  2191: 00304e5d    24 FUNC    WEAK   DEFAULT    8 _ZN3rtc25FireAndForgetAsyncClosureINS_14MethodFunctor1IN9twiliosdk18TSCSessionObserverEMS3_FvPNS_16RefCountedObjectINS2_18TSCMediaStreamInfoEEEEvS7_EEE7ExecuteEv
  2192: 00304e75    38 FUNC    WEAK   DEFAULT    8 _ZNK3rtc16RefCountedObjectINS_25FireAndForgetAsyncClosureINS_14MethodFunctor1IN9twiliosdk18TSCSessionObserverEMS4_FvPNS0_INS3_18TSCMediaStreamInfoEEEEvS7_EEEEE9HasOneRefEv
  2193: 00a78cf4    12 OBJECT  WEAK   DEFAULT   14 _ZTIN3rtc25FireAndForgetAsyncClosureINS_14MethodFunctor1IN9twiliosdk18TSCSessionObserverEMS3_FvPNS_16RefCountedObjectINS2_18TSCMediaStreamInfoEEEEvS7_EEEE
  2194: 00a78d00    12 OBJECT  WEAK   DEFAULT   14 _ZTIN3rtc16RefCountedObjectINS_25FireAndForgetAsyncClosureINS_14MethodFunctor3IN9twiliosdk18TSCSessionObserverEMS4_FvNSt3__112basic_stringIcNS5_11char_traitsIcEENS5_9allocatorIcEEEESB_NS3_20_TSCDisconnectReasonEEvSB_SB_SC_EEEEEE
  2195: 00304e9d    30 FUNC    WEAK   DEFAULT    8 _ZNK3rtc16RefCountedObjectINS_25FireAndForgetAsyncClosureINS_14MethodFunctor3IN9twiliosdk18TSCSessionObserverEMS4_FvNSt3__112basic_stringIcNS5_11char_traitsIcEENS5_9allocatorIcEEEESB_NS3_20_TSCDisconnectReasonEEvSB_SB_SC_EEEEE6AddRefEv
  2196: 00304ebd    56 FUNC    WEAK   DEFAULT    8 _ZNK3rtc16RefCountedObjectINS_25FireAndForgetAsyncClosureINS_14MethodFunctor3IN9twiliosdk18TSCSessionObserverEMS4_FvNSt3__112basic_stringIcNS5_11char_traitsIcEENS5_9allocatorIcEEEESB_NS3_20_TSCDisconnectReasonEEvSB_SB_SC_EEEEE7ReleaseEv
  2197: 00304ef5    64 FUNC    WEAK   DEFAULT    8 _ZN3rtc16RefCountedObjectINS_25FireAndForgetAsyncClosureINS_14MethodFunctor3IN9twiliosdk18TSCSessionObserverEMS4_FvNSt3__112basic_stringIcNS5_11char_traitsIcEENS5_9allocatorIcEEEESB_NS3_20_TSCDisconnectReasonEEvSB_SB_SC_EEEEED1Ev
  2198: 00304f35    32 FUNC    WEAK   DEFAULT    8 _ZN3rtc16RefCountedObjectINS_25FireAndForgetAsyncClosureINS_14MethodFunctor3IN9twiliosdk18TSCSessionObserverEMS4_FvNSt3__112basic_stringIcNS5_11char_traitsIcEENS5_9allocatorIcEEEESB_NS3_20_TSCDisconnectReasonEEvSB_SB_SC_EEEEED0Ev
  2199: 00304f55    24 FUNC    WEAK   DEFAULT    8 _ZN3rtc25FireAndForgetAsyncClosureINS_14MethodFunctor3IN9twiliosdk18TSCSessionObserverEMS3_FvNSt3__112basic_stringIcNS4_11char_traitsIcEENS4_9allocatorIcEEEESA_NS2_20_TSCDisconnectReasonEEvSA_SA_SB_EEE7ExecuteEv
  2200: 00304f6d    38 FUNC    WEAK   DEFAULT    8 _ZNK3rtc16RefCountedObjectINS_25FireAndForgetAsyncClosureINS_14MethodFunctor3IN9twiliosdk18TSCSessionObserverEMS4_FvNSt3__112basic_stringIcNS5_11char_traitsIcEENS5_9allocatorIcEEEESB_NS3_20_TSCDisconnectReasonEEvSB_SB_SC_EEEEE9HasOneRefEv
  2201: 00a78d0c    12 OBJECT  WEAK   DEFAULT   14 _ZTIN3rtc25FireAndForgetAsyncClosureINS_14MethodFunctor3IN9twiliosdk18TSCSessionObserverEMS3_FvNSt3__112basic_stringIcNS4_11char_traitsIcEENS4_9allocatorIcEEEESA_NS2_20_TSCDisconnectReasonEEvSA_SA_SB_EEEE
  2202: 00a78d18    12 OBJECT  WEAK   DEFAULT   14 _ZTIN3rtc16RefCountedObjectINS_25FireAndForgetAsyncClosureINS_14MethodFunctor1IN9twiliosdk18TSCSessionObserverEMS4_FvNS3_16_TSCSessionStateEEvS5_EEEEEE
  2203: 00304f95    30 FUNC    WEAK   DEFAULT    8 _ZNK3rtc16RefCountedObjectINS_25FireAndForgetAsyncClosureINS_14MethodFunctor1IN9twiliosdk18TSCSessionObserverEMS4_FvNS3_16_TSCSessionStateEEvS5_EEEEE6AddRefEv
  2204: 00304fb5    56 FUNC    WEAK   DEFAULT    8 _ZNK3rtc16RefCountedObjectINS_25FireAndForgetAsyncClosureINS_14MethodFunctor1IN9twiliosdk18TSCSessionObserverEMS4_FvNS3_16_TSCSessionStateEEvS5_EEEEE7ReleaseEv
  2205: 00304fed    64 FUNC    WEAK   DEFAULT    8 _ZN3rtc16RefCountedObjectINS_25FireAndForgetAsyncClosureINS_14MethodFunctor1IN9twiliosdk18TSCSessionObserverEMS4_FvNS3_16_TSCSessionStateEEvS5_EEEEED1Ev
  2206: 0030502d    32 FUNC    WEAK   DEFAULT    8 _ZN3rtc16RefCountedObjectINS_25FireAndForgetAsyncClosureINS_14MethodFunctor1IN9twiliosdk18TSCSessionObserverEMS4_FvNS3_16_TSCSessionStateEEvS5_EEEEED0Ev
  2207: 0030504d    24 FUNC    WEAK   DEFAULT    8 _ZN3rtc25FireAndForgetAsyncClosureINS_14MethodFunctor1IN9twiliosdk18TSCSessionObserverEMS3_FvNS2_16_TSCSessionStateEEvS4_EEE7ExecuteEv
  2208: 00305065    38 FUNC    WEAK   DEFAULT    8 _ZNK3rtc16RefCountedObjectINS_25FireAndForgetAsyncClosureINS_14MethodFunctor1IN9twiliosdk18TSCSessionObserverEMS4_FvNS3_16_TSCSessionStateEEvS5_EEEEE9HasOneRefEv
  2209: 00a78d24    12 OBJECT  WEAK   DEFAULT   14 _ZTIN3rtc25FireAndForgetAsyncClosureINS_14MethodFunctor1IN9twiliosdk18TSCSessionObserverEMS3_FvNS2_16_TSCSessionStateEEvS4_EEEE
  2210: 00a78d30    12 OBJECT  WEAK   DEFAULT   14 _ZTIN3rtc16RefCountedObjectINS_25FireAndForgetAsyncClosureINS_14MethodFunctor4IN9twiliosdk18TSCSessionObserverEMS4_FvNSt3__112basic_stringIcNS5_11char_traitsIcEENS5_9allocatorIcEEEESB_NS3_16_TSCoreErrorCodeESB_EvSB_SB_SC_SB_EEEEEE
  2211: 0030508d    30 FUNC    WEAK   DEFAULT    8 _ZNK3rtc16RefCountedObjectINS_25FireAndForgetAsyncClosureINS_14MethodFunctor4IN9twiliosdk18TSCSessionObserverEMS4_FvNSt3__112basic_stringIcNS5_11char_traitsIcEENS5_9allocatorIcEEEESB_NS3_16_TSCoreErrorCodeESB_EvSB_SB_SC_SB_EEEEE6AddRefEv
  2212: 003050ad    56 FUNC    WEAK   DEFAULT    8 _ZNK3rtc16RefCountedObjectINS_25FireAndForgetAsyncClosureINS_14MethodFunctor4IN9twiliosdk18TSCSessionObserverEMS4_FvNSt3__112basic_stringIcNS5_11char_traitsIcEENS5_9allocatorIcEEEESB_NS3_16_TSCoreErrorCodeESB_EvSB_SB_SC_SB_EEEEE7ReleaseEv
  2213: 003050e5    64 FUNC    WEAK   DEFAULT    8 _ZN3rtc16RefCountedObjectINS_25FireAndForgetAsyncClosureINS_14MethodFunctor4IN9twiliosdk18TSCSessionObserverEMS4_FvNSt3__112basic_stringIcNS5_11char_traitsIcEENS5_9allocatorIcEEEESB_NS3_16_TSCoreErrorCodeESB_EvSB_SB_SC_SB_EEEEED1Ev
  2214: 00305125    32 FUNC    WEAK   DEFAULT    8 _ZN3rtc16RefCountedObjectINS_25FireAndForgetAsyncClosureINS_14MethodFunctor4IN9twiliosdk18TSCSessionObserverEMS4_FvNSt3__112basic_stringIcNS5_11char_traitsIcEENS5_9allocatorIcEEEESB_NS3_16_TSCoreErrorCodeESB_EvSB_SB_SC_SB_EEEEED0Ev
  2215: 00305145    24 FUNC    WEAK   DEFAULT    8 _ZN3rtc25FireAndForgetAsyncClosureINS_14MethodFunctor4IN9twiliosdk18TSCSessionObserverEMS3_FvNSt3__112basic_stringIcNS4_11char_traitsIcEENS4_9allocatorIcEEEESA_NS2_16_TSCoreErrorCodeESA_EvSA_SA_SB_SA_EEE7ExecuteEv
  2216: 0030515d    38 FUNC    WEAK   DEFAULT    8 _ZNK3rtc16RefCountedObjectINS_25FireAndForgetAsyncClosureINS_14MethodFunctor4IN9twiliosdk18TSCSessionObserverEMS4_FvNSt3__112basic_stringIcNS5_11char_traitsIcEENS5_9allocatorIcEEEESB_NS3_16_TSCoreErrorCodeESB_EvSB_SB_SC_SB_EEEEE9HasOneRefEv
  2217: 00a78d3c    12 OBJECT  WEAK   DEFAULT   14 _ZTIN3rtc25FireAndForgetAsyncClosureINS_14MethodFunctor4IN9twiliosdk18TSCSessionObserverEMS3_FvNSt3__112basic_stringIcNS4_11char_traitsIcEENS4_9allocatorIcEEEESA_NS2_16_TSCoreErrorCodeESA_EvSA_SA_SB_SA_EEEE
  2218: 00a78d48    12 OBJECT  WEAK   DEFAULT   14 _ZTIN3rtc16RefCountedObjectINS_25FireAndForgetAsyncClosureINS_14MethodFunctor3IN9twiliosdk10TSCSessionEMS4_FvbbPNS0_INS3_14TSCConstraintsEEEEvbbS7_EEEEEE
  2219: 00305185    30 FUNC    WEAK   DEFAULT    8 _ZNK3rtc16RefCountedObjectINS_25FireAndForgetAsyncClosureINS_14MethodFunctor3IN9twiliosdk10TSCSessionEMS4_FvbbPNS0_INS3_14TSCConstraintsEEEEvbbS7_EEEEE6AddRefEv
  2220: 003051a5    56 FUNC    WEAK   DEFAULT    8 _ZNK3rtc16RefCountedObjectINS_25FireAndForgetAsyncClosureINS_14MethodFunctor3IN9twiliosdk10TSCSessionEMS4_FvbbPNS0_INS3_14TSCConstraintsEEEEvbbS7_EEEEE7ReleaseEv
  2221: 003051dd    64 FUNC    WEAK   DEFAULT    8 _ZN3rtc16RefCountedObjectINS_25FireAndForgetAsyncClosureINS_14MethodFunctor3IN9twiliosdk10TSCSessionEMS4_FvbbPNS0_INS3_14TSCConstraintsEEEEvbbS7_EEEEED1Ev
  2222: 0030521d    32 FUNC    WEAK   DEFAULT    8 _ZN3rtc16RefCountedObjectINS_25FireAndForgetAsyncClosureINS_14MethodFunctor3IN9twiliosdk10TSCSessionEMS4_FvbbPNS0_INS3_14TSCConstraintsEEEEvbbS7_EEEEED0Ev
  2223: 0030523d    24 FUNC    WEAK   DEFAULT    8 _ZN3rtc25FireAndForgetAsyncClosureINS_14MethodFunctor3IN9twiliosdk10TSCSessionEMS3_FvbbPNS_16RefCountedObjectINS2_14TSCConstraintsEEEEvbbS7_EEE7ExecuteEv
  2224: 00305255    38 FUNC    WEAK   DEFAULT    8 _ZNK3rtc16RefCountedObjectINS_25FireAndForgetAsyncClosureINS_14MethodFunctor3IN9twiliosdk10TSCSessionEMS4_FvbbPNS0_INS3_14TSCConstraintsEEEEvbbS7_EEEEE9HasOneRefEv
  2225: 00a78d54    12 OBJECT  WEAK   DEFAULT   14 _ZTIN3rtc25FireAndForgetAsyncClosureINS_14MethodFunctor3IN9twiliosdk10TSCSessionEMS3_FvbbPNS_16RefCountedObjectINS2_14TSCConstraintsEEEEvbbS7_EEEE
  2226: 00a78d60    12 OBJECT  WEAK   DEFAULT   14 _ZTIN3rtc16RefCountedObjectINS_25FireAndForgetAsyncClosureINS_14MethodFunctor2IN9twiliosdk10TSCSessionEMS4_FvbbEvbbEEEEEE
  2227: 0030527d    30 FUNC    WEAK   DEFAULT    8 _ZNK3rtc16RefCountedObjectINS_25FireAndForgetAsyncClosureINS_14MethodFunctor2IN9twiliosdk10TSCSessionEMS4_FvbbEvbbEEEEE6AddRefEv
  2228: 0030529d    56 FUNC    WEAK   DEFAULT    8 _ZNK3rtc16RefCountedObjectINS_25FireAndForgetAsyncClosureINS_14MethodFunctor2IN9twiliosdk10TSCSessionEMS4_FvbbEvbbEEEEE7ReleaseEv
  2229: 003052d5    64 FUNC    WEAK   DEFAULT    8 _ZN3rtc16RefCountedObjectINS_25FireAndForgetAsyncClosureINS_14MethodFunctor2IN9twiliosdk10TSCSessionEMS4_FvbbEvbbEEEEED1Ev
  2230: 00305315    32 FUNC    WEAK   DEFAULT    8 _ZN3rtc16RefCountedObjectINS_25FireAndForgetAsyncClosureINS_14MethodFunctor2IN9twiliosdk10TSCSessionEMS4_FvbbEvbbEEEEED0Ev
  2231: 00305335    24 FUNC    WEAK   DEFAULT    8 _ZN3rtc25FireAndForgetAsyncClosureINS_14MethodFunctor2IN9twiliosdk10TSCSessionEMS3_FvbbEvbbEEE7ExecuteEv
  2232: 0030534d    38 FUNC    WEAK   DEFAULT    8 _ZNK3rtc16RefCountedObjectINS_25FireAndForgetAsyncClosureINS_14MethodFunctor2IN9twiliosdk10TSCSessionEMS4_FvbbEvbbEEEEE9HasOneRefEv
  2233: 00a78d6c    12 OBJECT  WEAK   DEFAULT   14 _ZTIN3rtc25FireAndForgetAsyncClosureINS_14MethodFunctor2IN9twiliosdk10TSCSessionEMS3_FvbbEvbbEEEE
  2234: 00a78d78    12 OBJECT  WEAK   DEFAULT   14 _ZTIN3rtc16RefCountedObjectINS_25FireAndForgetAsyncClosureINS_14MethodFunctor4IN9twiliosdk18TSCSessionObserverEMS4_FvPNS3_11TSCEndpointEPNS3_10TSCSessionENS3_16_TSCoreErrorCodeENSt3__112basic_stringIcNSA_11char_traitsIcEENSA_9allocatorIcEEEEEvS6_S8_S9_SG_EEEEEE
  2235: 00305375    30 FUNC    WEAK   DEFAULT    8 _ZNK3rtc16RefCountedObjectINS_25FireAndForgetAsyncClosureINS_14MethodFunctor4IN9twiliosdk18TSCSessionObserverEMS4_FvPNS3_11TSCEndpointEPNS3_10TSCSessionENS3_16_TSCoreErrorCodeENSt3__112basic_stringIcNSA_11char_traitsIcEENSA_9allocatorIcEEEEEvS6_S8_S9_SG_EEEEE6AddRefEv
  2236: 00305395    56 FUNC    WEAK   DEFAULT    8 _ZNK3rtc16RefCountedObjectINS_25FireAndForgetAsyncClosureINS_14MethodFunctor4IN9twiliosdk18TSCSessionObserverEMS4_FvPNS3_11TSCEndpointEPNS3_10TSCSessionENS3_16_TSCoreErrorCodeENSt3__112basic_stringIcNSA_11char_traitsIcEENSA_9allocatorIcEEEEEvS6_S8_S9_SG_EEEEE7ReleaseEv
  2237: 003053cd    64 FUNC    WEAK   DEFAULT    8 _ZN3rtc16RefCountedObjectINS_25FireAndForgetAsyncClosureINS_14MethodFunctor4IN9twiliosdk18TSCSessionObserverEMS4_FvPNS3_11TSCEndpointEPNS3_10TSCSessionENS3_16_TSCoreErrorCodeENSt3__112basic_stringIcNSA_11char_traitsIcEENSA_9allocatorIcEEEEEvS6_S8_S9_SG_EEEEED1Ev
  2238: 0030540d    32 FUNC    WEAK   DEFAULT    8 _ZN3rtc16RefCountedObjectINS_25FireAndForgetAsyncClosureINS_14MethodFunctor4IN9twiliosdk18TSCSessionObserverEMS4_FvPNS3_11TSCEndpointEPNS3_10TSCSessionENS3_16_TSCoreErrorCodeENSt3__112basic_stringIcNSA_11char_traitsIcEENSA_9allocatorIcEEEEEvS6_S8_S9_SG_EEEEED0Ev
  2239: 0030542d    24 FUNC    WEAK   DEFAULT    8 _ZN3rtc25FireAndForgetAsyncClosureINS_14MethodFunctor4IN9twiliosdk18TSCSessionObserverEMS3_FvPNS2_11TSCEndpointEPNS2_10TSCSessionENS2_16_TSCoreErrorCodeENSt3__112basic_stringIcNS9_11char_traitsIcEENS9_9allocatorIcEEEEEvS5_S7_S8_SF_EEE7ExecuteEv
  2240: 00305445    38 FUNC    WEAK   DEFAULT    8 _ZNK3rtc16RefCountedObjectINS_25FireAndForgetAsyncClosureINS_14MethodFunctor4IN9twiliosdk18TSCSessionObserverEMS4_FvPNS3_11TSCEndpointEPNS3_10TSCSessionENS3_16_TSCoreErrorCodeENSt3__112basic_stringIcNSA_11char_traitsIcEENSA_9allocatorIcEEEEEvS6_S8_S9_SG_EEEEE9HasOneRefEv
  2241: 00a78d84    12 OBJECT  WEAK   DEFAULT   14 _ZTIN3rtc25FireAndForgetAsyncClosureINS_14MethodFunctor4IN9twiliosdk18TSCSessionObserverEMS3_FvPNS2_11TSCEndpointEPNS2_10TSCSessionENS2_16_TSCoreErrorCodeENSt3__112basic_stringIcNS9_11char_traitsIcEENS9_9allocatorIcEEEEEvS5_S7_S8_SF_EEEE
  2242: 00a78d90    12 OBJECT  WEAK   DEFAULT   14 _ZTIN3rtc16RefCountedObjectINS_25FireAndForgetAsyncClosureINS_14MethodFunctor2IN9twiliosdk10TSCSessionEMS4_FvPNS0_INS3_26TSCSessionMediaConstraintsEEEPNS0_INS3_14TSCConstraintsEEEEvS7_SA_EEEEEE
  2243: 0030546d    30 FUNC    WEAK   DEFAULT    8 _ZNK3rtc16RefCountedObjectINS_25FireAndForgetAsyncClosureINS_14MethodFunctor2IN9twiliosdk10TSCSessionEMS4_FvPNS0_INS3_26TSCSessionMediaConstraintsEEEPNS0_INS3_14TSCConstraintsEEEEvS7_SA_EEEEE6AddRefEv
  2244: 0030548d    56 FUNC    WEAK   DEFAULT    8 _ZNK3rtc16RefCountedObjectINS_25FireAndForgetAsyncClosureINS_14MethodFunctor2IN9twiliosdk10TSCSessionEMS4_FvPNS0_INS3_26TSCSessionMediaConstraintsEEEPNS0_INS3_14TSCConstraintsEEEEvS7_SA_EEEEE7ReleaseEv
  2245: 003054c5    64 FUNC    WEAK   DEFAULT    8 _ZN3rtc16RefCountedObjectINS_25FireAndForgetAsyncClosureINS_14MethodFunctor2IN9twiliosdk10TSCSessionEMS4_FvPNS0_INS3_26TSCSessionMediaConstraintsEEEPNS0_INS3_14TSCConstraintsEEEEvS7_SA_EEEEED1Ev
  2246: 00305505    32 FUNC    WEAK   DEFAULT    8 _ZN3rtc16RefCountedObjectINS_25FireAndForgetAsyncClosureINS_14MethodFunctor2IN9twiliosdk10TSCSessionEMS4_FvPNS0_INS3_26TSCSessionMediaConstraintsEEEPNS0_INS3_14TSCConstraintsEEEEvS7_SA_EEEEED0Ev
  2247: 00305525    24 FUNC    WEAK   DEFAULT    8 _ZN3rtc25FireAndForgetAsyncClosureINS_14MethodFunctor2IN9twiliosdk10TSCSessionEMS3_FvPNS_16RefCountedObjectINS2_26TSCSessionMediaConstraintsEEEPNS4_INS2_14TSCConstraintsEEEEvS7_SA_EEE7ExecuteEv
  2248: 0030553d    38 FUNC    WEAK   DEFAULT    8 _ZNK3rtc16RefCountedObjectINS_25FireAndForgetAsyncClosureINS_14MethodFunctor2IN9twiliosdk10TSCSessionEMS4_FvPNS0_INS3_26TSCSessionMediaConstraintsEEEPNS0_INS3_14TSCConstraintsEEEEvS7_SA_EEEEE9HasOneRefEv
  2249: 00a78d9c    12 OBJECT  WEAK   DEFAULT   14 _ZTIN3rtc25FireAndForgetAsyncClosureINS_14MethodFunctor2IN9twiliosdk10TSCSessionEMS3_FvPNS_16RefCountedObjectINS2_26TSCSessionMediaConstraintsEEEPNS4_INS2_14TSCConstraintsEEEEvS7_SA_EEEE
  2250: 00a78da8    12 OBJECT  WEAK   DEFAULT   14 _ZTIN3rtc16RefCountedObjectINS_25FireAndForgetAsyncClosureINS_14MethodFunctor2IN9twiliosdk24TSCParticipantConnectionEMS4_FvPNS3_17TSCSIPCallContextERKNSt3__112basic_stringIcNS7_11char_traitsIcEENS7_9allocatorIcEEEEEvS6_SF_EEEEEE
  2251: 00305565    30 FUNC    WEAK   DEFAULT    8 _ZNK3rtc16RefCountedObjectINS_25FireAndForgetAsyncClosureINS_14MethodFunctor2IN9twiliosdk24TSCParticipantConnectionEMS4_FvPNS3_17TSCSIPCallContextERKNSt3__112basic_stringIcNS7_11char_traitsIcEENS7_9allocatorIcEEEEEvS6_SF_EEEEE6AddRefEv
  2252: 00305585    56 FUNC    WEAK   DEFAULT    8 _ZNK3rtc16RefCountedObjectINS_25FireAndForgetAsyncClosureINS_14MethodFunctor2IN9twiliosdk24TSCParticipantConnectionEMS4_FvPNS3_17TSCSIPCallContextERKNSt3__112basic_stringIcNS7_11char_traitsIcEENS7_9allocatorIcEEEEEvS6_SF_EEEEE7ReleaseEv
  2253: 003055bd    64 FUNC    WEAK   DEFAULT    8 _ZN3rtc16RefCountedObjectINS_25FireAndForgetAsyncClosureINS_14MethodFunctor2IN9twiliosdk24TSCParticipantConnectionEMS4_FvPNS3_17TSCSIPCallContextERKNSt3__112basic_stringIcNS7_11char_traitsIcEENS7_9allocatorIcEEEEEvS6_SF_EEEEED1Ev
  2254: 003055fd    32 FUNC    WEAK   DEFAULT    8 _ZN3rtc16RefCountedObjectINS_25FireAndForgetAsyncClosureINS_14MethodFunctor2IN9twiliosdk24TSCParticipantConnectionEMS4_FvPNS3_17TSCSIPCallContextERKNSt3__112basic_stringIcNS7_11char_traitsIcEENS7_9allocatorIcEEEEEvS6_SF_EEEEED0Ev
  2255: 0030561d    24 FUNC    WEAK   DEFAULT    8 _ZN3rtc25FireAndForgetAsyncClosureINS_14MethodFunctor2IN9twiliosdk24TSCParticipantConnectionEMS3_FvPNS2_17TSCSIPCallContextERKNSt3__112basic_stringIcNS6_11char_traitsIcEENS6_9allocatorIcEEEEEvS5_SE_EEE7ExecuteEv
  2256: 00305635    38 FUNC    WEAK   DEFAULT    8 _ZNK3rtc16RefCountedObjectINS_25FireAndForgetAsyncClosureINS_14MethodFunctor2IN9twiliosdk24TSCParticipantConnectionEMS4_FvPNS3_17TSCSIPCallContextERKNSt3__112basic_stringIcNS7_11char_traitsIcEENS7_9allocatorIcEEEEEvS6_SF_EEEEE9HasOneRefEv
  2257: 00a78db4    12 OBJECT  WEAK   DEFAULT   14 _ZTIN3rtc25FireAndForgetAsyncClosureINS_14MethodFunctor2IN9twiliosdk24TSCParticipantConnectionEMS3_FvPNS2_17TSCSIPCallContextERKNSt3__112basic_stringIcNS6_11char_traitsIcEENS6_9allocatorIcEEEEEvS5_SE_EEEE
  2258: 00a78dc0    12 OBJECT  WEAK   DEFAULT   14 _ZTINSt3__120__shared_ptr_pointerIPN9twiliosdk20TSCSessionStatisticsENS_14default_deleteIS2_EENS_9allocatorIS2_EEEE
  2259: 0030486d    64 FUNC    WEAK   DEFAULT    8 _ZNSt3__120__shared_ptr_pointerIPN9twiliosdk20TSCSessionStatisticsENS_14default_deleteIS2_EENS_9allocatorIS2_EEED1Ev
  2260: 003048ad    32 FUNC    WEAK   DEFAULT    8 _ZNSt3__120__shared_ptr_pointerIPN9twiliosdk20TSCSessionStatisticsENS_14default_deleteIS2_EENS_9allocatorIS2_EEED0Ev
  2261: 0030565d    96 FUNC    WEAK   DEFAULT    8 _ZNSt3__120__shared_ptr_pointerIPN9twiliosdk20TSCSessionStatisticsENS_14default_deleteIS2_EENS_9allocatorIS2_EEE16__on_zero_sharedEv
  2262: 003056bd    88 FUNC    WEAK   DEFAULT    8 _ZNKSt3__120__shared_ptr_pointerIPN9twiliosdk20TSCSessionStatisticsENS_14default_deleteIS2_EENS_9allocatorIS2_EEE13__get_deleterERKSt9type_info
  2263: 00305715    52 FUNC    WEAK   DEFAULT    8 _ZNSt3__120__shared_ptr_pointerIPN9twiliosdk20TSCSessionStatisticsENS_14default_deleteIS2_EENS_9allocatorIS2_EEE21__on_zero_shared_weakEv
  2264: 0030486d    64 FUNC    WEAK   DEFAULT    8 _ZNSt3__120__shared_ptr_pointerIPN9twiliosdk20TSCSessionStatisticsENS_14default_deleteIS2_EENS_9allocatorIS2_EEED2Ev
  2265: 00a78dcc    12 OBJECT  WEAK   DEFAULT   14 _ZTIN3rtc16RefCountedObjectIN9twiliosdk17TSCAudioTrackInfoEEE
  2266: 00305749    64 FUNC    WEAK   DEFAULT    8 _ZN3rtc16RefCountedObjectIN9twiliosdk17TSCAudioTrackInfoEED1Ev
  2267: 00305789    32 FUNC    WEAK   DEFAULT    8 _ZN3rtc16RefCountedObjectIN9twiliosdk17TSCAudioTrackInfoEED0Ev
  2268: 003057a9    56 FUNC    WEAK   DEFAULT    8 _ZNK3rtc16RefCountedObjectIN9twiliosdk17TSCAudioTrackInfoEE7ReleaseEv
  2269: 003057e1    38 FUNC    WEAK   DEFAULT    8 _ZNK3rtc16RefCountedObjectIN9twiliosdk17TSCAudioTrackInfoEE9HasOneRefEv
  2270: 00a78dd8    12 OBJECT  WEAK   DEFAULT   14 _ZTIN3rtc16RefCountedObjectIN9twiliosdk17TSCVideoTrackInfoEEE
  2271: 00305809    64 FUNC    WEAK   DEFAULT    8 _ZN3rtc16RefCountedObjectIN9twiliosdk17TSCVideoTrackInfoEED1Ev
  2272: 00305849    32 FUNC    WEAK   DEFAULT    8 _ZN3rtc16RefCountedObjectIN9twiliosdk17TSCVideoTrackInfoEED0Ev
  2273: 00305869    56 FUNC    WEAK   DEFAULT    8 _ZNK3rtc16RefCountedObjectIN9twiliosdk17TSCVideoTrackInfoEE7ReleaseEv
  2274: 003058a1    38 FUNC    WEAK   DEFAULT    8 _ZNK3rtc16RefCountedObjectIN9twiliosdk17TSCVideoTrackInfoEE9HasOneRefEv
  2275: 00a78de4    24 OBJECT  WEAK   DEFAULT   14 _ZTIN3rtc16RefCountedObjectIN9twiliosdk26TSCSessionMediaConstraintsEEE
  2276: 00a78dfc    12 OBJECT  WEAK   DEFAULT   14 _ZTIN3rtc16RefCountedObjectIN9twiliosdk24TSCParticipantConnectionEEE
  2277: 003058c9    30 FUNC    WEAK   DEFAULT    8 _ZNK3rtc16RefCountedObjectIN9twiliosdk24TSCParticipantConnectionEE6AddRefEv
  2278: 003058e9    56 FUNC    WEAK   DEFAULT    8 _ZNK3rtc16RefCountedObjectIN9twiliosdk24TSCParticipantConnectionEE7ReleaseEv
  2279: 00305921    72 FUNC    WEAK   DEFAULT    8 _ZN3rtc16RefCountedObjectIN9twiliosdk24TSCParticipantConnectionEED1Ev
  2280: 00305971    32 FUNC    WEAK   DEFAULT    8 _ZN3rtc16RefCountedObjectIN9twiliosdk24TSCParticipantConnectionEED0Ev
  2281: 003e8c05  2404 FUNC    GLOBAL DEFAULT    8 _ZN9twiliosdk24TSCParticipantConnection17onCallStateChangeEiNS_10TSCSIPCall16_TSCSIPCallStateERKNS_19CallStateChangeInfoE
  2282: 003e9569   484 FUNC    GLOBAL DEFAULT    8 _ZN9twiliosdk24TSCParticipantConnection25onDidIceGatheringCompleteENS_16_TSCoreErrorCodeERKNSt3__112basic_stringIcNS2_11char_traitsIcEENS2_9allocatorIcEEEE
  2283: 003e9755   408 FUNC    GLOBAL DEFAULT    8 _ZN9twiliosdk24TSCParticipantConnection31onDidSetSessionLocalDescriptionENS_16_TSCoreErrorCodeERKNSt3__112basic_stringIcNS2_11char_traitsIcEENS2_9allocatorIcEEEE
  2284: 003e99e9  1108 FUNC    GLOBAL DEFAULT    8 _ZN9twiliosdk24TSCParticipantConnection32onDidSetSessionRemoteDescriptionENS_16_TSCoreErrorCodeERKNSt3__112basic_stringIcNS2_11char_traitsIcEENS2_9allocatorIcEEEE
  2285: 003e9e45    92 FUNC    GLOBAL DEFAULT    8 _ZN9twiliosdk24TSCParticipantConnection26onDidConnectPeerConnectionENS_16_TSCoreErrorCodeERKNSt3__112basic_stringIcNS2_11char_traitsIcEENS2_9allocatorIcEEEE
  2286: 003e9ea9    88 FUNC    GLOBAL DEFAULT    8 _ZN9twiliosdk24TSCParticipantConnection29onDidDisconnectPeerConnectionENS_20_TSCDisconnectReasonE
  2287: 003e9f09   122 FUNC    GLOBAL DEFAULT    8 _ZN9twiliosdk24TSCParticipantConnection20onDidAddRemoteStreamEPN6webrtc20MediaStreamInterfaceE
  2288: 003e9f8d    88 FUNC    GLOBAL DEFAULT    8 _ZN9twiliosdk24TSCParticipantConnection23onDidRemoveRemoteStreamEPN6webrtc20MediaStreamInterfaceE
  2289: 00305999    38 FUNC    WEAK   DEFAULT    8 _ZNK3rtc16RefCountedObjectIN9twiliosdk24TSCParticipantConnectionEE9HasOneRefEv
  2290: 00305969     8 FUNC    WEAK   DEFAULT    8 _ZThn4_N3rtc16RefCountedObjectIN9twiliosdk24TSCParticipantConnectionEED1Ev
  2291: 00305991     6 FUNC    WEAK   DEFAULT    8 _ZThn4_N3rtc16RefCountedObjectIN9twiliosdk24TSCParticipantConnectionEED0Ev
  2292: 003e974d     6 FUNC    GLOBAL DEFAULT    8 _ZThn4_N9twiliosdk24TSCParticipantConnection25onDidIceGatheringCompleteENS_16_TSCoreErrorCodeERKNSt3__112basic_stringIcNS2_11char_traitsIcEENS2_9allocatorIcEEEE
  2293: 003e98ed     6 FUNC    GLOBAL DEFAULT    8 _ZThn4_N9twiliosdk24TSCParticipantConnection31onDidSetSessionLocalDescriptionENS_16_TSCoreErrorCodeERKNSt3__112basic_stringIcNS2_11char_traitsIcEENS2_9allocatorIcEEEE
  2294: 003e9e3d     6 FUNC    GLOBAL DEFAULT    8 _ZThn4_N9twiliosdk24TSCParticipantConnection32onDidSetSessionRemoteDescriptionENS_16_TSCoreErrorCodeERKNSt3__112basic_stringIcNS2_11char_traitsIcEENS2_9allocatorIcEEEE
  2295: 003e9ea1     6 FUNC    GLOBAL DEFAULT    8 _ZThn4_N9twiliosdk24TSCParticipantConnection26onDidConnectPeerConnectionENS_16_TSCoreErrorCodeERKNSt3__112basic_stringIcNS2_11char_traitsIcEENS2_9allocatorIcEEEE
  2296: 003e9f01     6 FUNC    GLOBAL DEFAULT    8 _ZThn4_N9twiliosdk24TSCParticipantConnection29onDidDisconnectPeerConnectionENS_20_TSCDisconnectReasonE
  2297: 003e9f85     6 FUNC    GLOBAL DEFAULT    8 _ZThn4_N9twiliosdk24TSCParticipantConnection20onDidAddRemoteStreamEPN6webrtc20MediaStreamInterfaceE
  2298: 003e9fe5     6 FUNC    GLOBAL DEFAULT    8 _ZThn4_N9twiliosdk24TSCParticipantConnection23onDidRemoveRemoteStreamEPN6webrtc20MediaStreamInterfaceE
  2299: 00a78bd4    32 OBJECT  GLOBAL DEFAULT   14 _ZTIN9twiliosdk10TSCSessionE
  2300: 00a78e08     8 OBJECT  WEAK   DEFAULT   14 _ZTIN9twiliosdk32TSCSessionStatisticsDataProviderE
  2301: 00a78e10     8 OBJECT  WEAK   DEFAULT   14 _ZTIN9twiliosdk32TSCParticipantConnectionObserverE
  2302: 00a78e18    12 OBJECT  WEAK   DEFAULT   14 _ZTIN3rtc16RefCountedObjectIN9twiliosdk14TSCConstraintsEEE
  2303: 003059c1    38 FUNC    WEAK   DEFAULT    8 _ZNK3rtc16RefCountedObjectIN9twiliosdk14TSCConstraintsEE9HasOneRefEv
  2304: 00a78e24    12 OBJECT  WEAK   DEFAULT   14 _ZTIN9twiliosdk14TSCConstraintsE
  2305: 00a78e30     8 OBJECT  WEAK   DEFAULT   14 _ZTIN6webrtc25MediaConstraintsInterfaceE
  2306: 009a3ec0   174 OBJECT  WEAK   DEFAULT   11 _ZTSN3rtc16RefCountedObjectINS_25FireAndForgetAsyncClosureINS_14MethodFunctor1IN9twiliosdk18TSCSessionObserverEMS4_FvNSt3__110shared_ptrINS3_20TSCSessionStatisticsEEEEvS8_EEEEEE
  2307: 009a3f70   150 OBJECT  WEAK   DEFAULT   11 _ZTSN3rtc25FireAndForgetAsyncClosureINS_14MethodFunctor1IN9twiliosdk18TSCSessionObserverEMS3_FvNSt3__110shared_ptrINS2_20TSCSessionStatisticsEEEEvS7_EEEE
  2308: 009a4008   191 OBJECT  WEAK   DEFAULT   11 _ZTSN3rtc16RefCountedObjectINS_25FireAndForgetAsyncClosureINS_14MethodFunctor2IN9twiliosdk18TSCSessionObserverEMS4_FvPNS0_INS3_17TSCAudioTrackInfoEEEPN6webrtc19AudioTrackInterfaceEEvS7_SA_EEEEEE
  2309: 009a40c8   184 OBJECT  WEAK   DEFAULT   11 _ZTSN3rtc25FireAndForgetAsyncClosureINS_14MethodFunctor2IN9twiliosdk18TSCSessionObserverEMS3_FvPNS_16RefCountedObjectINS2_17TSCAudioTrackInfoEEEPN6webrtc19AudioTrackInterfaceEEvS7_SA_EEEE
  2310: 009a4180   157 OBJECT  WEAK   DEFAULT   11 _ZTSN3rtc16RefCountedObjectINS_25FireAndForgetAsyncClosureINS_14MethodFunctor1IN9twiliosdk18TSCSessionObserverEMS4_FvPNS0_INS3_17TSCAudioTrackInfoEEEEvS7_EEEEEE
  2311: 009a4220   150 OBJECT  WEAK   DEFAULT   11 _ZTSN3rtc25FireAndForgetAsyncClosureINS_14MethodFunctor1IN9twiliosdk18TSCSessionObserverEMS3_FvPNS_16RefCountedObjectINS2_17TSCAudioTrackInfoEEEEvS7_EEEE
  2312: 009a42b8   178 OBJECT  WEAK   DEFAULT   11 _ZTSN3rtc16RefCountedObjectINS_25FireAndForgetAsyncClosureINS_14MethodFunctor2IN9twiliosdk18TSCSessionObserverEMS4_FvPNS3_10TSCSessionEPNS0_INS3_17TSCVideoTrackInfoEEEEvS6_S9_EEEEEE
  2313: 009a436c   171 OBJECT  WEAK   DEFAULT   11 _ZTSN3rtc25FireAndForgetAsyncClosureINS_14MethodFunctor2IN9twiliosdk18TSCSessionObserverEMS3_FvPNS2_10TSCSessionEPNS_16RefCountedObjectINS2_17TSCVideoTrackInfoEEEEvS5_S9_EEEE
  2314: 009a4418   212 OBJECT  WEAK   DEFAULT   11 _ZTSN3rtc16RefCountedObjectINS_25FireAndForgetAsyncClosureINS_14MethodFunctor3IN9twiliosdk18TSCSessionObserverEMS4_FvPNS3_10TSCSessionEPNS0_INS3_17TSCVideoTrackInfoEEEPN6webrtc19VideoTrackInterfaceEEvS6_S9_SC_EEEEEE
  2315: 009a44ec   205 OBJECT  WEAK   DEFAULT   11 _ZTSN3rtc25FireAndForgetAsyncClosureINS_14MethodFunctor3IN9twiliosdk18TSCSessionObserverEMS3_FvPNS2_10TSCSessionEPNS_16RefCountedObjectINS2_17TSCVideoTrackInfoEEEPN6webrtc19VideoTrackInterfaceEEvS5_S9_SC_EEEE
  2316: 009a45bc   158 OBJECT  WEAK   DEFAULT   11 _ZTSN3rtc16RefCountedObjectINS_25FireAndForgetAsyncClosureINS_14MethodFunctor1IN9twiliosdk18TSCSessionObserverEMS4_FvPNS0_INS3_18TSCMediaStreamInfoEEEEvS7_EEEEEE
  2317: 009a465c   151 OBJECT  WEAK   DEFAULT   11 _ZTSN3rtc25FireAndForgetAsyncClosureINS_14MethodFunctor1IN9twiliosdk18TSCSessionObserverEMS3_FvPNS_16RefCountedObjectINS2_18TSCMediaStreamInfoEEEEvS7_EEEE
  2318: 009a46f4   225 OBJECT  WEAK   DEFAULT   11 _ZTSN3rtc16RefCountedObjectINS_25FireAndForgetAsyncClosureINS_14MethodFunctor3IN9twiliosdk18TSCSessionObserverEMS4_FvNSt3__112basic_stringIcNS5_11char_traitsIcEENS5_9allocatorIcEEEESB_NS3_20_TSCDisconnectReasonEEvSB_SB_SC_EEEEEE
  2319: 009a47d8   201 OBJECT  WEAK   DEFAULT   11 _ZTSN3rtc25FireAndForgetAsyncClosureINS_14MethodFunctor3IN9twiliosdk18TSCSessionObserverEMS3_FvNSt3__112basic_stringIcNS4_11char_traitsIcEENS4_9allocatorIcEEEESA_NS2_20_TSCDisconnectReasonEEvSA_SA_SB_EEEE
  2320: 009a48a4   148 OBJECT  WEAK   DEFAULT   11 _ZTSN3rtc16RefCountedObjectINS_25FireAndForgetAsyncClosureINS_14MethodFunctor1IN9twiliosdk18TSCSessionObserverEMS4_FvNS3_16_TSCSessionStateEEvS5_EEEEEE
  2321: 009a4938   124 OBJECT  WEAK   DEFAULT   11 _ZTSN3rtc25FireAndForgetAsyncClosureINS_14MethodFunctor1IN9twiliosdk18TSCSessionObserverEMS3_FvNS2_16_TSCSessionStateEEvS4_EEEE
  2322: 009a49b4   227 OBJECT  WEAK   DEFAULT   11 _ZTSN3rtc16RefCountedObjectINS_25FireAndForgetAsyncClosureINS_14MethodFunctor4IN9twiliosdk18TSCSessionObserverEMS4_FvNSt3__112basic_stringIcNS5_11char_traitsIcEENS5_9allocatorIcEEEESB_NS3_16_TSCoreErrorCodeESB_EvSB_SB_SC_SB_EEEEEE
  2323: 009a4a98   203 OBJECT  WEAK   DEFAULT   11 _ZTSN3rtc25FireAndForgetAsyncClosureINS_14MethodFunctor4IN9twiliosdk18TSCSessionObserverEMS3_FvNSt3__112basic_stringIcNS4_11char_traitsIcEENS4_9allocatorIcEEEESA_NS2_16_TSCoreErrorCodeESA_EvSA_SA_SB_SA_EEEE
  2324: 009a4b64   150 OBJECT  WEAK   DEFAULT   11 _ZTSN3rtc16RefCountedObjectINS_25FireAndForgetAsyncClosureINS_14MethodFunctor3IN9twiliosdk10TSCSessionEMS4_FvbbPNS0_INS3_14TSCConstraintsEEEEvbbS7_EEEEEE
  2325: 009a4bfc   143 OBJECT  WEAK   DEFAULT   11 _ZTSN3rtc25FireAndForgetAsyncClosureINS_14MethodFunctor3IN9twiliosdk10TSCSessionEMS3_FvbbPNS_16RefCountedObjectINS2_14TSCConstraintsEEEEvbbS7_EEEE
  2326: 009a4c8c   118 OBJECT  WEAK   DEFAULT   11 _ZTSN3rtc16RefCountedObjectINS_25FireAndForgetAsyncClosureINS_14MethodFunctor2IN9twiliosdk10TSCSessionEMS4_FvbbEvbbEEEEEE
  2327: 009a4d04    94 OBJECT  WEAK   DEFAULT   11 _ZTSN3rtc25FireAndForgetAsyncClosureINS_14MethodFunctor2IN9twiliosdk10TSCSessionEMS3_FvbbEvbbEEEE
  2328: 009a4d64   258 OBJECT  WEAK   DEFAULT   11 _ZTSN3rtc16RefCountedObjectINS_25FireAndForgetAsyncClosureINS_14MethodFunctor4IN9twiliosdk18TSCSessionObserverEMS4_FvPNS3_11TSCEndpointEPNS3_10TSCSessionENS3_16_TSCoreErrorCodeENSt3__112basic_stringIcNSA_11char_traitsIcEENSA_9allocatorIcEEEEEvS6_S8_S9_SG_EEEEEE
  2329: 009a4e68   234 OBJECT  WEAK   DEFAULT   11 _ZTSN3rtc25FireAndForgetAsyncClosureINS_14MethodFunctor4IN9twiliosdk18TSCSessionObserverEMS3_FvPNS2_11TSCEndpointEPNS2_10TSCSessionENS2_16_TSCoreErrorCodeENSt3__112basic_stringIcNS9_11char_traitsIcEENS9_9allocatorIcEEEEEvS5_S7_S8_SF_EEEE
  2330: 009a4f54   190 OBJECT  WEAK   DEFAULT   11 _ZTSN3rtc16RefCountedObjectINS_25FireAndForgetAsyncClosureINS_14MethodFunctor2IN9twiliosdk10TSCSessionEMS4_FvPNS0_INS3_26TSCSessionMediaConstraintsEEEPNS0_INS3_14TSCConstraintsEEEEvS7_SA_EEEEEE
  2331: 009a5014   183 OBJECT  WEAK   DEFAULT   11 _ZTSN3rtc25FireAndForgetAsyncClosureINS_14MethodFunctor2IN9twiliosdk10TSCSessionEMS3_FvPNS_16RefCountedObjectINS2_26TSCSessionMediaConstraintsEEEPNS4_INS2_14TSCConstraintsEEEEvS7_SA_EEEE
  2332: 009a50cc   225 OBJECT  WEAK   DEFAULT   11 _ZTSN3rtc16RefCountedObjectINS_25FireAndForgetAsyncClosureINS_14MethodFunctor2IN9twiliosdk24TSCParticipantConnectionEMS4_FvPNS3_17TSCSIPCallContextERKNSt3__112basic_stringIcNS7_11char_traitsIcEENS7_9allocatorIcEEEEEvS6_SF_EEEEEE
  2333: 009a51b0   201 OBJECT  WEAK   DEFAULT   11 _ZTSN3rtc25FireAndForgetAsyncClosureINS_14MethodFunctor2IN9twiliosdk24TSCParticipantConnectionEMS3_FvPNS2_17TSCSIPCallContextERKNSt3__112basic_stringIcNS6_11char_traitsIcEENS6_9allocatorIcEEEEEvS5_SE_EEEE
  2334: 009a527c   112 OBJECT  WEAK   DEFAULT   11 _ZTSNSt3__120__shared_ptr_pointerIPN9twiliosdk20TSCSessionStatisticsENS_14default_deleteIS2_EENS_9allocatorIS2_EEEE
  2335: 00a8faf0    24 OBJECT  GLOBAL DEFAULT   14 _ZTINSt3__119__shared_weak_countE
  2336: 009a52ec    58 OBJECT  WEAK   DEFAULT   11 _ZTSN3rtc16RefCountedObjectIN9twiliosdk17TSCAudioTrackInfoEEE
  2337: 009a5328    58 OBJECT  WEAK   DEFAULT   11 _ZTSN3rtc16RefCountedObjectIN9twiliosdk17TSCVideoTrackInfoEEE
  2338: 009a5364    67 OBJECT  WEAK   DEFAULT   11 _ZTSN3rtc16RefCountedObjectIN9twiliosdk26TSCSessionMediaConstraintsEEE
  2339: 00a78e38     8 OBJECT  WEAK   DEFAULT   14 _ZTIN9twiliosdk26TSCSessionMediaConstraintsE
  2340: 009a53a8    65 OBJECT  WEAK   DEFAULT   11 _ZTSN3rtc16RefCountedObjectIN9twiliosdk24TSCParticipantConnectionEEE
  2341: 00a7dc74    32 OBJECT  GLOBAL DEFAULT   14 _ZTIN9twiliosdk24TSCParticipantConnectionE
  2342: 009a2f94    25 OBJECT  GLOBAL DEFAULT   11 _ZTSN9twiliosdk10TSCSessionE
  2343: 009a53ec    47 OBJECT  WEAK   DEFAULT   11 _ZTSN9twiliosdk32TSCSessionStatisticsDataProviderE
  2344: 009a541c    47 OBJECT  WEAK   DEFAULT   11 _ZTSN9twiliosdk32TSCParticipantConnectionObserverE
  2345: 009a544c    55 OBJECT  WEAK   DEFAULT   11 _ZTSN3rtc16RefCountedObjectIN9twiliosdk14TSCConstraintsEEE
  2346: 009a5484    29 OBJECT  WEAK   DEFAULT   11 _ZTSN9twiliosdk14TSCConstraintsE
  2347: 009a54a4    37 OBJECT  WEAK   DEFAULT   11 _ZTSN6webrtc25MediaConstraintsInterfaceE
  2348: 00304925    64 FUNC    WEAK   DEFAULT    8 _ZN3rtc16RefCountedObjectINS_25FireAndForgetAsyncClosureINS_14MethodFunctor1IN9twiliosdk18TSCSessionObserverEMS4_FvNSt3__110shared_ptrINS3_20TSCSessionStatisticsEEEEvS8_EEEEED2Ev
  2349: 003059e9   136 FUNC    WEAK   DEFAULT    8 _ZNK3rtc14MethodFunctor1IN9twiliosdk18TSCSessionObserverEMS2_FvNSt3__110shared_ptrINS1_20TSCSessionStatisticsEEEEvS6_EclEv
  2350: 00304a1d    64 FUNC    WEAK   DEFAULT    8 _ZN3rtc16RefCountedObjectINS_25FireAndForgetAsyncClosureINS_14MethodFunctor2IN9twiliosdk18TSCSessionObserverEMS4_FvPNS0_INS3_17TSCAudioTrackInfoEEEPN6webrtc19AudioTrackInterfaceEEvS7_SA_EEEEED2Ev
  2351: 00305a71    78 FUNC    WEAK   DEFAULT    8 _ZNK3rtc14MethodFunctor2IN9twiliosdk18TSCSessionObserverEMS2_FvPNS_16RefCountedObjectINS1_17TSCAudioTrackInfoEEEPN6webrtc19AudioTrackInterfaceEEvS6_S9_EclEv
  2352: 00304b15    64 FUNC    WEAK   DEFAULT    8 _ZN3rtc16RefCountedObjectINS_25FireAndForgetAsyncClosureINS_14MethodFunctor1IN9twiliosdk18TSCSessionObserverEMS4_FvPNS0_INS3_17TSCAudioTrackInfoEEEEvS7_EEEEED2Ev
  2353: 00305ac1    78 FUNC    WEAK   DEFAULT    8 _ZNK3rtc14MethodFunctor1IN9twiliosdk18TSCSessionObserverEMS2_FvPNS_16RefCountedObjectINS1_17TSCAudioTrackInfoEEEEvS6_EclEv
  2354: 00304c0d    64 FUNC    WEAK   DEFAULT    8 _ZN3rtc16RefCountedObjectINS_25FireAndForgetAsyncClosureINS_14MethodFunctor2IN9twiliosdk18TSCSessionObserverEMS4_FvPNS3_10TSCSessionEPNS0_INS3_17TSCVideoTrackInfoEEEEvS6_S9_EEEEED2Ev
  2355: 00305b11    78 FUNC    WEAK   DEFAULT    8 _ZNK3rtc14MethodFunctor2IN9twiliosdk18TSCSessionObserverEMS2_FvPNS1_10TSCSessionEPNS_16RefCountedObjectINS1_17TSCVideoTrackInfoEEEEvS4_S8_EclEv
  2356: 00304d05    64 FUNC    WEAK   DEFAULT    8 _ZN3rtc16RefCountedObjectINS_25FireAndForgetAsyncClosureINS_14MethodFunctor3IN9twiliosdk18TSCSessionObserverEMS4_FvPNS3_10TSCSessionEPNS0_INS3_17TSCVideoTrackInfoEEEPN6webrtc19VideoTrackInterfaceEEvS6_S9_SC_EEEEED2Ev
  2357: 00305b61    82 FUNC    WEAK   DEFAULT    8 _ZNK3rtc14MethodFunctor3IN9twiliosdk18TSCSessionObserverEMS2_FvPNS1_10TSCSessionEPNS_16RefCountedObjectINS1_17TSCVideoTrackInfoEEEPN6webrtc19VideoTrackInterfaceEEvS4_S8_SB_EclEv
  2358: 00304dfd    64 FUNC    WEAK   DEFAULT    8 _ZN3rtc16RefCountedObjectINS_25FireAndForgetAsyncClosureINS_14MethodFunctor1IN9twiliosdk18TSCSessionObserverEMS4_FvPNS0_INS3_18TSCMediaStreamInfoEEEEvS7_EEEEED2Ev
  2359: 00305bb5    78 FUNC    WEAK   DEFAULT    8 _ZNK3rtc14MethodFunctor1IN9twiliosdk18TSCSessionObserverEMS2_FvPNS_16RefCountedObjectINS1_18TSCMediaStreamInfoEEEEvS6_EclEv
  2360: 00304ef5    64 FUNC    WEAK   DEFAULT    8 _ZN3rtc16RefCountedObjectINS_25FireAndForgetAsyncClosureINS_14MethodFunctor3IN9twiliosdk18TSCSessionObserverEMS4_FvNSt3__112basic_stringIcNS5_11char_traitsIcEENS5_9allocatorIcEEEESB_NS3_20_TSCDisconnectReasonEEvSB_SB_SC_EEEEED2Ev
  2361: 00305c05   164 FUNC    WEAK   DEFAULT    8 _ZNK3rtc14MethodFunctor3IN9twiliosdk18TSCSessionObserverEMS2_FvNSt3__112basic_stringIcNS3_11char_traitsIcEENS3_9allocatorIcEEEES9_NS1_20_TSCDisconnectReasonEEvS9_S9_SA_EclEv
  2362: 00304fed    64 FUNC    WEAK   DEFAULT    8 _ZN3rtc16RefCountedObjectINS_25FireAndForgetAsyncClosureINS_14MethodFunctor1IN9twiliosdk18TSCSessionObserverEMS4_FvNS3_16_TSCSessionStateEEvS5_EEEEED2Ev
  2363: 00305ca9    78 FUNC    WEAK   DEFAULT    8 _ZNK3rtc14MethodFunctor1IN9twiliosdk18TSCSessionObserverEMS2_FvNS1_16_TSCSessionStateEEvS3_EclEv
  2364: 003050e5    64 FUNC    WEAK   DEFAULT    8 _ZN3rtc16RefCountedObjectINS_25FireAndForgetAsyncClosureINS_14MethodFunctor4IN9twiliosdk18TSCSessionObserverEMS4_FvNSt3__112basic_stringIcNS5_11char_traitsIcEENS5_9allocatorIcEEEESB_NS3_16_TSCoreErrorCodeESB_EvSB_SB_SC_SB_EEEEED2Ev
  2365: 00305cf9   210 FUNC    WEAK   DEFAULT    8 _ZNK3rtc14MethodFunctor4IN9twiliosdk18TSCSessionObserverEMS2_FvNSt3__112basic_stringIcNS3_11char_traitsIcEENS3_9allocatorIcEEEES9_NS1_16_TSCoreErrorCodeES9_EvS9_S9_SA_S9_EclEv
  2366: 003051dd    64 FUNC    WEAK   DEFAULT    8 _ZN3rtc16RefCountedObjectINS_25FireAndForgetAsyncClosureINS_14MethodFunctor3IN9twiliosdk10TSCSessionEMS4_FvbbPNS0_INS3_14TSCConstraintsEEEEvbbS7_EEEEED2Ev
  2367: 00305dcd    82 FUNC    WEAK   DEFAULT    8 _ZNK3rtc14MethodFunctor3IN9twiliosdk10TSCSessionEMS2_FvbbPNS_16RefCountedObjectINS1_14TSCConstraintsEEEEvbbS6_EclEv
  2368: 003052d5    64 FUNC    WEAK   DEFAULT    8 _ZN3rtc16RefCountedObjectINS_25FireAndForgetAsyncClosureINS_14MethodFunctor2IN9twiliosdk10TSCSessionEMS4_FvbbEvbbEEEEED2Ev
  2369: 00305e21    78 FUNC    WEAK   DEFAULT    8 _ZNK3rtc14MethodFunctor2IN9twiliosdk10TSCSessionEMS2_FvbbEvbbEclEv
  2370: 003053cd    64 FUNC    WEAK   DEFAULT    8 _ZN3rtc16RefCountedObjectINS_25FireAndForgetAsyncClosureINS_14MethodFunctor4IN9twiliosdk18TSCSessionObserverEMS4_FvPNS3_11TSCEndpointEPNS3_10TSCSessionENS3_16_TSCoreErrorCodeENSt3__112basic_stringIcNSA_11char_traitsIcEENSA_9allocatorIcEEEEEvS6_S8_S9_SG_EEEEED2Ev
  2371: 00305e71   146 FUNC    WEAK   DEFAULT    8 _ZNK3rtc14MethodFunctor4IN9twiliosdk18TSCSessionObserverEMS2_FvPNS1_11TSCEndpointEPNS1_10TSCSessionENS1_16_TSCoreErrorCodeENSt3__112basic_stringIcNS8_11char_traitsIcEENS8_9allocatorIcEEEEEvS4_S6_S7_SE_EclEv
  2372: 003054c5    64 FUNC    WEAK   DEFAULT    8 _ZN3rtc16RefCountedObjectINS_25FireAndForgetAsyncClosureINS_14MethodFunctor2IN9twiliosdk10TSCSessionEMS4_FvPNS0_INS3_26TSCSessionMediaConstraintsEEEPNS0_INS3_14TSCConstraintsEEEEvS7_SA_EEEEED2Ev
  2373: 00305f05    78 FUNC    WEAK   DEFAULT    8 _ZNK3rtc14MethodFunctor2IN9twiliosdk10TSCSessionEMS2_FvPNS_16RefCountedObjectINS1_26TSCSessionMediaConstraintsEEEPNS3_INS1_14TSCConstraintsEEEEvS6_S9_EclEv
  2374: 003055bd    64 FUNC    WEAK   DEFAULT    8 _ZN3rtc16RefCountedObjectINS_25FireAndForgetAsyncClosureINS_14MethodFunctor2IN9twiliosdk24TSCParticipantConnectionEMS4_FvPNS3_17TSCSIPCallContextERKNSt3__112basic_stringIcNS7_11char_traitsIcEENS7_9allocatorIcEEEEEvS6_SF_EEEEED2Ev
  2375: 00305f55    82 FUNC    WEAK   DEFAULT    8 _ZNK3rtc14MethodFunctor2IN9twiliosdk24TSCParticipantConnectionEMS2_FvPNS1_17TSCSIPCallContextERKNSt3__112basic_stringIcNS5_11char_traitsIcEENS5_9allocatorIcEEEEEvS4_SD_EclEv
  2376: 009a54cc    61 OBJECT  WEAK   DEFAULT   11 _ZTSNSt3__114default_deleteIN9twiliosdk20TSCSessionStatisticsEEE
  2377: 00305749    64 FUNC    WEAK   DEFAULT    8 _ZN3rtc16RefCountedObjectIN9twiliosdk17TSCAudioTrackInfoEED2Ev
  2378: 00305809    64 FUNC    WEAK   DEFAULT    8 _ZN3rtc16RefCountedObjectIN9twiliosdk17TSCVideoTrackInfoEED2Ev
  2379: 00305921    72 FUNC    WEAK   DEFAULT    8 _ZN3rtc16RefCountedObjectIN9twiliosdk24TSCParticipantConnectionEED2Ev
  2380: 003e7e5d   220 FUNC    GLOBAL DEFAULT    8 _ZN9twiliosdk24TSCParticipantConnectionD2Ev
  2381: 00305fa9    24 FUNC    WEAK   DEFAULT    8 _ZNK3rtc13scoped_refptrIN9twiliosdk24TSCParticipantConnectionEEcvPS2_Ev
  2382: 009a550c    41 OBJECT  WEAK   DEFAULT   11 _ZTSN9twiliosdk26TSCSessionMediaConstraintsE
  2383: 00306769    80 FUNC    WEAK   DEFAULT    8 _ZN3rtc16RefCountedObjectIN9twiliosdk18TSCMediaStreamInfoEEC1IyyNSt3__112basic_stringIcNS5_11char_traitsIcEENS5_9allocatorIcEEEENS1_21_TSCMediaStreamOriginEEET_T0_T1_T2_
  2384: 003067b9    52 FUNC    WEAK   DEFAULT    8 _ZN3rtc13scoped_refptrINS_16RefCountedObjectIN9twiliosdk17TSCVideoTrackInfoEEEEC1EPS4_
  2385: 0030681d    24 FUNC    WEAK   DEFAULT    8 _ZNK3rtc13scoped_refptrINS_16RefCountedObjectIN9twiliosdk17TSCVideoTrackInfoEEEEcvPS4_Ev
  2386: 003067ed    46 FUNC    WEAK   DEFAULT    8 _ZN3rtc13scoped_refptrINS_16RefCountedObjectIN9twiliosdk17TSCVideoTrackInfoEEEED1Ev
  2387: 00306e15    70 FUNC    GLOBAL DEFAULT    8 _ZN9twiliosdk18TSCMediaStreamInfo14setVideoTracksERKNSt3__16vectorINS_17TSCVideoTrackInfoENS1_9allocatorIS3_EEEE
  2388: 00306675   242 FUNC    GLOBAL DEFAULT    8 _ZN9twiliosdk19TSCMediaStreamUtils20createAudioTrackInfoEyPN6webrtc20MediaStreamInterfaceEPNS1_19AudioTrackInterfaceERKNSt3__112basic_stringIcNS6_11char_traitsIcEENS6_9allocatorIcEEEENS_21_TSCMediaStreamOriginE
  2389: 00306835    52 FUNC    WEAK   DEFAULT    8 _ZN3rtc13scoped_refptrINS_16RefCountedObjectIN9twiliosdk17TSCAudioTrackInfoEEEEC1EPS4_
  2390: 00306899    24 FUNC    WEAK   DEFAULT    8 _ZNK3rtc13scoped_refptrINS_16RefCountedObjectIN9twiliosdk17TSCAudioTrackInfoEEEEcvPS4_Ev
  2391: 00306869    46 FUNC    WEAK   DEFAULT    8 _ZN3rtc13scoped_refptrINS_16RefCountedObjectIN9twiliosdk17TSCAudioTrackInfoEEEED1Ev
  2392: 00306e5d    70 FUNC    GLOBAL DEFAULT    8 _ZN9twiliosdk18TSCMediaStreamInfo14setAudioTracksERKNSt3__16vectorINS_17TSCAudioTrackInfoENS1_9allocatorIS3_EEEE
  2393: 00306769    80 FUNC    WEAK   DEFAULT    8 _ZN3rtc16RefCountedObjectIN9twiliosdk18TSCMediaStreamInfoEEC2IyyNSt3__112basic_stringIcNS5_11char_traitsIcEENS5_9allocatorIcEEEENS1_21_TSCMediaStreamOriginEEET_T0_T1_T2_
  2394: 00306991   252 FUNC    GLOBAL DEFAULT    8 _ZN9twiliosdk18TSCMediaStreamInfoC2EyyRKNSt3__112basic_stringIcNS1_11char_traitsIcEENS1_9allocatorIcEEEENS_21_TSCMediaStreamOriginE
  2395: 00a78e40    28 OBJECT  WEAK   DEFAULT   14 _ZTVN3rtc16RefCountedObjectIN9twiliosdk18TSCMediaStreamInfoEEE
  2396: 003067b9    52 FUNC    WEAK   DEFAULT    8 _ZN3rtc13scoped_refptrINS_16RefCountedObjectIN9twiliosdk17TSCVideoTrackInfoEEEEC2EPS4_
  2397: 003067ed    46 FUNC    WEAK   DEFAULT    8 _ZN3rtc13scoped_refptrINS_16RefCountedObjectIN9twiliosdk17TSCVideoTrackInfoEEEED2Ev
  2398: 00306835    52 FUNC    WEAK   DEFAULT    8 _ZN3rtc13scoped_refptrINS_16RefCountedObjectIN9twiliosdk17TSCAudioTrackInfoEEEEC2EPS4_
  2399: 00306869    46 FUNC    WEAK   DEFAULT    8 _ZN3rtc13scoped_refptrINS_16RefCountedObjectIN9twiliosdk17TSCAudioTrackInfoEEEED2Ev
  2400: 00a78e60    12 OBJECT  WEAK   DEFAULT   14 _ZTIN3rtc16RefCountedObjectIN9twiliosdk18TSCMediaStreamInfoEEE
  2401: 003068b1    64 FUNC    WEAK   DEFAULT    8 _ZN3rtc16RefCountedObjectIN9twiliosdk18TSCMediaStreamInfoEED1Ev
  2402: 003068f1    32 FUNC    WEAK   DEFAULT    8 _ZN3rtc16RefCountedObjectIN9twiliosdk18TSCMediaStreamInfoEED0Ev
  2403: 00306911    30 FUNC    WEAK   DEFAULT    8 _ZNK3rtc16RefCountedObjectIN9twiliosdk18TSCMediaStreamInfoEE6AddRefEv
  2404: 00306931    56 FUNC    WEAK   DEFAULT    8 _ZNK3rtc16RefCountedObjectIN9twiliosdk18TSCMediaStreamInfoEE7ReleaseEv
  2405: 00306969    38 FUNC    WEAK   DEFAULT    8 _ZNK3rtc16RefCountedObjectIN9twiliosdk18TSCMediaStreamInfoEE9HasOneRefEv
  2406: 009a55e8    59 OBJECT  WEAK   DEFAULT   11 _ZTSN3rtc16RefCountedObjectIN9twiliosdk18TSCMediaStreamInfoEEE
  2407: 00a78e80     8 OBJECT  GLOBAL DEFAULT   14 _ZTIN9twiliosdk18TSCMediaStreamInfoE
  2408: 003068b1    64 FUNC    WEAK   DEFAULT    8 _ZN3rtc16RefCountedObjectIN9twiliosdk18TSCMediaStreamInfoEED2Ev
  2409: 00306a8d    84 FUNC    GLOBAL DEFAULT    8 _ZN9twiliosdk18TSCMediaStreamInfoD2Ev
  2410: 00a78e70    16 OBJECT  GLOBAL DEFAULT   14 _ZTVN9twiliosdk18TSCMediaStreamInfoE
  2411: 00306991   252 FUNC    GLOBAL DEFAULT    8 _ZN9twiliosdk18TSCMediaStreamInfoC1EyyRKNSt3__112basic_stringIcNS1_11char_traitsIcEENS1_9allocatorIcEEEENS_21_TSCMediaStreamOriginE
  2412: 00306a8d    84 FUNC    GLOBAL DEFAULT    8 _ZN9twiliosdk18TSCMediaStreamInfoD1Ev
  2413: 00306ae1    32 FUNC    GLOBAL DEFAULT    8 _ZN9twiliosdk18TSCMediaStreamInfoD0Ev
  2414: 00306b01   416 FUNC    GLOBAL DEFAULT    8 _ZN9twiliosdk18TSCMediaStreamInfoC2ERKS0_
  2415: 00306dcd    24 FUNC    GLOBAL DEFAULT    8 _ZNK9twiliosdk18TSCMediaStreamInfo15getStreamOriginEv
  2416: 00306ea5   878 FUNC    WEAK   DEFAULT    8 _ZNSt3__16vectorIN9twiliosdk17TSCVideoTrackInfoENS_9allocatorIS2_EEE6assignIPS2_EENS_9enable_ifIXaasrNS_21__is_forward_iteratorIT_EE5valuesrNS_16is_constructibleIS2_JNS_15iterator_traitsISA_E9referenceEEEE5valueEvE4typeESA_SA_
  2417: 00307215   878 FUNC    WEAK   DEFAULT    8 _ZNSt3__16vectorIN9twiliosdk17TSCAudioTrackInfoENS_9allocatorIS2_EEE6assignIPS2_EENS_9enable_ifIXaasrNS_21__is_forward_iteratorIT_EE5valuesrNS_16is_constructibleIS2_JNS_15iterator_traitsISA_E9referenceEEEE5valueEvE4typeESA_SA_
  2418: 00306b01   416 FUNC    GLOBAL DEFAULT    8 _ZN9twiliosdk18TSCMediaStreamInfoC1ERKS0_
  2419: 00306ca1   218 FUNC    GLOBAL DEFAULT    8 _ZN9twiliosdk18TSCMediaStreamInfoaSERKS0_
  2420: 00307585   334 FUNC    WEAK   DEFAULT    8 _ZNSt3__16vectorIN9twiliosdk17TSCVideoTrackInfoENS_9allocatorIS2_EEE10deallocateEv
  2421: 003076d5   334 FUNC    WEAK   DEFAULT    8 _ZNSt3__16vectorIN9twiliosdk17TSCAudioTrackInfoENS_9allocatorIS2_EEE10deallocateEv
  2422: 009a5658    33 OBJECT  GLOBAL DEFAULT   11 _ZTSN9twiliosdk18TSCMediaStreamInfoE
  2423: 00307825   264 FUNC    GLOBAL DEFAULT    8 _ZN9twiliosdk24TSCScreenCaptureProviderC2Ev
  2424: 00a78ec8    32 OBJECT  GLOBAL DEFAULT   14 _ZTVN9twiliosdk24TSCScreenCaptureProviderE
  2425: 00307825   264 FUNC    GLOBAL DEFAULT    8 _ZN9twiliosdk24TSCScreenCaptureProviderC1Ev
  2426: 0030792d   104 FUNC    GLOBAL DEFAULT    8 _ZN9twiliosdk24TSCScreenCaptureProviderD2Ev
  2427: 0030792d   104 FUNC    GLOBAL DEFAULT    8 _ZN9twiliosdk24TSCScreenCaptureProviderD1Ev
  2428: 00307995    32 FUNC    GLOBAL DEFAULT    8 _ZN9twiliosdk24TSCScreenCaptureProviderD0Ev
  2429: 00307ad9    30 FUNC    WEAK   DEFAULT    8 _ZN3rtc14MethodFunctor2IN9twiliosdk24TSCScreenCaptureProviderEMS2_FviPNS1_29ITSCScreenCaptureDataCallbackEEviS4_ED2Ev
  2430: 00307ad9    30 FUNC    WEAK   DEFAULT    8 _ZN3rtc14MethodFunctor2IN9twiliosdk24TSCScreenCaptureProviderEMS2_FviPNS1_29ITSCScreenCaptureDataCallbackEEviS4_ED1Ev
  2431: 003079b5   140 FUNC    GLOBAL DEFAULT    8 _ZN9twiliosdk24TSCScreenCaptureProvider5startEiPNS_29ITSCScreenCaptureDataCallbackE
  2432: 00307af9    48 FUNC    WEAK   DEFAULT    8 _ZN3rtc4BindIN9twiliosdk24TSCScreenCaptureProviderEviPNS1_29ITSCScreenCaptureDataCallbackEEENS_14MethodFunctor2IT_MS6_FT0_T1_T2_ES7_S8_S9_EESB_PS6_NS_6detail8identityIS8_E4typeENSF_IS9_E4typeE
  2433: 00307b6d   138 FUNC    WEAK   DEFAULT    8 _ZN3rtc12AsyncInvoker11AsyncInvokeIvNS_14MethodFunctor2IN9twiliosdk24TSCScreenCaptureProviderEMS4_FviPNS3_29ITSCScreenCaptureDataCallbackEEviS6_EEEEvPNS_6ThreadERKT0_j
  2434: 00307a59    48 FUNC    GLOBAL DEFAULT    8 _ZN9twiliosdk24TSCScreenCaptureProvider9startPrivEiPNS_29ITSCScreenCaptureDataCallbackE
  2435: 00307a41    22 FUNC    GLOBAL DEFAULT    8 _ZN9twiliosdk24TSCScreenCaptureProvider7onStartEiPNS_29ITSCScreenCaptureDataCallbackE
  2436: 00307a89    26 FUNC    GLOBAL DEFAULT    8 _ZN9twiliosdk24TSCScreenCaptureProvider4stopEv
  2437: 00307aa5    18 FUNC    GLOBAL DEFAULT    8 _ZN9twiliosdk24TSCScreenCaptureProvider6onStopEv
  2438: 00307bf9    66 FUNC    WEAK   DEFAULT    8 _ZN3rtc14MethodFunctor2IN9twiliosdk24TSCScreenCaptureProviderEMS2_FviPNS1_29ITSCScreenCaptureDataCallbackEEviS4_EC1ES6_PS2_iS4_
  2439: 00307b29    68 FUNC    WEAK   DEFAULT    8 _ZN3rtc14MethodFunctor2IN9twiliosdk24TSCScreenCaptureProviderEMS2_FviPNS1_29ITSCScreenCaptureDataCallbackEEviS4_EC2ERKS7_
  2440: 00307b29    68 FUNC    WEAK   DEFAULT    8 _ZN3rtc14MethodFunctor2IN9twiliosdk24TSCScreenCaptureProviderEMS2_FviPNS1_29ITSCScreenCaptureDataCallbackEEviS4_EC1ERKS7_
  2441: 00307ca5    60 FUNC    WEAK   DEFAULT    8 _ZN3rtc16RefCountedObjectINS_25FireAndForgetAsyncClosureINS_14MethodFunctor2IN9twiliosdk24TSCScreenCaptureProviderEMS4_FviPNS3_29ITSCScreenCaptureDataCallbackEEviS6_EEEEEC1IS9_EET_
  2442: 00307bf9    66 FUNC    WEAK   DEFAULT    8 _ZN3rtc14MethodFunctor2IN9twiliosdk24TSCScreenCaptureProviderEMS2_FviPNS1_29ITSCScreenCaptureDataCallbackEEviS4_EC2ES6_PS2_iS4_
  2443: 00307ce1    50 FUNC    WEAK   DEFAULT    8 _ZN3rtc13scoped_refptrIN9twiliosdk24TSCScreenCaptureProviderEEC1EPS2_
  2444: 00307c3d    72 FUNC    WEAK   DEFAULT    8 _ZN3rtc25FireAndForgetAsyncClosureINS_14MethodFunctor2IN9twiliosdk24TSCScreenCaptureProviderEMS3_FviPNS2_29ITSCScreenCaptureDataCallbackEEviS5_EEED2Ev
  2445: 00a78ea8    28 OBJECT  WEAK   DEFAULT   14 _ZTVN3rtc25FireAndForgetAsyncClosureINS_14MethodFunctor2IN9twiliosdk24TSCScreenCaptureProviderEMS3_FviPNS2_29ITSCScreenCaptureDataCallbackEEviS5_EEEE
  2446: 00307c3d    72 FUNC    WEAK   DEFAULT    8 _ZN3rtc25FireAndForgetAsyncClosureINS_14MethodFunctor2IN9twiliosdk24TSCScreenCaptureProviderEMS3_FviPNS2_29ITSCScreenCaptureDataCallbackEEviS5_EEED1Ev
  2447: 00307c85    32 FUNC    WEAK   DEFAULT    8 _ZN3rtc25FireAndForgetAsyncClosureINS_14MethodFunctor2IN9twiliosdk24TSCScreenCaptureProviderEMS3_FviPNS2_29ITSCScreenCaptureDataCallbackEEviS5_EEED0Ev
  2448: 00307ca5    60 FUNC    WEAK   DEFAULT    8 _ZN3rtc16RefCountedObjectINS_25FireAndForgetAsyncClosureINS_14MethodFunctor2IN9twiliosdk24TSCScreenCaptureProviderEMS4_FviPNS3_29ITSCScreenCaptureDataCallbackEEviS6_EEEEEC2IS9_EET_
  2449: 00307d15    80 FUNC    WEAK   DEFAULT    8 _ZN3rtc25FireAndForgetAsyncClosureINS_14MethodFunctor2IN9twiliosdk24TSCScreenCaptureProviderEMS3_FviPNS2_29ITSCScreenCaptureDataCallbackEEviS5_EEEC2ERKS8_
  2450: 00a78e88    32 OBJECT  WEAK   DEFAULT   14 _ZTVN3rtc16RefCountedObjectINS_25FireAndForgetAsyncClosureINS_14MethodFunctor2IN9twiliosdk24TSCScreenCaptureProviderEMS4_FviPNS3_29ITSCScreenCaptureDataCallbackEEviS6_EEEEEE
  2451: 00307ce1    50 FUNC    WEAK   DEFAULT    8 _ZN3rtc13scoped_refptrIN9twiliosdk24TSCScreenCaptureProviderEEC2EPS2_
  2452: 00307d15    80 FUNC    WEAK   DEFAULT    8 _ZN3rtc25FireAndForgetAsyncClosureINS_14MethodFunctor2IN9twiliosdk24TSCScreenCaptureProviderEMS3_FviPNS2_29ITSCScreenCaptureDataCallbackEEviS5_EEEC1ERKS8_
  2453: 00a78ef8    12 OBJECT  WEAK   DEFAULT   14 _ZTIN3rtc16RefCountedObjectINS_25FireAndForgetAsyncClosureINS_14MethodFunctor2IN9twiliosdk24TSCScreenCaptureProviderEMS4_FviPNS3_29ITSCScreenCaptureDataCallbackEEviS6_EEEEEE
  2454: 00307d65    30 FUNC    WEAK   DEFAULT    8 _ZNK3rtc16RefCountedObjectINS_25FireAndForgetAsyncClosureINS_14MethodFunctor2IN9twiliosdk24TSCScreenCaptureProviderEMS4_FviPNS3_29ITSCScreenCaptureDataCallbackEEviS6_EEEEE6AddRefEv
  2455: 00307d85    56 FUNC    WEAK   DEFAULT    8 _ZNK3rtc16RefCountedObjectINS_25FireAndForgetAsyncClosureINS_14MethodFunctor2IN9twiliosdk24TSCScreenCaptureProviderEMS4_FviPNS3_29ITSCScreenCaptureDataCallbackEEviS6_EEEEE7ReleaseEv
  2456: 00307dbd    64 FUNC    WEAK   DEFAULT    8 _ZN3rtc16RefCountedObjectINS_25FireAndForgetAsyncClosureINS_14MethodFunctor2IN9twiliosdk24TSCScreenCaptureProviderEMS4_FviPNS3_29ITSCScreenCaptureDataCallbackEEviS6_EEEEED1Ev
  2457: 00307dfd    32 FUNC    WEAK   DEFAULT    8 _ZN3rtc16RefCountedObjectINS_25FireAndForgetAsyncClosureINS_14MethodFunctor2IN9twiliosdk24TSCScreenCaptureProviderEMS4_FviPNS3_29ITSCScreenCaptureDataCallbackEEviS6_EEEEED0Ev
  2458: 00307e1d    24 FUNC    WEAK   DEFAULT    8 _ZN3rtc25FireAndForgetAsyncClosureINS_14MethodFunctor2IN9twiliosdk24TSCScreenCaptureProviderEMS3_FviPNS2_29ITSCScreenCaptureDataCallbackEEviS5_EEE7ExecuteEv
  2459: 00307e35    38 FUNC    WEAK   DEFAULT    8 _ZNK3rtc16RefCountedObjectINS_25FireAndForgetAsyncClosureINS_14MethodFunctor2IN9twiliosdk24TSCScreenCaptureProviderEMS4_FviPNS3_29ITSCScreenCaptureDataCallbackEEviS6_EEEEE9HasOneRefEv
  2460: 00a78f04    12 OBJECT  WEAK   DEFAULT   14 _ZTIN3rtc25FireAndForgetAsyncClosureINS_14MethodFunctor2IN9twiliosdk24TSCScreenCaptureProviderEMS3_FviPNS2_29ITSCScreenCaptureDataCallbackEEviS5_EEEE
  2461: 00a78ee8    12 OBJECT  GLOBAL DEFAULT   14 _ZTIN9twiliosdk24TSCScreenCaptureProviderE
  2462: 009a57f0   170 OBJECT  WEAK   DEFAULT   11 _ZTSN3rtc16RefCountedObjectINS_25FireAndForgetAsyncClosureINS_14MethodFunctor2IN9twiliosdk24TSCScreenCaptureProviderEMS4_FviPNS3_29ITSCScreenCaptureDataCallbackEEviS6_EEEEEE
  2463: 009a589c   146 OBJECT  WEAK   DEFAULT   11 _ZTSN3rtc25FireAndForgetAsyncClosureINS_14MethodFunctor2IN9twiliosdk24TSCScreenCaptureProviderEMS3_FviPNS2_29ITSCScreenCaptureDataCallbackEEviS5_EEEE
  2464: 009a5748    39 OBJECT  GLOBAL DEFAULT   11 _ZTSN9twiliosdk24TSCScreenCaptureProviderE
  2465: 00307dbd    64 FUNC    WEAK   DEFAULT    8 _ZN3rtc16RefCountedObjectINS_25FireAndForgetAsyncClosureINS_14MethodFunctor2IN9twiliosdk24TSCScreenCaptureProviderEMS4_FviPNS3_29ITSCScreenCaptureDataCallbackEEviS6_EEEEED2Ev
  2466: 00307e5d    82 FUNC    WEAK   DEFAULT    8 _ZNK3rtc14MethodFunctor2IN9twiliosdk24TSCScreenCaptureProviderEMS2_FviPNS1_29ITSCScreenCaptureDataCallbackEEviS4_EclEv
  2467: 00307eb1    24 FUNC    WEAK   DEFAULT    8 _ZNK3rtc13scoped_refptrIN9twiliosdk24TSCScreenCaptureProviderEEcvPS2_Ev
  2468: 00307ec9   116 FUNC    GLOBAL DEFAULT    8 _ZN9twiliosdk18TSCMediaDeviceInfoC2ERKNSt3__112basic_stringIcNS1_11char_traitsIcEENS1_9allocatorIcEEEES9_
  2469: 00a78f30    16 OBJECT  GLOBAL DEFAULT   14 _ZTVN9twiliosdk18TSCMediaDeviceInfoE
  2470: 00307ec9   116 FUNC    GLOBAL DEFAULT    8 _ZN9twiliosdk18TSCMediaDeviceInfoC1ERKNSt3__112basic_stringIcNS1_11char_traitsIcEENS1_9allocatorIcEEEES9_
  2471: 00307f3d    76 FUNC    GLOBAL DEFAULT    8 _ZN9twiliosdk18TSCMediaDeviceInfoD2Ev
  2472: 00307f3d    76 FUNC    GLOBAL DEFAULT    8 _ZN9twiliosdk18TSCMediaDeviceInfoD1Ev
  2473: 00307f89    32 FUNC    GLOBAL DEFAULT    8 _ZN9twiliosdk18TSCMediaDeviceInfoD0Ev
  2474: 00307fa9   132 FUNC    GLOBAL DEFAULT    8 _ZN9twiliosdk18TSCMediaDeviceInfoC2ERKS0_
  2475: 003080e9    24 FUNC    GLOBAL DEFAULT    8 _ZNK9twiliosdk18TSCMediaDeviceInfo13getDeviceNameEv
  2476: 00307fa9   132 FUNC    GLOBAL DEFAULT    8 _ZN9twiliosdk18TSCMediaDeviceInfoC1ERKS0_
  2477: 0030802d    70 FUNC    GLOBAL DEFAULT    8 _ZN9twiliosdk18TSCMediaDeviceInfoaSERKS0_
  2478: 00308119    64 FUNC    GLOBAL DEFAULT    8 _ZN9twiliosdk25TSCVideoCaptureDeviceInfoC2ERKNSt3__112basic_stringIcNS1_11char_traitsIcEENS1_9allocatorIcEEEES9_NS_26_TSCVideoCaptureDeviceTypeE
  2479: 00a78f20    16 OBJECT  GLOBAL DEFAULT   14 _ZTVN9twiliosdk25TSCVideoCaptureDeviceInfoE
  2480: 00308159    64 FUNC    GLOBAL DEFAULT    8 _ZN9twiliosdk25TSCVideoCaptureDeviceInfoD2Ev
  2481: 00308199    32 FUNC    GLOBAL DEFAULT    8 _ZN9twiliosdk25TSCVideoCaptureDeviceInfoD0Ev
  2482: 003081b9    80 FUNC    GLOBAL DEFAULT    8 _ZN9twiliosdk25TSCVideoCaptureDeviceInfoC2ERKS0_
  2483: 00308235    24 FUNC    GLOBAL DEFAULT    8 _ZNK9twiliosdk25TSCVideoCaptureDeviceInfo13getDeviceTypeEv
  2484: 0030824d    56 FUNC    GLOBAL DEFAULT    8 _ZN9twiliosdk23TSCAudioInputDeviceInfoC2ERKNSt3__112basic_stringIcNS1_11char_traitsIcEENS1_9allocatorIcEEEES9_
  2485: 00a78f10    16 OBJECT  GLOBAL DEFAULT   14 _ZTVN9twiliosdk23TSCAudioInputDeviceInfoE
  2486: 00308285    64 FUNC    GLOBAL DEFAULT    8 _ZN9twiliosdk23TSCAudioInputDeviceInfoD2Ev
  2487: 003082c5    32 FUNC    GLOBAL DEFAULT    8 _ZN9twiliosdk23TSCAudioInputDeviceInfoD0Ev
  2488: 003082e5    56 FUNC    GLOBAL DEFAULT    8 _ZN9twiliosdk23TSCAudioInputDeviceInfoC2ERKS0_
  2489: 00a78f40    12 OBJECT  GLOBAL DEFAULT   14 _ZTIN9twiliosdk23TSCAudioInputDeviceInfoE
  2490: 00a78f4c    12 OBJECT  GLOBAL DEFAULT   14 _ZTIN9twiliosdk25TSCVideoCaptureDeviceInfoE
  2491: 00a78f58     8 OBJECT  GLOBAL DEFAULT   14 _ZTIN9twiliosdk18TSCMediaDeviceInfoE
  2492: 009a5958    38 OBJECT  GLOBAL DEFAULT   11 _ZTSN9twiliosdk23TSCAudioInputDeviceInfoE
  2493: 009a5980    40 OBJECT  GLOBAL DEFAULT   11 _ZTSN9twiliosdk25TSCVideoCaptureDeviceInfoE
  2494: 009a59a8    33 OBJECT  GLOBAL DEFAULT   11 _ZTSN9twiliosdk18TSCMediaDeviceInfoE
  2495: 0030cde1     4 FUNC    WEAK   DEFAULT    8 _ZNK5resip13BaseException4whatEv
  2496: 0030cde5    12 FUNC    WEAK   DEFAULT    8 _ZNK5resip13DataException4nameEv
  2497: 0030cdf1   178 FUNC    WEAK   DEFAULT    8 _ZNSt3__113basic_filebufIcNS_11char_traitsIcEEE6setbufEPci
  2498: 0030cea5   368 FUNC    WEAK   DEFAULT    8 _ZNSt3__113basic_filebufIcNS_11char_traitsIcEEE4syncEv
  2499: 00000000     0 FUNC    GLOBAL DEFAULT  UND fseeko
  2500: 008973f5    24 FUNC    GLOBAL DEFAULT    8 _ZNSt8bad_castC1Ev
  2501: 00a902c4    12 OBJECT  GLOBAL DEFAULT   14 _ZTISt8bad_cast
  2502: 0089740d     4 FUNC    GLOBAL DEFAULT    8 _ZNSt8bad_castD1Ev
  2503: 0030d015    96 FUNC    WEAK   DEFAULT    8 _ZNSt3__113basic_filebufIcNS_11char_traitsIcEEE7seekposENS_4fposI9mbstate_tEEj
  2504: 0030d075   164 FUNC    WEAK   DEFAULT    8 _ZNSt3__113basic_filebufIcNS_11char_traitsIcEEE5imbueERKNS_6localeE
  2505: 0030d119    28 FUNC    WEAK   DEFAULT    8 _ZN5resip13DataExceptionD2Ev
  2506: 0030e0b1    76 FUNC    GLOBAL DEFAULT    8 _ZN5resip13BaseExceptionD2Ev
  2507: 00a78fa0    24 OBJECT  WEAK   DEFAULT   14 _ZTVN5resip13DataExceptionE
  2508: 0030d119    28 FUNC    WEAK   DEFAULT    8 _ZN5resip13DataExceptionD1Ev
  2509: 0030d135    32 FUNC    WEAK   DEFAULT    8 _ZN5resip13DataExceptionD0Ev
  2510: 0030d155   220 FUNC    WEAK   DEFAULT    8 _ZNSt3__113basic_filebufIcNS_11char_traitsIcEEE7seekoffExNS_8ios_base7seekdirEj
  2511: 00000000     0 FUNC    GLOBAL DEFAULT  UND ftello
  2512: 00895915    24 FUNC    GLOBAL DEFAULT    8 _ZNSt9bad_allocC1Ev
  2513: 00a8fbec    12 OBJECT  GLOBAL DEFAULT   14 _ZTISt9bad_alloc
  2514: 0089592d     4 FUNC    GLOBAL DEFAULT    8 _ZNSt9bad_allocD1Ev
  2515: 0030d231   376 FUNC    WEAK   DEFAULT    8 _ZNSt3__113basic_filebufIcNS_11char_traitsIcEEE8overflowEi
  2516: 0030d3a9   468 FUNC    WEAK   DEFAULT    8 _ZNSt3__113basic_filebufIcNS_11char_traitsIcEEE9underflowEv
  2517: 0030d57d    78 FUNC    WEAK   DEFAULT    8 _ZNSt3__113basic_filebufIcNS_11char_traitsIcEEE9pbackfailEi
  2518: 0030d5cd    28 FUNC    WEAK   DEFAULT    8 _ZN5resip4DataD2Ev
  2519: 0030d5cd    28 FUNC    WEAK   DEFAULT    8 _ZN5resip4DataD1Ev
  2520: 0030d5e9   476 FUNC    WEAK   DEFAULT    8 _ZNSt3__113basic_filebufIcNS_11char_traitsIcEEED2Ev
  2521: 00a78fb8    64 OBJECT  WEAK   DEFAULT   14 _ZTVNSt3__113basic_filebufIcNS_11char_traitsIcEEEE
  2522: 0030d5e9   476 FUNC    WEAK   DEFAULT    8 _ZNSt3__113basic_filebufIcNS_11char_traitsIcEEED1Ev
  2523: 0030d7c5    18 FUNC    WEAK   DEFAULT    8 _ZNSt3__113basic_filebufIcNS_11char_traitsIcEEED0Ev
  2524: 0030d7d9    84 FUNC    WEAK   DEFAULT    8 _ZNSt3__114basic_ifstreamIcNS_11char_traitsIcEEED1Ev
  2525: 00a79030    40 OBJECT  WEAK   DEFAULT   14 _ZTVNSt3__114basic_ifstreamIcNS_11char_traitsIcEEEE
  2526: 0030d82d    88 FUNC    WEAK   DEFAULT    8 _ZTv0_n12_NSt3__114basic_ifstreamIcNS_11char_traitsIcEEED1Ev
  2527: 0030d885    92 FUNC    WEAK   DEFAULT    8 _ZNSt3__114basic_ifstreamIcNS_11char_traitsIcEEED0Ev
  2528: 0030d8e1    96 FUNC    WEAK   DEFAULT    8 _ZTv0_n12_NSt3__114basic_ifstreamIcNS_11char_traitsIcEEED0Ev
  2529: 00308341     2 FUNC    GLOBAL DEFAULT    8 _ZN5resip4Data15PreallocateTypeC2Ei
  2530: 00308341     2 FUNC    GLOBAL DEFAULT    8 _ZN5resip4Data15PreallocateTypeC1Ei
  2531: 00308345  1414 FUNC    GLOBAL DEFAULT    8 _Z11hexpair2intcc
  2532: 003088d1    70 FUNC    GLOBAL DEFAULT    8 _ZN5resip4DataC2EjRKNS0_15PreallocateTypeE
  2533: 003088d1    70 FUNC    GLOBAL DEFAULT    8 _ZN5resip4DataC1EjRKNS0_15PreallocateTypeE
  2534: 00308919    88 FUNC    GLOBAL DEFAULT    8 _ZN5resip4DataC2EPKcj
  2535: 00308919    88 FUNC    GLOBAL DEFAULT    8 _ZN5resip4DataC1EPKcj
  2536: 00308971    88 FUNC    GLOBAL DEFAULT    8 _ZN5resip4DataC2EPKhj
  2537: 00308971    88 FUNC    GLOBAL DEFAULT    8 _ZN5resip4DataC1EPKhj
  2538: 003089c9    18 FUNC    GLOBAL DEFAULT    8 _ZN5resip4DataC2EPKcjb
  2539: 003089c9    18 FUNC    GLOBAL DEFAULT    8 _ZN5resip4DataC1EPKcjb
  2540: 003089dd    16 FUNC    GLOBAL DEFAULT    8 _ZN5resip4DataC2ENS0_9ShareEnumEPKcj
  2541: 003089dd    16 FUNC    GLOBAL DEFAULT    8 _ZN5resip4DataC1ENS0_9ShareEnumEPKcj
  2542: 003089ed    24 FUNC    GLOBAL DEFAULT    8 _ZN5resip4DataC2ENS0_9ShareEnumEPKc
  2543: 003089ed    24 FUNC    GLOBAL DEFAULT    8 _ZN5resip4DataC1ENS0_9ShareEnumEPKc
  2544: 00308a05    22 FUNC    GLOBAL DEFAULT    8 _ZN5resip4DataC2ENS0_9ShareEnumERKS0_
  2545: 00308a05    22 FUNC    GLOBAL DEFAULT    8 _ZN5resip4DataC1ENS0_9ShareEnumERKS0_
  2546: 00308a1d   110 FUNC    GLOBAL DEFAULT    8 _ZN5resip4DataC2EPKc
  2547: 00308a1d   110 FUNC    GLOBAL DEFAULT    8 _ZN5resip4DataC1EPKc
  2548: 00308a8d    98 FUNC    GLOBAL DEFAULT    8 _ZN5resip4DataC2ERKNSt3__112basic_stringIcNS1_11char_traitsIcEENS1_9allocatorIcEEEE
  2549: 00308a8d    98 FUNC    GLOBAL DEFAULT    8 _ZN5resip4DataC1ERKNSt3__112basic_stringIcNS1_11char_traitsIcEENS1_9allocatorIcEEEE
  2550: 00308af1    84 FUNC    GLOBAL DEFAULT    8 _ZN5resip4DataC2ERKS0_
  2551: 00308af1    84 FUNC    GLOBAL DEFAULT    8 _ZN5resip4DataC1ERKS0_
  2552: 00308b45   444 FUNC    GLOBAL DEFAULT    8 _ZN5resip4DataC2Ei
  2553: 00308b45   444 FUNC    GLOBAL DEFAULT    8 _ZN5resip4DataC1Ei
  2554: 00308d01   280 FUNC    GLOBAL DEFAULT    8 _ZN5resip4DataC2Em
  2555: 00308d01   280 FUNC    GLOBAL DEFAULT    8 _ZN5resip4DataC1Em
  2556: 00308e19   280 FUNC    GLOBAL DEFAULT    8 _ZN5resip4DataC2Ej
  2557: 00308e19   280 FUNC    GLOBAL DEFAULT    8 _ZN5resip4DataC1Ej
  2558: 00308f31   418 FUNC    GLOBAL DEFAULT    8 _ZN5resip4DataC2Ey
  2559: 00308f31   418 FUNC    GLOBAL DEFAULT    8 _ZN5resip4DataC1Ey
  2560: 003090d5    28 FUNC    GLOBAL DEFAULT    8 _ZN5resip4DataC2Ec
  2561: 003090d5    28 FUNC    GLOBAL DEFAULT    8 _ZN5resip4DataC1Ec
  2562: 003090f1    48 FUNC    GLOBAL DEFAULT    8 _ZN5resip4DataC2Eb
  2563: 003090f1    48 FUNC    GLOBAL DEFAULT    8 _ZN5resip4DataC1Eb
  2564: 00309121    40 FUNC    GLOBAL DEFAULT    8 _ZN5resip4Data6setBufENS0_9ShareEnumEPKcj
  2565: 00309149    90 FUNC    GLOBAL DEFAULT    8 _ZN5resip4Data7takeBufERS0_
  2566: 003091a5    30 FUNC    GLOBAL DEFAULT    8 _ZN5resipeqERKNS_4DataES2_
  2567: 003091c5    28 FUNC    GLOBAL DEFAULT    8 _ZN5resipeqERKNS_4DataEPKc
  2568: 003091e1    44 FUNC    GLOBAL DEFAULT    8 _ZN5resipltERKNS_4DataES2_
  2569: 0030920d    56 FUNC    GLOBAL DEFAULT    8 _ZN5resipltERKNS_4DataEPKc
  2570: 00309245    54 FUNC    GLOBAL DEFAULT    8 _ZN5resipltEPKcRKNS_4DataE
  2571: 0030927d    10 FUNC    GLOBAL DEFAULT    8 _ZN5resip4Data9truncate2Ej
  2572: 00309289    76 FUNC    GLOBAL DEFAULT    8 _ZNK5resip4DataplERKS0_
  2573: 00a9b4f4     1 OBJECT  GLOBAL DEFAULT   19 _ZN5resip4Data11PreallocateE
  2574: 003092d5    76 FUNC    GLOBAL DEFAULT    8 _ZNK5resip4DataplEPKc
  2575: 00309321    68 FUNC    GLOBAL DEFAULT    8 _ZNK5resip4DataplEc
  2576: 00309365   176 FUNC    GLOBAL DEFAULT    8 _ZN5resip4Data6resizeEjb
  2577: 0088d179    92 FUNC    GLOBAL DEFAULT    8 _ZNSt13runtime_errorC2EPKc
  2578: 00a90224    20 OBJECT  GLOBAL DEFAULT   14 _ZTVSt11range_error
  2579: 00a90238    12 OBJECT  GLOBAL DEFAULT   14 _ZTISt11range_error
  2580: 008970fd    76 FUNC    GLOBAL DEFAULT    8 _ZNSt11range_errorD1Ev
  2581: 00309415    60 FUNC    GLOBAL DEFAULT    8 _ZN5resip4Data4copyEPKcj
  2582: 00309451   888 FUNC    GLOBAL DEFAULT    8 _ZN5resip4DataC2EdNS0_20DoubleDigitPrecisionE
  2583: 00309451   888 FUNC    GLOBAL DEFAULT    8 _ZN5resip4DataC1EdNS0_20DoubleDigitPrecisionE
  2584: 003097c9    54 FUNC    GLOBAL DEFAULT    8 _ZN5resip4Data6getBufEj
  2585: 00309801    14 FUNC    GLOBAL DEFAULT    8 _ZN5resip4Data7reserveEj
  2586: 00309811    82 FUNC    GLOBAL DEFAULT    8 _ZN5resip4Data6appendEPKcj
  2587: 00309865    42 FUNC    GLOBAL DEFAULT    8 _ZNK5resip4Data5c_strEv
  2588: 00309891    14 FUNC    GLOBAL DEFAULT    8 _ZNK5resip4Data3ownEv
  2589: 003098a1    30 FUNC    GLOBAL DEFAULT    8 _ZN5resip4Data8truncateEj
  2590: 003098c1    54 FUNC    GLOBAL DEFAULT    8 _ZN5resip4Data2atEj
  2591: 003098f9   824 FUNC    GLOBAL DEFAULT    8 _ZN5resip4DataeOERKS0_
  2592: 00309c31   292 FUNC    GLOBAL DEFAULT    8 _ZNK5resip4Data7escapedEv
  2593: 00309d55   340 FUNC    GLOBAL DEFAULT    8 _ZNK5resip4Data11charEncodedEv
  2594: 00309ea9   208 FUNC    GLOBAL DEFAULT    8 _ZNK5resip4Data13charUnencodedEv
  2595: 00000000     0 OBJECT  GLOBAL DEFAULT  UND _tolower_tab_
  2596: 00309f79   412 FUNC    GLOBAL DEFAULT    8 _Z24urlNonEncodedCharsInitFnv
  2597: 00a9b3f4   256 OBJECT  GLOBAL DEFAULT   19 urlNonEncodedChars
  2598: 0030a115    88 FUNC    GLOBAL DEFAULT    8 _ZNK5resip4Data5truncEj
  2599: 0030a16d   248 FUNC    GLOBAL DEFAULT    8 _ZNK5resip4Data3hexEv
  2600: 0030a265   252 FUNC    GLOBAL DEFAULT    8 _ZN5resip4Data9lowercaseEv
  2601: 0030a361   252 FUNC    GLOBAL DEFAULT    8 _ZN5resip4Data9uppercaseEv
  2602: 0030a45d   198 FUNC    GLOBAL DEFAULT    8 _ZN5resip4Data15schemeLowercaseEv
  2603: 0030a525   628 FUNC    GLOBAL DEFAULT    8 _ZNK5resip4Data10convertIntEv
  2604: 0030a799   592 FUNC    GLOBAL DEFAULT    8 _ZNK5resip4Data19convertUnsignedLongEv
  2605: 0030a9e9   780 FUNC    GLOBAL DEFAULT    8 _ZNK5resip4Data13convertUInt64Ev
  2606: 0030acf5   592 FUNC    GLOBAL DEFAULT    8 _ZNK5resip4Data11convertSizeEv
  2607: 0030af45  1056 FUNC    GLOBAL DEFAULT    8 _ZNK5resip4Data13convertDoubleEv
  2608: 0030b365    30 FUNC    GLOBAL DEFAULT    8 _ZNK5resip4Data6prefixERKS0_
  2609: 0030b385    34 FUNC    GLOBAL DEFAULT    8 _ZNK5resip4Data7postfixERKS0_
  2610: 0030b3a9    34 FUNC    GLOBAL DEFAULT    8 _ZNK5resip4Data6substrEjj
  2611: 0030b3cd    84 FUNC    GLOBAL DEFAULT    8 _ZNK5resip4Data4findERKS0_j
  2612: 00504251    18 FUNC    GLOBAL DEFAULT    8 _ZN5resip11ParseBufferC1EPKcjRKNS_4DataE
  2613: 005050ad   456 FUNC    GLOBAL DEFAULT    8 _ZN5resip11ParseBuffer11skipToCharsERKNS_4DataE
  2614: 00504c29    18 FUNC    GLOBAL DEFAULT    8 _ZN5resip11ParseBuffer7PointerC1ERKS0_PKcb
  2615: 00a9b4f8    32 OBJECT  GLOBAL DEFAULT   19 _ZN5resip4Data5EmptyE
  2616: 0030b421   170 FUNC    GLOBAL DEFAULT    8 _ZN5resip4Data7replaceERKS0_S2_i
  2617: 0030b4cd   248 FUNC    GLOBAL DEFAULT    8 _ZN5resip4Data7rawHashEPKhj
  2618: 0030b5c5   292 FUNC    GLOBAL DEFAULT    8 _ZN5resip4Data22rawCaseInsensitiveHashEPKhj
  2619: 0030b6e9   388 FUNC    GLOBAL DEFAULT    8 _ZN5resip4Data27rawCaseInsensitiveTokenHashEPKhj
  2620: 0030b86d   238 FUNC    GLOBAL DEFAULT    8 _Z4bitsj
  2621: 0030b95d     6 FUNC    GLOBAL DEFAULT    8 _ZNK5resip4Data4hashEv
  2622: 0030b965     6 FUNC    GLOBAL DEFAULT    8 _ZNK5resip4Data19caseInsensitivehashEv
  2623: 0030b96d     6 FUNC    GLOBAL DEFAULT    8 _ZNK5resip4Data24caseInsensitiveTokenHashEv
  2624: 0030b975   824 FUNC    GLOBAL DEFAULT    8 _ZNK5resip4Data36sizeEqualCaseInsensitiveTokenCompareERKS0_
  2625: 0030bcad   272 FUNC    GLOBAL DEFAULT    8 _ZN5resip4Data8toBitsetERKS0_
  2626: 0030bdbd     6 FUNC    GLOBAL DEFAULT    8 _ZNKSt3__14hashIN5resip4DataEEclERKS2_
  2627: 0030bdc5   312 FUNC    GLOBAL DEFAULT    8 _ZNK5resip4Data12base64decodeEv
  2628: 0030befd   312 FUNC    GLOBAL DEFAULT    8 _ZNK5resip4Data12base64encodeEb
  2629: 0030c035   132 FUNC    GLOBAL DEFAULT    8 _ZNK5resip4Data3md5ENS0_12EncodingTypeE
  2630: 0050385d    52 FUNC    GLOBAL DEFAULT    8 _ZN5resip7MD5InitEPNS_10MD5ContextE
  2631: 005040bd   260 FUNC    GLOBAL DEFAULT    8 _ZN5resip9MD5UpdateEPNS_10MD5ContextEPKhj
  2632: 005041c1   138 FUNC    GLOBAL DEFAULT    8 _ZN5resip8MD5FinalEPhPNS_10MD5ContextE
  2633: 0030d941   288 FUNC    WEAK   DEFAULT    8 _ZNSt3__114basic_ifstreamIcNS_11char_traitsIcEEE4openEPKcj
  2634: 0030c0b9   228 FUNC    GLOBAL DEFAULT    8 _ZNK5resip4Data14escapeToStreamERNSt3__113basic_ostreamIcNS1_11char_traitsIcEEEERKNS1_6bitsetILj256EEE
  2635: 009a5ca0   256 OBJECT  GLOBAL DEFAULT   11 _ZN5resip10DataHelper9isCharHexE
  2636: 0030c19d   122 FUNC    GLOBAL DEFAULT    8 _ZNK5resip4Data9urlDecodeERNSt3__113basic_ostreamIcNS1_11char_traitsIcEEEE
  2637: 0030c219   172 FUNC    GLOBAL DEFAULT    8 _ZNK5resip4Data9urlEncodeERNSt3__113basic_ostreamIcNS1_11char_traitsIcEEEE
  2638: 0030c2c5   326 FUNC    GLOBAL DEFAULT    8 _ZNK5resip4Data17xmlCharDataDecodeERNSt3__113basic_ostreamIcNS1_11char_traitsIcEEEE
  2639: 0030c40d   200 FUNC    GLOBAL DEFAULT    8 _ZNK5resip4Data17xmlCharDataEncodeERNSt3__113basic_ostreamIcNS1_11char_traitsIcEEEE
  2640: 0030c4d5  1464 FUNC    GLOBAL DEFAULT    8 _ZN5resip4Data8fromFileERKS0_
  2641: 0030e069    72 FUNC    GLOBAL DEFAULT    8 _ZN5resip13BaseExceptionC2ERKNS_4DataES3_i
  2642: 00a78f78    12 OBJECT  WEAK   DEFAULT   14 _ZTIN5resip13DataExceptionE
  2643: 0030ca8d   212 FUNC    GLOBAL DEFAULT    8 _ZNK5resip4Data10urlEncodedEv
  2644: 0050be09   132 FUNC    GLOBAL DEFAULT    8 _ZN5resip10DataStreamC1ERNS_4DataE
  2645: 0050c2f1   244 FUNC    GLOBAL DEFAULT    8 _ZN5resip10DataStreamD1Ev
  2646: 0030cb61   212 FUNC    GLOBAL DEFAULT    8 _ZNK5resip4Data10urlDecodedEv
  2647: 0030cc35   212 FUNC    GLOBAL DEFAULT    8 _ZNK5resip4Data17xmlCharDataEncodeEv
  2648: 0030cd09   212 FUNC    GLOBAL DEFAULT    8 _ZNK5resip4Data17xmlCharDataDecodeEv
  2649: 00a78f60    24 OBJECT  WEAK   DEFAULT   14 _ZTINSt3__113basic_istreamIcNS_11char_traitsIcEEEE
  2650: 009a5a50    47 OBJECT  WEAK   DEFAULT   11 _ZTSNSt3__113basic_istreamIcNS_11char_traitsIcEEEE
  2651: 009a5a80    24 OBJECT  WEAK   DEFAULT   11 _ZTSN5resip13DataExceptionE
  2652: 00a79058    12 OBJECT  GLOBAL DEFAULT   14 _ZTIN5resip13BaseExceptionE
  2653: 00a78f84    12 OBJECT  WEAK   DEFAULT   14 _ZTINSt3__113basic_filebufIcNS_11char_traitsIcEEEE
  2654: 009a5a98    47 OBJECT  WEAK   DEFAULT   11 _ZTSNSt3__113basic_filebufIcNS_11char_traitsIcEEEE
  2655: 00a78f90    12 OBJECT  WEAK   DEFAULT   14 _ZTINSt3__114basic_ifstreamIcNS_11char_traitsIcEEEE
  2656: 009a5ac8    48 OBJECT  WEAK   DEFAULT   11 _ZTSNSt3__114basic_ifstreamIcNS_11char_traitsIcEEEE
  2657: 00a79020    16 OBJECT  WEAK   DEFAULT   14 _ZTTNSt3__114basic_ifstreamIcNS_11char_traitsIcEEEE
  2658: 009a5da0     4 OBJECT  GLOBAL DEFAULT   11 _ZN5resip4Data4nposE
  2659: 0089643d     2 FUNC    GLOBAL DEFAULT    8 _ZNSt9exceptionD2Ev
  2660: 00a79068    24 OBJECT  GLOBAL DEFAULT   14 _ZTVN5resip13BaseExceptionE
  2661: 0030e069    72 FUNC    GLOBAL DEFAULT    8 _ZN5resip13BaseExceptionC1ERKNS_4DataES3_i
  2662: 0030e0b1    76 FUNC    GLOBAL DEFAULT    8 _ZN5resip13BaseExceptionD1Ev
  2663: 0030e0fd    18 FUNC    GLOBAL DEFAULT    8 _ZN5resip13BaseExceptionD0Ev
  2664: 0030e111   100 FUNC    GLOBAL DEFAULT    8 _ZN5resiplsERNSt3__113basic_ostreamIcNS0_11char_traitsIcEEEERKNS_13BaseExceptionE
  2665: 009c5094    24 OBJECT  GLOBAL DEFAULT   11 _ZTSN5resip13BaseExceptionE
  2666: 00000000     0 FUNC    GLOBAL DEFAULT  UND fgets
  2667: 00000000     0 FUNC    GLOBAL DEFAULT  UND strstr
  2668: 00000000     0 FUNC    GLOBAL DEFAULT  UND getenv
  2669: 00000000     0 FUNC    GLOBAL DEFAULT  UND open
  2670: 00000000     0 FUNC    GLOBAL DEFAULT  UND read
  2671: 00000000     0 FUNC    GLOBAL DEFAULT  UND dlerror
  2672: 00000000     0 FUNC    GLOBAL DEFAULT  UND dlopen
  2673: 00000000     0 FUNC    GLOBAL DEFAULT  UND dlsym
  2674: 00000000     0 FUNC    GLOBAL DEFAULT  UND dlclose
  2675: 00000000     0 FUNC    GLOBAL DEFAULT  UND memmem
  2676: 008ca95c    72 FUNC    GLOBAL DEFAULT    8 __popcountsi2
  2677: 00000000     0 FUNC    GLOBAL DEFAULT  UND strtol
  2678: 0031d051    92 FUNC    WEAK   DEFAULT    8 _ZNSt3__16vectorINS_12basic_stringIcNS_11char_traitsIcEENS_9allocatorIcEEEENS4_IS6_EEE7reserveEj
  2679: 00000000     0 FUNC    GLOBAL DEFAULT  UND strpbrk
  2680: 0031f4d9   108 FUNC    WEAK   DEFAULT    8 _ZNSt3__16vectorIjNS_9allocatorIjEEE21__push_back_slow_pathIRKjEEvOT_
  2681: 0032bc5d    52 FUNC    WEAK   DEFAULT    8 _ZNSt3__16vectorIhNS_9allocatorIhEEEC2Ej
  2682: 0032bc5d    52 FUNC    WEAK   DEFAULT    8 _ZNSt3__16vectorIhNS_9allocatorIhEEEC1Ej
  2683: 0032d781   144 FUNC    WEAK   DEFAULT    8 _ZNSt3__16vectorINS_4pairIN3rtc6Socket6OptionEiEENS_9allocatorIS5_EEE21__push_back_slow_pathIS5_EEvOT_
  2684: 0032d8a9   212 FUNC    WEAK   DEFAULT    8 _ZNSt3__16vectorIcNS_9allocatorIcEEE6assignIPcEENS_9enable_ifIXaasrNS_21__is_forward_iteratorIT_EE5valuesrNS_16is_constructibleIcJNS_15iterator_traitsIS8_E9referenceEEEE5valueEvE4typeES8_S8_
  2685: 00331603    36 FUNC    WEAK   DEFAULT    8 _ZNSt3__16vectorIjNS_9allocatorIjEEE10deallocateEv
  2686: 00331da9   196 FUNC    WEAK   DEFAULT    8 _ZNSt3__16vectorIjNS_9allocatorIjEEE6assignIPjEENS_9enable_ifIXaasrNS_21__is_forward_iteratorIT_EE5valuesrNS_16is_constructibleIjJNS_15iterator_traitsIS8_E9referenceEEEE5valueEvE4typeES8_S8_
  2687: 0033cae5   108 FUNC    WEAK   DEFAULT    8 _ZNSt3__16vectorIiNS_9allocatorIiEEE21__push_back_slow_pathIRKiEEvOT_
  2688: 0033cc35   172 FUNC    WEAK   DEFAULT    8 _ZNSt3__16vectorINS_12basic_stringIcNS_11char_traitsIcEENS_9allocatorIcEEEENS4_IS6_EEE8__appendEj
  2689: 0034a255   144 FUNC    WEAK   DEFAULT    8 _ZNSt3__16vectorINS_4pairIjiEENS_9allocatorIS2_EEE21__push_back_slow_pathIS2_EEvOT_
  2690: 00000000     0 FUNC    GLOBAL DEFAULT  UND strtok
  2691: 00357f25   120 FUNC    WEAK   DEFAULT    8 _ZNSt3__13mapIibNS_4lessIiEENS_9allocatorINS_4pairIKibEEEEEixERS5_
  2692: 00357f9d   120 FUNC    WEAK   DEFAULT    8 _ZNSt3__13mapIiN7cricket10VideoCodec9CodecTypeENS_4lessIiEENS_9allocatorINS_4pairIKiS3_EEEEEixERS8_
  2693: 00358015   120 FUNC    WEAK   DEFAULT    8 _ZNSt3__13mapIiiNS_4lessIiEENS_9allocatorINS_4pairIKiiEEEEEixERS5_
  2694: 00359691   224 FUNC    WEAK   DEFAULT    8 _ZNSt3__16vectorIiNS_9allocatorIiEEE6assignIPiEENS_9enable_ifIXaasrNS_21__is_forward_iteratorIT_EE5valuesrNS_16is_constructibleIiJNS_15iterator_traitsIS8_E9referenceEEEE5valueEvE4typeES8_S8_
  2695: 0035d5b1   280 FUNC    WEAK   DEFAULT    8 _ZNSt3__16vectorIjNS_9allocatorIjEEE6insertINS_11__wrap_iterIPKjEEEENS_9enable_ifIXaasrNS_21__is_forward_iteratorIT_EE5valuesrNS_16is_constructibleIjJNS_15iterator_traitsISB_E9referenceEEEE5valueENS5_IPjEEE4typeES8_SB_SB_
  2696: 0035d8b1   164 FUNC    WEAK   DEFAULT    8 _ZNSt3__16vectorIiNS_9allocatorIiEEE8__appendEj
  2697: 00000000     0 FUNC    GLOBAL DEFAULT  UND srand48
  2698: 0036a7c5   108 FUNC    WEAK   DEFAULT    8 _ZNSt3__16vectorIN6webrtc9FrameTypeENS_9allocatorIS2_EEE21__push_back_slow_pathIS2_EEvOT_
  2699: 003722d9   104 FUNC    WEAK   DEFAULT    8 _ZNSt3__16vectorItNS_9allocatorItEEE21__push_back_slow_pathIRKtEEvOT_
  2700: 0037a565   140 FUNC    WEAK   DEFAULT    8 _ZNSt3__13mapIxiNS_4lessIxEENS_9allocatorINS_4pairIKxiEEEEEixERS5_
  2701: 0038132b    42 FUNC    WEAK   DEFAULT    8 _ZNSt3__16vectorIN6webrtc4rtcp17TransportFeedback12StatusSymbolENS_9allocatorIS4_EEE12__move_rangeEPS4_S8_S8_
  2702: 00381355    82 FUNC    WEAK   DEFAULT    8 _ZNSt3__16vectorIN6webrtc4rtcp17TransportFeedback12StatusSymbolENS_9allocatorIS4_EEE26__swap_out_circular_bufferERNS_14__split_bufferIS4_RS6_EEPS4_
  2703: 003813a9   284 FUNC    WEAK   DEFAULT    8 _ZNSt3__16vectorIN6webrtc4rtcp17TransportFeedback12StatusSymbolENS_9allocatorIS4_EEE6insertENS_11__wrap_iterIPKS4_EEjRS9_
  2704: 003814d9   256 FUNC    WEAK   DEFAULT    8 _ZNSt3__16vectorIN6webrtc4rtcp17TransportFeedback12StatusSymbolENS_9allocatorIS4_EEE6insertIPKS4_EENS_9enable_ifIXaasrNS_21__is_forward_iteratorIT_EE5valuesrNS_16is_constructibleIS4_JNS_15iterator_traitsISD_E9referenceEEEE5valueENS_11__wrap_iterIPS4_EEE4typeENSK_ISA_EESD_SD_
  2705: 003815fd   104 FUNC    WEAK   DEFAULT    8 _ZNSt3__16vectorIsNS_9allocatorIsEEE21__push_back_slow_pathIRKsEEvOT_
  2706: 00381aa5   104 FUNC    WEAK   DEFAULT    8 _ZNSt3__16vectorIsNS_9allocatorIsEEE21__push_back_slow_pathIsEEvOT_
  2707: 00382133   812 FUNC    WEAK   DEFAULT    8 _ZNSt3__15dequeIN6webrtc4rtcp17TransportFeedback12StatusSymbolENS_9allocatorIS4_EEE19__add_back_capacityEv
  2708: 0038245f    80 FUNC    WEAK   DEFAULT    8 _ZNSt3__15dequeIN6webrtc4rtcp17TransportFeedback12StatusSymbolENS_9allocatorIS4_EEE9push_backERKS4_
  2709: 008ca270    28 FUNC    GLOBAL DEFAULT    8 __aeabi_llsr
  2710: 00384ab9   172 FUNC    WEAK   DEFAULT    8 _ZNSt3__16vectorIdNS_9allocatorIdEEE8__appendEj
  2711: 00384b65    46 FUNC    WEAK   DEFAULT    8 _ZNSt3__16vectorIdNS_9allocatorIdEEE6resizeEj
  2712: 00000000     0 FUNC    GLOBAL DEFAULT  UND sqrt
  2713: 00000000     0 FUNC    GLOBAL DEFAULT  UND exp
  2714: 00000000     0 FUNC    GLOBAL DEFAULT  UND realloc
  2715: 00000000     0 FUNC    GLOBAL DEFAULT  UND pow
  2716: 00387125   812 FUNC    WEAK   DEFAULT    8 _ZNSt3__15dequeIfNS_9allocatorIfEEE19__add_back_capacityEv
  2717: 00388031   172 FUNC    WEAK   DEFAULT    8 _ZNSt3__16vectorIPvNS_9allocatorIS1_EEE8__appendEjRKS1_
  2718: 00000000     0 FUNC    GLOBAL DEFAULT  UND fmaf
  2719: 00000000     0 FUNC    GLOBAL DEFAULT  UND logf
  2720: 00000000     0 FUNC    GLOBAL DEFAULT  UND fmax
  2721: 00388b89   164 FUNC    WEAK   DEFAULT    8 _ZNSt3__16vectorIfNS_9allocatorIfEEE8__appendEj
  2722: 00000000     0 FUNC    GLOBAL DEFAULT  UND expf
  2723: 00000000     0 FUNC    GLOBAL DEFAULT  UND roundf
  2724: 003898a9   192 FUNC    WEAK   DEFAULT    8 _ZNSt3__16vectorIiNS_9allocatorIiEEE6assignEjRKi
  2725: 00000000     0 FUNC    GLOBAL DEFAULT  UND __isinff
  2726: 0038b6c9   108 FUNC    WEAK   DEFAULT    8 _ZNSt3__16vectorIfNS_9allocatorIfEEE21__push_back_slow_pathIfEEvOT_
  2727: 00000000     0 FUNC    GLOBAL DEFAULT  UND fmaxf
  2728: 00000000     0 FUNC    GLOBAL DEFAULT  UND logbf
  2729: 00000000     0 FUNC    GLOBAL DEFAULT  UND __isfinitef
  2730: 00000000     0 FUNC    GLOBAL DEFAULT  UND scalbnf
  2731: 0038c131   200 FUNC    WEAK   DEFAULT    8 _ZNSt3__16vectorINS_7complexIfEENS_9allocatorIS2_EEE8__appendEj
  2732: 0038c1f9    46 FUNC    WEAK   DEFAULT    8 _ZNSt3__16vectorINS_7complexIfEENS_9allocatorIS2_EEE6resizeEj
  2733: 0038c229   164 FUNC    WEAK   DEFAULT    8 _ZNSt3__16vectorIPNS_7complexIfEENS_9allocatorIS3_EEE8__appendEj
  2734: 0038c2cd    46 FUNC    WEAK   DEFAULT    8 _ZNSt3__16vectorIPNS_7complexIfEENS_9allocatorIS3_EEE6resizeEj
  2735: 00000000     0 FUNC    GLOBAL DEFAULT  UND hypotf
  2736: 00000000     0 FUNC    GLOBAL DEFAULT  UND atan2f
  2737: 00000000     0 FUNC    GLOBAL DEFAULT  UND __signbitf
  2738: 00000000     0 FUNC    GLOBAL DEFAULT  UND j0
  2739: 00395ded   164 FUNC    WEAK   DEFAULT    8 _ZNSt3__16vectorIjNS_9allocatorIjEEE8__appendEj
  2740: 00000000     0 FUNC    GLOBAL DEFAULT  UND lround
  2741: 0039d295   108 FUNC    WEAK   DEFAULT    8 _ZNSt3__16vectorIN7cricket12ProtocolTypeENS_9allocatorIS2_EEE21__push_back_slow_pathIRKS2_EEvOT_
  2742: 003a41a7   120 FUNC    WEAK   DEFAULT    8 _ZNSt3__13mapIN3rtc6Socket6OptionEiNS_4lessIS3_EENS_9allocatorINS_4pairIKS3_iEEEEEixERS8_
  2743: 00000000     0 FUNC    GLOBAL DEFAULT  UND ctime_r
  2744: 00000000     0 FUNC    GLOBAL DEFAULT  UND localtime_r
  2745: 00000000     0 FUNC    GLOBAL DEFAULT  UND pthread_rwlock_destroy
  2746: 00000000     0 FUNC    GLOBAL DEFAULT  UND pthread_rwlock_wrlock
  2747: 00000000     0 FUNC    GLOBAL DEFAULT  UND pthread_rwlock_unlock
  2748: 00000000     0 FUNC    GLOBAL DEFAULT  UND pthread_rwlock_rdlock
  2749: 00000000     0 FUNC    GLOBAL DEFAULT  UND pthread_rwlock_init
  2750: 00000000     0 FUNC    GLOBAL DEFAULT  UND pthread_cond_signal
  2751: 00000000     0 FUNC    GLOBAL DEFAULT  UND pthread_cond_timedwait
  2752: 00000000     0 FUNC    GLOBAL DEFAULT  UND readlink
  2753: 00000000     0 FUNC    GLOBAL DEFAULT  UND mkstemp
  2754: 00000000     0 FUNC    GLOBAL DEFAULT  UND statfs
  2755: 00000000     0 FUNC    GLOBAL DEFAULT  UND getcwd
  2756: 00000000     0 FUNC    GLOBAL DEFAULT  UND chmod
  2757: 00000000     0 FUNC    GLOBAL DEFAULT  UND mkdir
  2758: 00000000     0 FUNC    GLOBAL DEFAULT  UND unlink
  2759: 00000000     0 FUNC    GLOBAL DEFAULT  UND rmdir
  2760: 00000000     0 FUNC    GLOBAL DEFAULT  UND rename
  2761: 00000000     0 FUNC    GLOBAL DEFAULT  UND write
  2762: 00000000     0 FUNC    GLOBAL DEFAULT  UND getsockopt
  2763: 00000000     0 FUNC    GLOBAL DEFAULT  UND listen
  2764: 00000000     0 FUNC    GLOBAL DEFAULT  UND connect
  2765: 00000000     0 FUNC    GLOBAL DEFAULT  UND bind
  2766: 00000000     0 FUNC    GLOBAL DEFAULT  UND sendto
  2767: 00000000     0 FUNC    GLOBAL DEFAULT  UND fcntl
  2768: 00000000     0 FUNC    GLOBAL DEFAULT  UND accept
  2769: 00000000     0 FUNC    GLOBAL DEFAULT  UND pipe
  2770: 00000000     0 FUNC    GLOBAL DEFAULT  UND setsockopt
  2771: 00000000     0 FUNC    GLOBAL DEFAULT  UND recvfrom
  2772: 00000000     0 FUNC    GLOBAL DEFAULT  UND getpeername
  2773: 00000000     0 FUNC    GLOBAL DEFAULT  UND getsockname
  2774: 00000000     0 FUNC    GLOBAL DEFAULT  UND select
  2775: 00000000     0 FUNC    GLOBAL DEFAULT  UND sigaction
  2776: 00000000     0 FUNC    GLOBAL DEFAULT  UND mktime
  2777: 00000000     0 FUNC    GLOBAL DEFAULT  UND localtime
  2778: 003bdf2d   114 FUNC    WEAK   DEFAULT    8 _ZNSt3__112basic_stringIcNS_11char_traitsIcEENS_9allocatorIcEEE6assignIPKcEENS_9enable_ifIXsrNS_21__is_forward_iteratorIT_EE5valueERS5_E4typeESB_SB_
  2779: 003be095   220 FUNC    WEAK   DEFAULT    8 _ZNSt3__16vectorINS_4pairINS_12basic_stringIcNS_11char_traitsIcEENS_9allocatorIcEEEES7_EENS5_IS8_EEE21__push_back_slow_pathIRKS8_EEvOT_
  2780: 00000000     0 FUNC    GLOBAL DEFAULT  UND raise
  2781: 003c3da5    56 FUNC    WEAK   DEFAULT    8 _ZN6webrtc17ObserverInterfaceD2Ev
  2782: 003c3da5    56 FUNC    WEAK   DEFAULT    8 _ZN6webrtc17ObserverInterfaceD1Ev
  2783: 003c3ddd    32 FUNC    WEAK   DEFAULT    8 _ZN6webrtc17ObserverInterfaceD0Ev
  2784: 003c3dfd    48 FUNC    WEAK   DEFAULT    8 _ZN6webrtc17ObserverInterfaceC2Ev
  2785: 003c3dfd    48 FUNC    WEAK   DEFAULT    8 _ZN6webrtc17ObserverInterfaceC1Ev
  2786: 003c1425   532 FUNC    GLOBAL DEFAULT    8 _ZN9twiliosdk21TSCMediaTrackObserverC2EPNS_10TSCSessionERNSt3__13mapINS3_12basic_stringIcNS3_11char_traitsIcEENS3_9allocatorIcEEEESA_NS3_4lessISA_EENS8_INS3_4pairIKSA_SA_EEEEEEPN6webrtc25MediaStreamTrackInterfaceE
  2787: 00a7d340    20 OBJECT  GLOBAL DEFAULT   14 _ZTVN9twiliosdk21TSCMediaTrackObserverE
  2788: 003c1639   144 FUNC    GLOBAL DEFAULT    8 _ZN9twiliosdk21TSCMediaTrackObserverD2Ev
  2789: 003c1639   144 FUNC    GLOBAL DEFAULT    8 _ZN9twiliosdk21TSCMediaTrackObserverD1Ev
  2790: 003c16c9    32 FUNC    GLOBAL DEFAULT    8 _ZN9twiliosdk21TSCMediaTrackObserverD0Ev
  2791: 003c16e9   180 FUNC    GLOBAL DEFAULT    8 _ZN9twiliosdk21TSCMediaTrackObserver9OnChangedEv
  2792: 003c3e2d   576 FUNC    GLOBAL DEFAULT    8 _ZN9twiliosdk24ConversationEventFactory13eventForTrackEPN6webrtc25MediaStreamTrackInterfaceEPNS_10TSCSessionERNSt3__13mapINS6_12basic_stringIcNS6_11char_traitsIcEENS6_9allocatorIcEEEESD_NS6_4lessISD_EENSB_INS6_4pairIKSD_SD_EEEEEE
  2793: 003c406d    32 FUNC    GLOBAL DEFAULT    8 _ZN9twiliosdk24ConversationEventFactory12releaseEventEPNS_17ConversationEventE
  2794: 003c6695    80 FUNC    WEAK   DEFAULT    8 _ZN10TwilioPoco17DateTimeFormatter6formatERKNS_9TimestampERKNSt3__112basic_stringIcNS4_11char_traitsIcEENS4_9allocatorIcEEEEi
  2795: 00759a2c   104 FUNC    GLOBAL DEFAULT    8 _ZN10TwilioPoco8DateTimeC1ERKNS_9TimestampE
  2796: 003c66e5    60 FUNC    WEAK   DEFAULT    8 _ZN10TwilioPoco17DateTimeFormatter6formatERKNS_8DateTimeERKNSt3__112basic_stringIcNS4_11char_traitsIcEENS4_9allocatorIcEEEEi
  2797: 007586a8     4 FUNC    GLOBAL DEFAULT    8 _ZN10TwilioPoco8DateTimeD1Ev
  2798: 0075afac  1276 FUNC    GLOBAL DEFAULT    8 _ZN10TwilioPoco17DateTimeFormatter6appendERNSt3__112basic_stringIcNS1_11char_traitsIcEENS1_9allocatorIcEEEERKNS_8DateTimeERKS7_i
  2799: 003c6721    40 FUNC    WEAK   DEFAULT    8 _ZN9twiliosdk9TrackInfoC2Ev
  2800: 003c6721    40 FUNC    WEAK   DEFAULT    8 _ZN9twiliosdk9TrackInfoC1Ev
  2801: 003c6749    26 FUNC    WEAK   DEFAULT    8 _ZN9twiliosdk9TrackInfo5setIdERKNSt3__112basic_stringIcNS1_11char_traitsIcEENS1_9allocatorIcEEEE
  2802: 003c6765    26 FUNC    WEAK   DEFAULT    8 _ZN9twiliosdk9TrackInfo7setKindENS0_4KindE
  2803: 003c6781    28 FUNC    WEAK   DEFAULT    8 _ZN9twiliosdk9TrackInfo11setWithheldEb
  2804: 003c679d   212 FUNC    WEAK   DEFAULT    8 _ZN9twiliosdk21ConversationEventInfo12addTrackInfoEv
  2805: 003c6a05   166 FUNC    WEAK   DEFAULT    8 _ZNSt3__16vectorIPN9twiliosdk9TrackInfoENS_9allocatorIS3_EEE19__annotate_increaseEj
  2806: 003c6aad   434 FUNC    WEAK   DEFAULT    8 _ZNSt3__16vectorIPN9twiliosdk9TrackInfoENS_9allocatorIS3_EEE21__push_back_slow_pathIRKS3_EEvOT_
  2807: 003c6871    28 FUNC    WEAK   DEFAULT    8 _ZN9twiliosdk21ConversationEventInfo17setParticipantSidERKNSt3__112basic_stringIcNS1_11char_traitsIcEENS1_9allocatorIcEEEE
  2808: 003c688d    28 FUNC    WEAK   DEFAULT    8 _ZN9twiliosdk21ConversationEventInfo18setConversationSidERKNSt3__112basic_stringIcNS1_11char_traitsIcEENS1_9allocatorIcEEEE
  2809: 003c68a9    28 FUNC    WEAK   DEFAULT    8 _ZN9twiliosdk21ConversationEventInfo12setTimestampERKNSt3__112basic_stringIcNS1_11char_traitsIcEENS1_9allocatorIcEEEE
  2810: 003c68c5    52 FUNC    WEAK   DEFAULT    8 _ZN9twiliosdk21ConversationEventInfo10setAddressERKNSt3__112basic_stringIcNS1_11char_traitsIcEENS1_9allocatorIcEEEE
  2811: 003c68f9    26 FUNC    WEAK   DEFAULT    8 _ZN9twiliosdk21ConversationEventInfo12setEventTypeENS0_9EventTypeE
  2812: 003c6915   210 FUNC    WEAK   DEFAULT    8 _ZN9twiliosdk17ConversationEvent12addEventInfoEv
  2813: 003c8599   224 FUNC    GLOBAL DEFAULT    8 _ZN9twiliosdk21ConversationEventInfoC1Ev
  2814: 003c6c61   166 FUNC    WEAK   DEFAULT    8 _ZNSt3__16vectorIPN9twiliosdk21ConversationEventInfoENS_9allocatorIS3_EEE19__annotate_increaseEj
  2815: 003c6d09   434 FUNC    WEAK   DEFAULT    8 _ZNSt3__16vectorIPN9twiliosdk21ConversationEventInfoENS_9allocatorIS3_EEE21__push_back_slow_pathIRKS3_EEvOT_
  2816: 003c69e9    26 FUNC    WEAK   DEFAULT    8 _ZN9twiliosdk17ConversationEvent7setTypeENS0_4TypeE
  2817: 003cad75    88 FUNC    GLOBAL DEFAULT    8 _ZN9twiliosdk17ConversationEventC1Ev
  2818: 0078a09c    20 FUNC    GLOBAL DEFAULT    8 _ZN10TwilioPoco9TimestampC1Ev
  2819: 00789f60   316 FUNC    GLOBAL DEFAULT    8 _ZN10TwilioPoco9Timestamp6updateEv
  2820: 00789ec8     4 FUNC    GLOBAL DEFAULT    8 _ZN10TwilioPoco9TimestampD1Ev
  2821: 00a954b0     4 OBJECT  GLOBAL DEFAULT   18 _ZN9twiliosdk19kTSCAliasAddressKeyE
  2822: 003cadcd   110 FUNC    GLOBAL DEFAULT    8 _ZN9twiliosdk17ConversationEventD1Ev
  2823: 003c6ebd    24 FUNC    WEAK   DEFAULT    8 _ZNSt3__16vectorIPN9twiliosdk9TrackInfoENS_9allocatorIS3_EEE31__annotate_contiguous_containerEPKvS8_S8_S8_
  2824: 003c747d   116 FUNC    WEAK   DEFAULT    8 _ZNKSt3__16vectorIPN9twiliosdk9TrackInfoENS_9allocatorIS3_EEE8max_sizeEv
  2825: 003c6ed5   196 FUNC    WEAK   DEFAULT    8 _ZNSt3__114__split_bufferIPN9twiliosdk9TrackInfoERNS_9allocatorIS3_EEEC1EjjS6_
  2826: 003c706d   302 FUNC    WEAK   DEFAULT    8 _ZNSt3__16vectorIPN9twiliosdk9TrackInfoENS_9allocatorIS3_EEE26__swap_out_circular_bufferERNS_14__split_bufferIS3_RS5_EE
  2827: 003c6f99   210 FUNC    WEAK   DEFAULT    8 _ZNSt3__114__split_bufferIPN9twiliosdk9TrackInfoERNS_9allocatorIS3_EEED1Ev
  2828: 003c719d    24 FUNC    WEAK   DEFAULT    8 _ZNSt3__16vectorIPN9twiliosdk21ConversationEventInfoENS_9allocatorIS3_EEE31__annotate_contiguous_containerEPKvS8_S8_S8_
  2829: 003c7645   116 FUNC    WEAK   DEFAULT    8 _ZNKSt3__16vectorIPN9twiliosdk21ConversationEventInfoENS_9allocatorIS3_EEE8max_sizeEv
  2830: 003c71b5   196 FUNC    WEAK   DEFAULT    8 _ZNSt3__114__split_bufferIPN9twiliosdk21ConversationEventInfoERNS_9allocatorIS3_EEEC1EjjS6_
  2831: 003c734d   302 FUNC    WEAK   DEFAULT    8 _ZNSt3__16vectorIPN9twiliosdk21ConversationEventInfoENS_9allocatorIS3_EEE26__swap_out_circular_bufferERNS_14__split_bufferIS3_RS5_EE
  2832: 003c7279   210 FUNC    WEAK   DEFAULT    8 _ZNSt3__114__split_bufferIPN9twiliosdk21ConversationEventInfoERNS_9allocatorIS3_EEED1Ev
  2833: 003c6ed5   196 FUNC    WEAK   DEFAULT    8 _ZNSt3__114__split_bufferIPN9twiliosdk9TrackInfoERNS_9allocatorIS3_EEEC2EjjS6_
  2834: 003c6f99   210 FUNC    WEAK   DEFAULT    8 _ZNSt3__114__split_bufferIPN9twiliosdk9TrackInfoERNS_9allocatorIS3_EEED2Ev
  2835: 003c74f1   176 FUNC    WEAK   DEFAULT    8 _ZNSt3__16vectorIPN9twiliosdk9TrackInfoENS_9allocatorIS3_EEE17__annotate_deleteEv
  2836: 003c75a1   162 FUNC    WEAK   DEFAULT    8 _ZNSt3__16vectorIPN9twiliosdk9TrackInfoENS_9allocatorIS3_EEE14__annotate_newEj
  2837: 003c71b5   196 FUNC    WEAK   DEFAULT    8 _ZNSt3__114__split_bufferIPN9twiliosdk21ConversationEventInfoERNS_9allocatorIS3_EEEC2EjjS6_
  2838: 003c7279   210 FUNC    WEAK   DEFAULT    8 _ZNSt3__114__split_bufferIPN9twiliosdk21ConversationEventInfoERNS_9allocatorIS3_EEED2Ev
  2839: 003c76b9   176 FUNC    WEAK   DEFAULT    8 _ZNSt3__16vectorIPN9twiliosdk21ConversationEventInfoENS_9allocatorIS3_EEE17__annotate_deleteEv
  2840: 003c7769   162 FUNC    WEAK   DEFAULT    8 _ZNSt3__16vectorIPN9twiliosdk21ConversationEventInfoENS_9allocatorIS3_EEE14__annotate_newEj
  2841: 003cf2c5    48 FUNC    WEAK   DEFAULT    8 _ZN10TwilioPoco13AtomicCounterppEv
  2842: 003cf2f5    28 FUNC    WEAK   DEFAULT    8 _ZN10TwilioPoco16ReferenceCounterC2Ev
  2843: 0079de7c     8 FUNC    GLOBAL DEFAULT    8 _ZN10TwilioPoco13AtomicCounterC1Ei
  2844: 003cf2f5    28 FUNC    WEAK   DEFAULT    8 _ZN10TwilioPoco16ReferenceCounterC1Ev
  2845: 003cf311    22 FUNC    WEAK   DEFAULT    8 _ZN10TwilioPoco16ReferenceCounter9duplicateEv
  2846: 003cf329    28 FUNC    WEAK   DEFAULT    8 _ZN10TwilioPoco16ReferenceCounter7releaseEv
  2847: 003cf345    82 FUNC    WEAK   DEFAULT    8 _ZN10TwilioPoco3AnyD2Ev
  2848: 003cf399    96 FUNC    WEAK   DEFAULT    8 _ZNK10TwilioPoco3Any5emptyEv
  2849: 003d209d    36 FUNC    WEAK   DEFAULT    8 _ZNK10TwilioPoco11PlaceholderINS_3Any11ValueHolderELj32EE7isLocalEv
  2850: 003cf46d    30 FUNC    WEAK   DEFAULT    8 _ZN10TwilioPoco3Any8destructEv
  2851: 003cf451    28 FUNC    WEAK   DEFAULT    8 _ZNK10TwilioPoco3Any7contentEv
  2852: 003cf345    82 FUNC    WEAK   DEFAULT    8 _ZN10TwilioPoco3AnyD1Ev
  2853: 003cf3f9    56 FUNC    WEAK   DEFAULT    8 _ZN10TwilioPoco3Any11ValueHolderD2Ev
  2854: 00a7d5e8    24 OBJECT  WEAK   DEFAULT   14 _ZTVN10TwilioPoco3Any11ValueHolderE
  2855: 003cf3f9    56 FUNC    WEAK   DEFAULT    8 _ZN10TwilioPoco3Any11ValueHolderD1Ev
  2856: 003cf431    32 FUNC    WEAK   DEFAULT    8 _ZN10TwilioPoco3Any11ValueHolderD0Ev
  2857: 003d20dd    36 FUNC    WEAK   DEFAULT    8 _ZNK10TwilioPoco11PlaceholderINS_3Any11ValueHolderELj32EE7contentEv
  2858: 003cf48d    34 FUNC    WEAK   DEFAULT    8 _ZNK10TwilioPoco8DateTime9timestampEv
  2859: 00789f1c    68 FUNC    GLOBAL DEFAULT    8 _ZN10TwilioPoco9Timestamp11fromUtcTimeEx
  2860: 003cf4b1    56 FUNC    WEAK   DEFAULT    8 _ZN10TwilioPoco5Ascii10propertiesEi
  2861: 003cf4e9    36 FUNC    WEAK   DEFAULT    8 _ZN10TwilioPoco5Ascii7isAsciiEi
  2862: 00a328fc   512 OBJECT  GLOBAL DEFAULT   11 _ZN10TwilioPoco5Ascii20CHARACTER_PROPERTIESE
  2863: 003cf50d    42 FUNC    WEAK   DEFAULT    8 _ZN10TwilioPoco5Ascii13hasPropertiesEii
  2864: 003cf539    26 FUNC    WEAK   DEFAULT    8 _ZN10TwilioPoco5Ascii7isUpperEi
  2865: 003cf555    36 FUNC    WEAK   DEFAULT    8 _ZN10TwilioPoco5Ascii7toLowerEi
  2866: 003cf579   120 FUNC    WEAK   DEFAULT    8 _ZNK10TwilioPoco7Dynamic9VarHolder7convertERNS_8DateTimeE
  2867: 00760864    40 FUNC    GLOBAL DEFAULT    8 _ZN10TwilioPoco16BadCastExceptionC1ERKNSt3__112basic_stringIcNS1_11char_traitsIcEENS1_9allocatorIcEEEEi
  2868: 00a8b254    12 OBJECT  GLOBAL DEFAULT   14 _ZTIN10TwilioPoco16BadCastExceptionE
  2869: 0075f4b0    40 FUNC    GLOBAL DEFAULT    8 _ZN10TwilioPoco16BadCastExceptionD1Ev
  2870: 003cf5f1   120 FUNC    WEAK   DEFAULT    8 _ZNK10TwilioPoco7Dynamic9VarHolder7convertERNS_13LocalDateTimeE
  2871: 003cf669   120 FUNC    WEAK   DEFAULT    8 _ZNK10TwilioPoco7Dynamic9VarHolder7convertERNS_9TimestampE
  2872: 003cf6e1   120 FUNC    WEAK   DEFAULT    8 _ZNK10TwilioPoco7Dynamic9VarHolder7convertERNSt3__112basic_stringItNS_15UTF16CharTraitsENS2_9allocatorItEEEE
  2873: 003cf759    22 FUNC    WEAK   DEFAULT    8 _ZNK10TwilioPoco7Dynamic9VarHolder7isArrayEv
  2874: 003cf771    22 FUNC    WEAK   DEFAULT    8 _ZNK10TwilioPoco7Dynamic9VarHolder8isVectorEv
  2875: 003cf789    22 FUNC    WEAK   DEFAULT    8 _ZNK10TwilioPoco7Dynamic9VarHolder6isListEv
  2876: 003cf7a1    22 FUNC    WEAK   DEFAULT    8 _ZNK10TwilioPoco7Dynamic9VarHolder7isDequeEv
  2877: 003cf7b9    22 FUNC    WEAK   DEFAULT    8 _ZNK10TwilioPoco7Dynamic9VarHolder8isStructEv
  2878: 003cf7d1    22 FUNC    WEAK   DEFAULT    8 _ZNK10TwilioPoco7Dynamic9VarHolder9isIntegerEv
  2879: 003cf7e9    22 FUNC    WEAK   DEFAULT    8 _ZNK10TwilioPoco7Dynamic9VarHolder8isSignedEv
  2880: 003cf801    22 FUNC    WEAK   DEFAULT    8 _ZNK10TwilioPoco7Dynamic9VarHolder9isNumericEv
  2881: 003cf819    22 FUNC    WEAK   DEFAULT    8 _ZNK10TwilioPoco7Dynamic9VarHolder9isBooleanEv
  2882: 003cf831    22 FUNC    WEAK   DEFAULT    8 _ZNK10TwilioPoco7Dynamic9VarHolder4sizeEv
  2883: 003cf849    60 FUNC    WEAK   DEFAULT    8 _ZN10TwilioPoco7Dynamic13VarHolderImplIbEC2Eb
  2884: 00796b04    24 FUNC    GLOBAL DEFAULT    8 _ZN10TwilioPoco7Dynamic9VarHolderC2Ev
  2885: 00a7d560   136 OBJECT  WEAK   DEFAULT   14 _ZTVN10TwilioPoco7Dynamic13VarHolderImplIbEE
  2886: 003cf849    60 FUNC    WEAK   DEFAULT    8 _ZN10TwilioPoco7Dynamic13VarHolderImplIbEC1Eb
  2887: 003cf885    64 FUNC    WEAK   DEFAULT    8 _ZN10TwilioPoco7Dynamic13VarHolderImplIbED2Ev
  2888: 00796b1c     4 FUNC    GLOBAL DEFAULT    8 _ZN10TwilioPoco7Dynamic9VarHolderD2Ev
  2889: 003cf885    64 FUNC    WEAK   DEFAULT    8 _ZN10TwilioPoco7Dynamic13VarHolderImplIbED1Ev
  2890: 003cf8c5    32 FUNC    WEAK   DEFAULT    8 _ZN10TwilioPoco7Dynamic13VarHolderImplIbED0Ev
  2891: 003cf8e5    36 FUNC    WEAK   DEFAULT    8 _ZNK10TwilioPoco7Dynamic13VarHolderImplIbE4typeEv
  2892: 00a8fd04     8 OBJECT  GLOBAL DEFAULT   14 _ZTIb
  2893: 003cf909    38 FUNC    WEAK   DEFAULT    8 _ZNK10TwilioPoco7Dynamic13VarHolderImplIbE7convertERa
  2894: 003cf931    38 FUNC    WEAK   DEFAULT    8 _ZNK10TwilioPoco7Dynamic13VarHolderImplIbE7convertERs
  2895: 003cf959    38 FUNC    WEAK   DEFAULT    8 _ZNK10TwilioPoco7Dynamic13VarHolderImplIbE7convertERi
  2896: 003cf981    52 FUNC    WEAK   DEFAULT    8 _ZNK10TwilioPoco7Dynamic13VarHolderImplIbE7convertERx
  2897: 003cf9b5    38 FUNC    WEAK   DEFAULT    8 _ZNK10TwilioPoco7Dynamic13VarHolderImplIbE7convertERh
  2898: 003cf9dd    38 FUNC    WEAK   DEFAULT    8 _ZNK10TwilioPoco7Dynamic13VarHolderImplIbE7convertERt
  2899: 003cfa05    38 FUNC    WEAK   DEFAULT    8 _ZNK10TwilioPoco7Dynamic13VarHolderImplIbE7convertERj
  2900: 003cfa2d    52 FUNC    WEAK   DEFAULT    8 _ZNK10TwilioPoco7Dynamic13VarHolderImplIbE7convertERy
  2901: 003cfa61    28 FUNC    WEAK   DEFAULT    8 _ZNK10TwilioPoco7Dynamic13VarHolderImplIbE7convertERb
  2902: 003cfa7d    42 FUNC    WEAK   DEFAULT    8 _ZNK10TwilioPoco7Dynamic13VarHolderImplIbE7convertERf
  2903: 003cfaa9    56 FUNC    WEAK   DEFAULT    8 _ZNK10TwilioPoco7Dynamic13VarHolderImplIbE7convertERd
  2904: 003cfae1    38 FUNC    WEAK   DEFAULT    8 _ZNK10TwilioPoco7Dynamic13VarHolderImplIbE7convertERc
  2905: 003cfb09    60 FUNC    WEAK   DEFAULT    8 _ZNK10TwilioPoco7Dynamic13VarHolderImplIbE7convertERNSt3__112basic_stringIcNS3_11char_traitsIcEENS3_9allocatorIcEEEE
  2906: 003cfb45    38 FUNC    WEAK   DEFAULT    8 _ZNK10TwilioPoco7Dynamic13VarHolderImplIbE5cloneEPNS_11PlaceholderINS0_9VarHolderELj32EEE
  2907: 003d2715   100 FUNC    WEAK   DEFAULT    8 _ZNK10TwilioPoco7Dynamic9VarHolder11cloneHolderIbEEPS1_PNS_11PlaceholderIS1_Lj32EEERKT_
  2908: 003cfb6d    24 FUNC    WEAK   DEFAULT    8 _ZNK10TwilioPoco7Dynamic13VarHolderImplIbE5valueEv
  2909: 003cfb85    22 FUNC    WEAK   DEFAULT    8 _ZNK10TwilioPoco7Dynamic13VarHolderImplIbE7isArrayEv
  2910: 003cfb9d    22 FUNC    WEAK   DEFAULT    8 _ZNK10TwilioPoco7Dynamic13VarHolderImplIbE8isStructEv
  2911: 003cfbb5    22 FUNC    WEAK   DEFAULT    8 _ZNK10TwilioPoco7Dynamic13VarHolderImplIbE9isIntegerEv
  2912: 003cfbcd    22 FUNC    WEAK   DEFAULT    8 _ZNK10TwilioPoco7Dynamic13VarHolderImplIbE8isSignedEv
  2913: 003cfbe5    22 FUNC    WEAK   DEFAULT    8 _ZNK10TwilioPoco7Dynamic13VarHolderImplIbE9isNumericEv
  2914: 003cfbfd    22 FUNC    WEAK   DEFAULT    8 _ZNK10TwilioPoco7Dynamic13VarHolderImplIbE9isBooleanEv
  2915: 003cfc15    22 FUNC    WEAK   DEFAULT    8 _ZNK10TwilioPoco7Dynamic13VarHolderImplIbE8isStringEv
  2916: 003cfc2d    76 FUNC    WEAK   DEFAULT    8 _ZN10TwilioPoco7Dynamic13VarHolderImplINSt3__112basic_stringIcNS2_11char_traitsIcEENS2_9allocatorIcEEEEEC2ERKS8_
  2917: 00a7d4d8   136 OBJECT  WEAK   DEFAULT   14 _ZTVN10TwilioPoco7Dynamic13VarHolderImplINSt3__112basic_stringIcNS2_11char_traitsIcEENS2_9allocatorIcEEEEEE
  2918: 003cfc2d    76 FUNC    WEAK   DEFAULT    8 _ZN10TwilioPoco7Dynamic13VarHolderImplINSt3__112basic_stringIcNS2_11char_traitsIcEENS2_9allocatorIcEEEEEC1ERKS8_
  2919: 003cfc79    72 FUNC    WEAK   DEFAULT    8 _ZN10TwilioPoco7Dynamic13VarHolderImplINSt3__112basic_stringIcNS2_11char_traitsIcEENS2_9allocatorIcEEEEED2Ev
  2920: 003cfc79    72 FUNC    WEAK   DEFAULT    8 _ZN10TwilioPoco7Dynamic13VarHolderImplINSt3__112basic_stringIcNS2_11char_traitsIcEENS2_9allocatorIcEEEEED1Ev
  2921: 003cfcc1    32 FUNC    WEAK   DEFAULT    8 _ZN10TwilioPoco7Dynamic13VarHolderImplINSt3__112basic_stringIcNS2_11char_traitsIcEENS2_9allocatorIcEEEEED0Ev
  2922: 003cfce1    36 FUNC    WEAK   DEFAULT    8 _ZNK10TwilioPoco7Dynamic13VarHolderImplINSt3__112basic_stringIcNS2_11char_traitsIcEENS2_9allocatorIcEEEEE4typeEv
  2923: 00a7d63c    24 OBJECT  WEAK   DEFAULT   14 _ZTINSt3__112basic_stringIcNS_11char_traitsIcEENS_9allocatorIcEEEE
  2924: 003cfd05    48 FUNC    WEAK   DEFAULT    8 _ZNK10TwilioPoco7Dynamic13VarHolderImplINSt3__112basic_stringIcNS2_11char_traitsIcEENS2_9allocatorIcEEEEE7convertERa
  2925: 00772ccc   236 FUNC    GLOBAL DEFAULT    8 _ZN10TwilioPoco12NumberParser5parseERKNSt3__112basic_stringIcNS1_11char_traitsIcEENS1_9allocatorIcEEEEc
  2926: 003d2675    44 FUNC    WEAK   DEFAULT    8 _ZNK10TwilioPoco7Dynamic9VarHolder16convertToSmallerIiaEEvRKT_RT0_
  2927: 003cfd35    48 FUNC    WEAK   DEFAULT    8 _ZNK10TwilioPoco7Dynamic13VarHolderImplINSt3__112basic_stringIcNS2_11char_traitsIcEENS2_9allocatorIcEEEEE7convertERs
  2928: 003d26a1    44 FUNC    WEAK   DEFAULT    8 _ZNK10TwilioPoco7Dynamic9VarHolder16convertToSmallerIisEEvRKT_RT0_
  2929: 003cfd65    34 FUNC    WEAK   DEFAULT    8 _ZNK10TwilioPoco7Dynamic13VarHolderImplINSt3__112basic_stringIcNS2_11char_traitsIcEENS2_9allocatorIcEEEEE7convertERi
  2930: 003cfd89    38 FUNC    WEAK   DEFAULT    8 _ZNK10TwilioPoco7Dynamic13VarHolderImplINSt3__112basic_stringIcNS2_11char_traitsIcEENS2_9allocatorIcEEEEE7convertERx
  2931: 00773074   240 FUNC    GLOBAL DEFAULT    8 _ZN10TwilioPoco12NumberParser7parse64ERKNSt3__112basic_stringIcNS1_11char_traitsIcEENS1_9allocatorIcEEEEc
  2932: 003cfdb1    48 FUNC    WEAK   DEFAULT    8 _ZNK10TwilioPoco7Dynamic13VarHolderImplINSt3__112basic_stringIcNS2_11char_traitsIcEENS2_9allocatorIcEEEEE7convertERh
  2933: 00772db8   236 FUNC    GLOBAL DEFAULT    8 _ZN10TwilioPoco12NumberParser13parseUnsignedERKNSt3__112basic_stringIcNS1_11char_traitsIcEENS1_9allocatorIcEEEEc
  2934: 003d26cd    36 FUNC    WEAK   DEFAULT    8 _ZNK10TwilioPoco7Dynamic9VarHolder24convertToSmallerUnsignedIjhEEvRKT_RT0_
  2935: 003cfde1    48 FUNC    WEAK   DEFAULT    8 _ZNK10TwilioPoco7Dynamic13VarHolderImplINSt3__112basic_stringIcNS2_11char_traitsIcEENS2_9allocatorIcEEEEE7convertERt
  2936: 003d26f1    36 FUNC    WEAK   DEFAULT    8 _ZNK10TwilioPoco7Dynamic9VarHolder24convertToSmallerUnsignedIjtEEvRKT_RT0_
  2937: 003cfe11    34 FUNC    WEAK   DEFAULT    8 _ZNK10TwilioPoco7Dynamic13VarHolderImplINSt3__112basic_stringIcNS2_11char_traitsIcEENS2_9allocatorIcEEEEE7convertERj
  2938: 003cfe35    38 FUNC    WEAK   DEFAULT    8 _ZNK10TwilioPoco7Dynamic13VarHolderImplINSt3__112basic_stringIcNS2_11char_traitsIcEENS2_9allocatorIcEEEEE7convertERy
  2939: 00773164   236 FUNC    GLOBAL DEFAULT    8 _ZN10TwilioPoco12NumberParser15parseUnsigned64ERKNSt3__112basic_stringIcNS1_11char_traitsIcEENS1_9allocatorIcEEEEc
  2940: 00a9b6f8     4 OBJECT  WEAK   DEFAULT   19 _ZGVZNK10TwilioPoco7Dynamic13VarHolderImplINSt3__112basic_stringIcNS2_11char_traitsIcEENS2_9allocatorIcEEEEE7convertERbE9VAL_FALSE
  2941: 00a9b6fc     4 OBJECT  WEAK   DEFAULT   19 _ZGVZNK10TwilioPoco7Dynamic13VarHolderImplINSt3__112basic_stringIcNS2_11char_traitsIcEENS2_9allocatorIcEEEEE7convertERbE13VAL_INT_FALSE
  2942: 003cfe5d  1192 FUNC    WEAK   DEFAULT    8 _ZNK10TwilioPoco7Dynamic13VarHolderImplINSt3__112basic_stringIcNS2_11char_traitsIcEENS2_9allocatorIcEEEEE7convertERb
  2943: 003d2101  1396 FUNC    WEAK   DEFAULT    8 _ZN10TwilioPoco8icompareINSt3__112basic_stringIcNS1_11char_traitsIcEENS1_9allocatorIcEEEEEEiRKT_SA_
  2944: 00a9b700    12 OBJECT  WEAK   DEFAULT   19 _ZZNK10TwilioPoco7Dynamic13VarHolderImplINSt3__112basic_stringIcNS2_11char_traitsIcEENS2_9allocatorIcEEEEE7convertERbE9VAL_FALSE
  2945: 00a9b70c    12 OBJECT  WEAK   DEFAULT   19 _ZZNK10TwilioPoco7Dynamic13VarHolderImplINSt3__112basic_stringIcNS2_11char_traitsIcEENS2_9allocatorIcEEEEE7convertERbE13VAL_INT_FALSE
  2946: 003d0305    54 FUNC    WEAK   DEFAULT    8 _ZNK10TwilioPoco7Dynamic13VarHolderImplINSt3__112basic_stringIcNS2_11char_traitsIcEENS2_9allocatorIcEEEEE7convertERf
  2947: 007734d4   244 FUNC    GLOBAL DEFAULT    8 _ZN10TwilioPoco12NumberParser10parseFloatERKNSt3__112basic_stringIcNS1_11char_traitsIcEENS1_9allocatorIcEEEEcc
  2948: 003d2779    50 FUNC    WEAK   DEFAULT    8 _ZNK10TwilioPoco7Dynamic9VarHolder16convertToSmallerIdfEEvRKT_RT0_
  2949: 003d033d    40 FUNC    WEAK   DEFAULT    8 _ZNK10TwilioPoco7Dynamic13VarHolderImplINSt3__112basic_stringIcNS2_11char_traitsIcEENS2_9allocatorIcEEEEE7convertERd
  2950: 003d0365   230 FUNC    WEAK   DEFAULT    8 _ZNK10TwilioPoco7Dynamic13VarHolderImplINSt3__112basic_stringIcNS2_11char_traitsIcEENS2_9allocatorIcEEEEE7convertERc
  2951: 003d044d    28 FUNC    WEAK   DEFAULT    8 _ZNK10TwilioPoco7Dynamic13VarHolderImplINSt3__112basic_stringIcNS2_11char_traitsIcEENS2_9allocatorIcEEEEE7convertERS8_
  2952: 003d0469    28 FUNC    WEAK   DEFAULT    8 _ZNK10TwilioPoco7Dynamic13VarHolderImplINSt3__112basic_stringIcNS2_11char_traitsIcEENS2_9allocatorIcEEEEE7convertERNS3_ItNS_15UTF16CharTraitsENS6_ItEEEE
  2953: 0078fc08   308 FUNC    GLOBAL DEFAULT    8 _ZN10TwilioPoco16UnicodeConverter7convertERKNSt3__112basic_stringIcNS1_11char_traitsIcEENS1_9allocatorIcEEEERNS2_ItNS_15UTF16CharTraitsENS5_ItEEEE
  2954: 003d0485   172 FUNC    WEAK   DEFAULT    8 _ZNK10TwilioPoco7Dynamic13VarHolderImplINSt3__112basic_stringIcNS2_11char_traitsIcEENS2_9allocatorIcEEEEE7convertERNS_8DateTimeE
  2955: 0075d1a4    44 FUNC    GLOBAL DEFAULT    8 _ZN10TwilioPoco14DateTimeParser8tryParseERKNSt3__112basic_stringIcNS1_11char_traitsIcEENS1_9allocatorIcEEEES9_RNS_8DateTimeERi
  2956: 00aa65d8    12 OBJECT  GLOBAL DEFAULT   19 _ZN10TwilioPoco14DateTimeFormat14ISO8601_FORMATE
  2957: 003d0531   260 FUNC    WEAK   DEFAULT    8 _ZNK10TwilioPoco7Dynamic13VarHolderImplINSt3__112basic_stringIcNS2_11char_traitsIcEENS2_9allocatorIcEEEEE7convertERNS_13LocalDateTimeE
  2958: 00759998   148 FUNC    GLOBAL DEFAULT    8 _ZN10TwilioPoco8DateTimeC1Ev
  2959: 00759e84   156 FUNC    GLOBAL DEFAULT    8 _ZN10TwilioPoco13LocalDateTimeC1EiRKNS_8DateTimeEb
  2960: 00759fdc    40 FUNC    GLOBAL DEFAULT    8 _ZN10TwilioPoco13LocalDateTimeaSERKS0_
  2961: 00759fc8    20 FUNC    GLOBAL DEFAULT    8 _ZN10TwilioPoco13LocalDateTimeD1Ev
  2962: 003d0635   256 FUNC    WEAK   DEFAULT    8 _ZNK10TwilioPoco7Dynamic13VarHolderImplINSt3__112basic_stringIcNS2_11char_traitsIcEENS2_9allocatorIcEEEEE7convertERNS_9TimestampE
  2963: 00789ecc    12 FUNC    GLOBAL DEFAULT    8 _ZN10TwilioPoco9TimestampaSERKS0_
  2964: 003d0735    38 FUNC    WEAK   DEFAULT    8 _ZNK10TwilioPoco7Dynamic13VarHolderImplINSt3__112basic_stringIcNS2_11char_traitsIcEENS2_9allocatorIcEEEEE5cloneEPNS_11PlaceholderINS0_9VarHolderELj32EEE
  2965: 003d27ad    96 FUNC    WEAK   DEFAULT    8 _ZNK10TwilioPoco7Dynamic9VarHolder11cloneHolderINSt3__112basic_stringIcNS3_11char_traitsIcEENS3_9allocatorIcEEEEEEPS1_PNS_11PlaceholderIS1_Lj32EEERKT_
  2966: 003d075d    24 FUNC    WEAK   DEFAULT    8 _ZNK10TwilioPoco7Dynamic13VarHolderImplINSt3__112basic_stringIcNS2_11char_traitsIcEENS2_9allocatorIcEEEEE5valueEv
  2967: 003d0775    22 FUNC    WEAK   DEFAULT    8 _ZNK10TwilioPoco7Dynamic13VarHolderImplINSt3__112basic_stringIcNS2_11char_traitsIcEENS2_9allocatorIcEEEEE8isStringEv
  2968: 003d078d   102 FUNC    WEAK   DEFAULT    8 _ZNK10TwilioPoco7Dynamic13VarHolderImplINSt3__112basic_stringIcNS2_11char_traitsIcEENS2_9allocatorIcEEEEE4sizeEv
  2969: 003d07f5    28 FUNC    WEAK   DEFAULT    8 _ZNK10TwilioPoco7Dynamic3Var7contentEv
  2970: 003d29fd    36 FUNC    WEAK   DEFAULT    8 _ZNK10TwilioPoco11PlaceholderINS_7Dynamic9VarHolderELj32EE7contentEv
  2971: 003d0811    52 FUNC    WEAK   DEFAULT    8 _ZNK10TwilioPoco7Dynamic3Var9isBooleanEv
  2972: 003d0845    52 FUNC    WEAK   DEFAULT    8 _ZNK10TwilioPoco7Dynamic3Var8isStringEv
  2973: 003d0879    54 FUNC    WEAK   DEFAULT    8 _ZNK10TwilioPoco4JSON5Array4sizeEv
  2974: 003d08b1   196 FUNC    WEAK   DEFAULT    8 _ZN10TwilioPoco4JSON5Array3addERKNS_7Dynamic3VarE
  2975: 003d3ca5   226 FUNC    WEAK   DEFAULT    8 _ZNSt3__16vectorIN10TwilioPoco7Dynamic3VarENS_9allocatorIS3_EEE19__annotate_increaseEj
  2976: 0079031c    88 FUNC    GLOBAL DEFAULT    8 _ZN10TwilioPoco7Dynamic3VarC1ERKS1_
  2977: 003d3d89   492 FUNC    WEAK   DEFAULT    8 _ZNSt3__16vectorIN10TwilioPoco7Dynamic3VarENS_9allocatorIS3_EEE21__push_back_slow_pathIRKS3_EEvOT_
  2978: 003d0975    76 FUNC    WEAK   DEFAULT    8 _ZN10TwilioPoco7Dynamic13VarHolderImplINS_4JSON5ArrayEEC2ERKS3_
  2979: 00742164   108 FUNC    GLOBAL DEFAULT    8 _ZN10TwilioPoco4JSON5ArrayC1ERKS1_
  2980: 00a7d450   136 OBJECT  WEAK   DEFAULT   14 _ZTVN10TwilioPoco7Dynamic13VarHolderImplINS_4JSON5ArrayEEE
  2981: 003d0975    76 FUNC    WEAK   DEFAULT    8 _ZN10TwilioPoco7Dynamic13VarHolderImplINS_4JSON5ArrayEEC1ERKS3_
  2982: 003d09c1    72 FUNC    WEAK   DEFAULT    8 _ZN10TwilioPoco7Dynamic13VarHolderImplINS_4JSON5ArrayEED2Ev
  2983: 00741fb0    60 FUNC    GLOBAL DEFAULT    8 _ZN10TwilioPoco4JSON5ArrayD1Ev
  2984: 003d09c1    72 FUNC    WEAK   DEFAULT    8 _ZN10TwilioPoco7Dynamic13VarHolderImplINS_4JSON5ArrayEED1Ev
  2985: 003d0a09    32 FUNC    WEAK   DEFAULT    8 _ZN10TwilioPoco7Dynamic13VarHolderImplINS_4JSON5ArrayEED0Ev
  2986: 003d0a29    36 FUNC    WEAK   DEFAULT    8 _ZNK10TwilioPoco7Dynamic13VarHolderImplINS_4JSON5ArrayEE4typeEv
  2987: 00a8a468     8 OBJECT  GLOBAL DEFAULT   14 _ZTIN10TwilioPoco4JSON5ArrayE
  2988: 003d0a4d    72 FUNC    WEAK   DEFAULT    8 _ZNK10TwilioPoco7Dynamic13VarHolderImplINS_4JSON5ArrayEE7convertERa
  2989: 00760118    40 FUNC    GLOBAL DEFAULT    8 _ZN10TwilioPoco16BadCastExceptionC1Ei
  2990: 003d0a95    72 FUNC    WEAK   DEFAULT    8 _ZNK10TwilioPoco7Dynamic13VarHolderImplINS_4JSON5ArrayEE7convertERs
  2991: 003d0add    72 FUNC    WEAK   DEFAULT    8 _ZNK10TwilioPoco7Dynamic13VarHolderImplINS_4JSON5ArrayEE7convertERi
  2992: 003d0b25    72 FUNC    WEAK   DEFAULT    8 _ZNK10TwilioPoco7Dynamic13VarHolderImplINS_4JSON5ArrayEE7convertERx
  2993: 003d0b6d    72 FUNC    WEAK   DEFAULT    8 _ZNK10TwilioPoco7Dynamic13VarHolderImplINS_4JSON5ArrayEE7convertERh
  2994: 003d0bb5    72 FUNC    WEAK   DEFAULT    8 _ZNK10TwilioPoco7Dynamic13VarHolderImplINS_4JSON5ArrayEE7convertERt
  2995: 003d0bfd    72 FUNC    WEAK   DEFAULT    8 _ZNK10TwilioPoco7Dynamic13VarHolderImplINS_4JSON5ArrayEE7convertERj
  2996: 003d0c45    72 FUNC    WEAK   DEFAULT    8 _ZNK10TwilioPoco7Dynamic13VarHolderImplINS_4JSON5ArrayEE7convertERy
  2997: 003d0c8d    42 FUNC    WEAK   DEFAULT    8 _ZNK10TwilioPoco7Dynamic13VarHolderImplINS_4JSON5ArrayEE7convertERb
  2998: 003d0cb9    72 FUNC    WEAK   DEFAULT    8 _ZNK10TwilioPoco7Dynamic13VarHolderImplINS_4JSON5ArrayEE7convertERf
  2999: 003d0d01    72 FUNC    WEAK   DEFAULT    8 _ZNK10TwilioPoco7Dynamic13VarHolderImplINS_4JSON5ArrayEE7convertERd
  3000: 003d0d49    72 FUNC    WEAK   DEFAULT    8 _ZNK10TwilioPoco7Dynamic13VarHolderImplINS_4JSON5ArrayEE7convertERc
  3001: 003d0d91  1084 FUNC    WEAK   DEFAULT    8 _ZNK10TwilioPoco7Dynamic13VarHolderImplINS_4JSON5ArrayEE7convertERNSt3__112basic_stringIcNS5_11char_traitsIcEENS5_9allocatorIcEEEE
  3002: 00744048   484 FUNC    GLOBAL DEFAULT    8 _ZNK10TwilioPoco4JSON5Array9stringifyERNSt3__113basic_ostreamIcNS2_11char_traitsIcEEEEji
  3003: 003d11cd   120 FUNC    WEAK   DEFAULT    8 _ZNK10TwilioPoco7Dynamic13VarHolderImplINS_4JSON5ArrayEE7convertERNS_8DateTimeE
  3004: 003d1245   120 FUNC    WEAK   DEFAULT    8 _ZNK10TwilioPoco7Dynamic13VarHolderImplINS_4JSON5ArrayEE7convertERNS_13LocalDateTimeE
  3005: 003d12bd   120 FUNC    WEAK   DEFAULT    8 _ZNK10TwilioPoco7Dynamic13VarHolderImplINS_4JSON5ArrayEE7convertERNS_9TimestampE
  3006: 003d1335    38 FUNC    WEAK   DEFAULT    8 _ZNK10TwilioPoco7Dynamic13VarHolderImplINS_4JSON5ArrayEE5cloneEPNS_11PlaceholderINS0_9VarHolderELj32EEE
  3007: 003d2cd9    96 FUNC    WEAK   DEFAULT    8 _ZNK10TwilioPoco7Dynamic9VarHolder11cloneHolderINS_4JSON5ArrayEEEPS1_PNS_11PlaceholderIS1_Lj32EEERKT_
  3008: 003d135d    22 FUNC    WEAK   DEFAULT    8 _ZNK10TwilioPoco7Dynamic13VarHolderImplINS_4JSON5ArrayEE7isArrayEv
  3009: 003d1375    22 FUNC    WEAK   DEFAULT    8 _ZNK10TwilioPoco7Dynamic13VarHolderImplINS_4JSON5ArrayEE9isIntegerEv
  3010: 003d138d    22 FUNC    WEAK   DEFAULT    8 _ZNK10TwilioPoco7Dynamic13VarHolderImplINS_4JSON5ArrayEE8isSignedEv
  3011: 003d13a5    22 FUNC    WEAK   DEFAULT    8 _ZNK10TwilioPoco7Dynamic13VarHolderImplINS_4JSON5ArrayEE9isNumericEv
  3012: 003d13bd    22 FUNC    WEAK   DEFAULT    8 _ZNK10TwilioPoco7Dynamic13VarHolderImplINS_4JSON5ArrayEE8isStringEv
  3013: 003d13d5   148 FUNC    WEAK   DEFAULT    8 _ZNK10TwilioPoco4JSON6Object3hasERKNSt3__112basic_stringIcNS2_11char_traitsIcEENS2_9allocatorIcEEEE
  3014: 003d4061  1372 FUNC    WEAK   DEFAULT    8 _ZNKSt3__16__treeINS_12__value_typeINS_12basic_stringIcNS_11char_traitsIcEENS_9allocatorIcEEEEN10TwilioPoco7Dynamic3VarEEENS_19__map_value_compareIS7_SB_NS_4lessIS7_EELb1EEENS5_ISB_EEE4findIS7_EENS_21__tree_const_iteratorISB_PNS_11__tree_nodeISB_PvEEiEERKT_
  3015: 003d1469    46 FUNC    WEAK   DEFAULT    8 _ZNK10TwilioPoco4JSON6Object4sizeEv
  3016: 003d1499    24 FUNC    WEAK   DEFAULT    8 _ZNK10TwilioPoco7Dynamic13VarHolderImplINS_9SharedPtrINS_4JSON6ObjectENS_16ReferenceCounterENS_13ReleasePolicyIS4_EEEEE5valueEv
  3017: 003d14b1    76 FUNC    WEAK   DEFAULT    8 _ZN10TwilioPoco7Dynamic13VarHolderImplINS_4JSON6ObjectEEC2ERKS3_
  3018: 00747838   708 FUNC    GLOBAL DEFAULT    8 _ZN10TwilioPoco4JSON6ObjectC1ERKS1_
  3019: 00a7d3c8   136 OBJECT  WEAK   DEFAULT   14 _ZTVN10TwilioPoco7Dynamic13VarHolderImplINS_4JSON6ObjectEEE
  3020: 003d14b1    76 FUNC    WEAK   DEFAULT    8 _ZN10TwilioPoco7Dynamic13VarHolderImplINS_4JSON6ObjectEEC1ERKS3_
  3021: 003d14fd    72 FUNC    WEAK   DEFAULT    8 _ZN10TwilioPoco7Dynamic13VarHolderImplINS_4JSON6ObjectEED2Ev
  3022: 00745818    84 FUNC    GLOBAL DEFAULT    8 _ZN10TwilioPoco4JSON6ObjectD1Ev
  3023: 003d14fd    72 FUNC    WEAK   DEFAULT    8 _ZN10TwilioPoco7Dynamic13VarHolderImplINS_4JSON6ObjectEED1Ev
  3024: 003d1545    32 FUNC    WEAK   DEFAULT    8 _ZN10TwilioPoco7Dynamic13VarHolderImplINS_4JSON6ObjectEED0Ev
  3025: 003d1565    36 FUNC    WEAK   DEFAULT    8 _ZNK10TwilioPoco7Dynamic13VarHolderImplINS_4JSON6ObjectEE4typeEv
  3026: 00a8a480     8 OBJECT  GLOBAL DEFAULT   14 _ZTIN10TwilioPoco4JSON6ObjectE
  3027: 003d1589    72 FUNC    WEAK   DEFAULT    8 _ZNK10TwilioPoco7Dynamic13VarHolderImplINS_4JSON6ObjectEE7convertERa
  3028: 003d15d1    72 FUNC    WEAK   DEFAULT    8 _ZNK10TwilioPoco7Dynamic13VarHolderImplINS_4JSON6ObjectEE7convertERs
  3029: 003d1619    72 FUNC    WEAK   DEFAULT    8 _ZNK10TwilioPoco7Dynamic13VarHolderImplINS_4JSON6ObjectEE7convertERi
  3030: 003d1661    72 FUNC    WEAK   DEFAULT    8 _ZNK10TwilioPoco7Dynamic13VarHolderImplINS_4JSON6ObjectEE7convertERx
  3031: 003d16a9    72 FUNC    WEAK   DEFAULT    8 _ZNK10TwilioPoco7Dynamic13VarHolderImplINS_4JSON6ObjectEE7convertERh
  3032: 003d16f1    72 FUNC    WEAK   DEFAULT    8 _ZNK10TwilioPoco7Dynamic13VarHolderImplINS_4JSON6ObjectEE7convertERt
  3033: 003d1739    72 FUNC    WEAK   DEFAULT    8 _ZNK10TwilioPoco7Dynamic13VarHolderImplINS_4JSON6ObjectEE7convertERj
  3034: 003d1781    72 FUNC    WEAK   DEFAULT    8 _ZNK10TwilioPoco7Dynamic13VarHolderImplINS_4JSON6ObjectEE7convertERy
  3035: 003d17c9    42 FUNC    WEAK   DEFAULT    8 _ZNK10TwilioPoco7Dynamic13VarHolderImplINS_4JSON6ObjectEE7convertERb
  3036: 003d17f5    72 FUNC    WEAK   DEFAULT    8 _ZNK10TwilioPoco7Dynamic13VarHolderImplINS_4JSON6ObjectEE7convertERf
  3037: 003d183d    72 FUNC    WEAK   DEFAULT    8 _ZNK10TwilioPoco7Dynamic13VarHolderImplINS_4JSON6ObjectEE7convertERd
  3038: 003d1885    72 FUNC    WEAK   DEFAULT    8 _ZNK10TwilioPoco7Dynamic13VarHolderImplINS_4JSON6ObjectEE7convertERc
  3039: 003d18cd  1084 FUNC    WEAK   DEFAULT    8 _ZNK10TwilioPoco7Dynamic13VarHolderImplINS_4JSON6ObjectEE7convertERNSt3__112basic_stringIcNS5_11char_traitsIcEENS5_9allocatorIcEEEE
  3040: 007471a0    80 FUNC    GLOBAL DEFAULT    8 _ZNK10TwilioPoco4JSON6Object9stringifyERNSt3__113basic_ostreamIcNS2_11char_traitsIcEEEEji
  3041: 003d1d09   120 FUNC    WEAK   DEFAULT    8 _ZNK10TwilioPoco7Dynamic13VarHolderImplINS_4JSON6ObjectEE7convertERNS_8DateTimeE
  3042: 0076029c    40 FUNC    GLOBAL DEFAULT    8 _ZN10TwilioPoco23NotImplementedExceptionC1ERKNSt3__112basic_stringIcNS1_11char_traitsIcEENS1_9allocatorIcEEEEi
  3043: 00a8b08c    12 OBJECT  GLOBAL DEFAULT   14 _ZTIN10TwilioPoco23NotImplementedExceptionE
  3044: 0075eee8    40 FUNC    GLOBAL DEFAULT    8 _ZN10TwilioPoco23NotImplementedExceptionD1Ev
  3045: 003d1d81   120 FUNC    WEAK   DEFAULT    8 _ZNK10TwilioPoco7Dynamic13VarHolderImplINS_4JSON6ObjectEE7convertERNS_13LocalDateTimeE
  3046: 003d1df9   120 FUNC    WEAK   DEFAULT    8 _ZNK10TwilioPoco7Dynamic13VarHolderImplINS_4JSON6ObjectEE7convertERNS_9TimestampE
  3047: 003d1e71    38 FUNC    WEAK   DEFAULT    8 _ZNK10TwilioPoco7Dynamic13VarHolderImplINS_4JSON6ObjectEE5cloneEPNS_11PlaceholderINS0_9VarHolderELj32EEE
  3048: 003d2da5   100 FUNC    WEAK   DEFAULT    8 _ZNK10TwilioPoco7Dynamic9VarHolder11cloneHolderINS_4JSON6ObjectEEEPS1_PNS_11PlaceholderIS1_Lj32EEERKT_
  3049: 003d1e99    22 FUNC    WEAK   DEFAULT    8 _ZNK10TwilioPoco7Dynamic13VarHolderImplINS_4JSON6ObjectEE7isArrayEv
  3050: 003d1eb1    22 FUNC    WEAK   DEFAULT    8 _ZNK10TwilioPoco7Dynamic13VarHolderImplINS_4JSON6ObjectEE9isIntegerEv
  3051: 003d1ec9    22 FUNC    WEAK   DEFAULT    8 _ZNK10TwilioPoco7Dynamic13VarHolderImplINS_4JSON6ObjectEE8isSignedEv
  3052: 003d1ee1    22 FUNC    WEAK   DEFAULT    8 _ZNK10TwilioPoco7Dynamic13VarHolderImplINS_4JSON6ObjectEE9isNumericEv
  3053: 003d1ef9    22 FUNC    WEAK   DEFAULT    8 _ZNK10TwilioPoco7Dynamic13VarHolderImplINS_4JSON6ObjectEE8isStringEv
  3054: 003d1f11    28 FUNC    WEAK   DEFAULT    8 _ZN9twiliosdk9TrackInfoD2Ev
  3055: 003d1f11    28 FUNC    WEAK   DEFAULT    8 _ZN9twiliosdk9TrackInfoD1Ev
  3056: 003d1f2d    22 FUNC    WEAK   DEFAULT    8 _ZNK9twiliosdk9TrackInfo5getIdEv
  3057: 003d1f45    24 FUNC    WEAK   DEFAULT    8 _ZNK9twiliosdk9TrackInfo7getKindEv
  3058: 003d1f5d    24 FUNC    WEAK   DEFAULT    8 _ZNK9twiliosdk21ConversationEventInfo9getTracksEv
  3059: 003d1f75    24 FUNC    WEAK   DEFAULT    8 _ZNK9twiliosdk21ConversationEventInfo17getParticipantSidEv
  3060: 003d1f8d    24 FUNC    WEAK   DEFAULT    8 _ZNK9twiliosdk21ConversationEventInfo12getEventTypeEv
  3061: 003d1fa5    30 FUNC    WEAK   DEFAULT    8 _ZN9twiliosdk17TSCMediaTrackInfo10setEnabledEb
  3062: 003d1fc5    24 FUNC    WEAK   DEFAULT    8 _ZNK5resip4Data4sizeEv
  3063: 003d1fdd    24 FUNC    WEAK   DEFAULT    8 _ZNK5resip4Data4dataEv
  3064: 003d1ff5    28 FUNC    WEAK   DEFAULT    8 _ZNK5resip10LazyParser11checkParsedEv
  3065: 004a9cbd    50 FUNC    GLOBAL DEFAULT    8 _ZNK5resip10LazyParser7doParseEv
  3066: 003d2011    30 FUNC    WEAK   DEFAULT    8 _ZN5resip10LazyParser11checkParsedEv
  3067: 003d2031    28 FUNC    WEAK   DEFAULT    8 _ZN5resip3Uri4userEv
  3068: 003c7871  3048 FUNC    GLOBAL DEFAULT    8 _ZN9twiliosdk9TrackInfo5parseEN10TwilioPoco9SharedPtrINS1_4JSON6ObjectENS1_16ReferenceCounterENS1_13ReleasePolicyIS4_EEEE
  3069: 003d2e2d    26 FUNC    WEAK   DEFAULT    8 _ZN10TwilioPoco9SharedPtrINS_4JSON6ObjectENS_16ReferenceCounterENS_13ReleasePolicyIS2_EEEptEv
  3070: 0074532c    72 FUNC    GLOBAL DEFAULT    8 _ZNK10TwilioPoco4JSON6Object3getERKNSt3__112basic_stringIcNS2_11char_traitsIcEENS2_9allocatorIcEEEE
  3071: 003d2a89   276 FUNC    WEAK   DEFAULT    8 _ZNK10TwilioPoco7Dynamic3Var7convertINSt3__112basic_stringIcNS3_11char_traitsIcEENS3_9allocatorIcEEEEEET_v
  3072: 00790374    72 FUNC    GLOBAL DEFAULT    8 _ZN10TwilioPoco7Dynamic3VarD1Ev
  3073: 003d2bc1   220 FUNC    WEAK   DEFAULT    8 _ZNK10TwilioPoco7Dynamic3Var7convertIbEET_v
  3074: 003c8459   320 FUNC    GLOBAL DEFAULT    8 _ZN9twiliosdk9TrackInfo9addObjectERN10TwilioPoco4JSON5ArrayE
  3075: 00745780   152 FUNC    GLOBAL DEFAULT    8 _ZN10TwilioPoco4JSON6ObjectC1Eb
  3076: 003cc1c1   168 FUNC    GLOBAL DEFAULT    8 _ZN9twiliosdk17ConversationEvent9addStringERN10TwilioPoco4JSON6ObjectERKNSt3__112basic_stringIcNS5_11char_traitsIcEENS5_9allocatorIcEEEESD_
  3077: 003d2e09    36 FUNC    WEAK   DEFAULT    8 _ZN10TwilioPoco7Dynamic3VarC1IbEERKT_
  3078: 007473b8   908 FUNC    GLOBAL DEFAULT    8 _ZN10TwilioPoco4JSON6Object3setERKNSt3__112basic_stringIcNS2_11char_traitsIcEENS2_9allocatorIcEEEERKNS_7Dynamic3VarE
  3079: 003d2e49    36 FUNC    WEAK   DEFAULT    8 _ZN10TwilioPoco7Dynamic3VarC1INS_4JSON6ObjectEEERKT_
  3080: 003d204d    28 FUNC    WEAK   DEFAULT    8 _ZNSt3__16vectorIPN9twiliosdk9TrackInfoENS_9allocatorIS3_EEED2Ev
  3081: 003d2e6d   186 FUNC    WEAK   DEFAULT    8 _ZNSt3__113__vector_baseIPN9twiliosdk9TrackInfoENS_9allocatorIS3_EEED2Ev
  3082: 003d204d    28 FUNC    WEAK   DEFAULT    8 _ZNSt3__16vectorIPN9twiliosdk9TrackInfoENS_9allocatorIS3_EEED1Ev
  3083: 003c8599   224 FUNC    GLOBAL DEFAULT    8 _ZN9twiliosdk21ConversationEventInfoC2Ev
  3084: 00a7d3b0    16 OBJECT  GLOBAL DEFAULT   14 _ZTVN9twiliosdk21ConversationEventInfoE
  3085: 003c8679   204 FUNC    GLOBAL DEFAULT    8 _ZN9twiliosdk21ConversationEventInfoD2Ev
  3086: 003c8679   204 FUNC    GLOBAL DEFAULT    8 _ZN9twiliosdk21ConversationEventInfoD1Ev
  3087: 003c8745    32 FUNC    GLOBAL DEFAULT    8 _ZN9twiliosdk21ConversationEventInfoD0Ev
  3088: 003c8765  8548 FUNC    GLOBAL DEFAULT    8 _ZN9twiliosdk21ConversationEventInfo5parseEN10TwilioPoco9SharedPtrINS1_4JSON6ObjectENS1_16ReferenceCounterENS1_13ReleasePolicyIS4_EEEE
  3089: 007903bc    84 FUNC    GLOBAL DEFAULT    8 _ZN10TwilioPoco7Dynamic3VaraSERKS1_
  3090: 00745374   256 FUNC    GLOBAL DEFAULT    8 _ZNK10TwilioPoco4JSON6Object8getArrayERKNSt3__112basic_stringIcNS2_11char_traitsIcEENS2_9allocatorIcEEEE
  3091: 003d2f29    24 FUNC    WEAK   DEFAULT    8 _ZN10TwilioPoco9SharedPtrINS_4JSON5ArrayENS_16ReferenceCounterENS_13ReleasePolicyIS2_EEEcvPS2_Ev
  3092: 003d2f41    26 FUNC    WEAK   DEFAULT    8 _ZN10TwilioPoco9SharedPtrINS_4JSON5ArrayENS_16ReferenceCounterENS_13ReleasePolicyIS2_EEEptEv
  3093: 007423a8   352 FUNC    GLOBAL DEFAULT    8 _ZNK10TwilioPoco4JSON5Array9getObjectEj
  3094: 003d2f5d    24 FUNC    WEAK   DEFAULT    8 _ZN10TwilioPoco9SharedPtrINS_4JSON6ObjectENS_16ReferenceCounterENS_13ReleasePolicyIS2_EEEcvPS2_Ev
  3095: 003d2d39    46 FUNC    WEAK   DEFAULT    8 _ZN10TwilioPoco9SharedPtrINS_4JSON6ObjectENS_16ReferenceCounterENS_13ReleasePolicyIS2_EEEC1ERKS6_
  3096: 003d2d69    60 FUNC    WEAK   DEFAULT    8 _ZN10TwilioPoco9SharedPtrINS_4JSON6ObjectENS_16ReferenceCounterENS_13ReleasePolicyIS2_EEED1Ev
  3097: 003d2c9d    60 FUNC    WEAK   DEFAULT    8 _ZN10TwilioPoco9SharedPtrINS_4JSON5ArrayENS_16ReferenceCounterENS_13ReleasePolicyIS2_EEED1Ev
  3098: 003ca8c9   624 FUNC    GLOBAL DEFAULT    8 _ZN9twiliosdk21ConversationEventInfo9addObjectERN10TwilioPoco4JSON5ArrayE
  3099: 00741e1c   108 FUNC    GLOBAL DEFAULT    8 _ZN10TwilioPoco4JSON5ArrayC1Ev
  3100: 003d2f75    36 FUNC    WEAK   DEFAULT    8 _ZN10TwilioPoco7Dynamic3VarC1INS_4JSON5ArrayEEERKT_
  3101: 003cab39   570 FUNC    GLOBAL DEFAULT    8 _ZN9twiliosdk21ConversationEventInfo18getParticipantNameEv
  3102: 00495035   232 FUNC    GLOBAL DEFAULT    8 _ZN5resip8NameAddrC1ERKNS_4DataEb
  3103: 0048e8cd    22 FUNC    GLOBAL DEFAULT    8 _ZN5resip8NameAddr3uriEv
  3104: 00494fbd   100 FUNC    GLOBAL DEFAULT    8 _ZN5resip8NameAddrD1Ev
  3105: 003d2069    28 FUNC    WEAK   DEFAULT    8 _ZNSt3__16vectorIPN9twiliosdk21ConversationEventInfoENS_9allocatorIS3_EEED2Ev
  3106: 003d2f99   186 FUNC    WEAK   DEFAULT    8 _ZNSt3__113__vector_baseIPN9twiliosdk21ConversationEventInfoENS_9allocatorIS3_EEED2Ev
  3107: 003d2069    28 FUNC    WEAK   DEFAULT    8 _ZNSt3__16vectorIPN9twiliosdk21ConversationEventInfoENS_9allocatorIS3_EEED1Ev
  3108: 003cad75    88 FUNC    GLOBAL DEFAULT    8 _ZN9twiliosdk17ConversationEventC2Ev
  3109: 003cadcd   110 FUNC    GLOBAL DEFAULT    8 _ZN9twiliosdk17ConversationEventD2Ev
  3110: 003cae3d  4126 FUNC    GLOBAL DEFAULT    8 _ZN9twiliosdk17ConversationEvent5parseERKNSt3__112basic_stringIcNS1_11char_traitsIcEENS1_9allocatorIcEEEE
  3111: 00752138   136 FUNC    GLOBAL DEFAULT    8 _ZN10TwilioPoco4JSON12ParseHandlerC1Eb
  3112: 003d3055    84 FUNC    WEAK   DEFAULT    8 _ZN10TwilioPoco9SharedPtrINS_4JSON7HandlerENS_16ReferenceCounterENS_13ReleasePolicyIS2_EEEC1EPS2_
  3113: 0074e868   560 FUNC    GLOBAL DEFAULT    8 _ZN10TwilioPoco4JSON6ParserC1ERKNS_9SharedPtrINS0_7HandlerENS_16ReferenceCounterENS_13ReleasePolicyIS3_EEEEj
  3114: 003d30a9    60 FUNC    WEAK   DEFAULT    8 _ZN10TwilioPoco9SharedPtrINS_4JSON7HandlerENS_16ReferenceCounterENS_13ReleasePolicyIS2_EEED1Ev
  3115: 0074d368   496 FUNC    GLOBAL DEFAULT    8 _ZN10TwilioPoco4JSON6Parser5parseERKNSt3__112basic_stringIcNS2_11char_traitsIcEENS2_9allocatorIcEEEE
  3116: 003d30e5   496 FUNC    WEAK   DEFAULT    8 _ZNK10TwilioPoco7Dynamic3Var7extractINS_9SharedPtrINS_4JSON6ObjectENS_16ReferenceCounterENS_13ReleasePolicyIS5_EEEEEERKT_v
  3117: 00749168   100 FUNC    GLOBAL DEFAULT    8 _ZN10TwilioPoco4JSON6ParserD1Ev
  3118: 003cbe5d   868 FUNC    GLOBAL DEFAULT    8 _ZNK9twiliosdk17ConversationEvent13getJSONStringEv
  3119: 003d2b9d    36 FUNC    WEAK   DEFAULT    8 _ZN10TwilioPoco7Dynamic3VarC1INSt3__112basic_stringIcNS3_11char_traitsIcEENS3_9allocatorIcEEEEEERKT_
  3120: 003cc269    92 FUNC    GLOBAL DEFAULT    8 _ZN9twiliosdk17ConversationEvent17setParticipantSidERKNSt3__112basic_stringIcNS1_11char_traitsIcEENS1_9allocatorIcEEEE
  3121: 003cc499   852 FUNC    GLOBAL DEFAULT    8 _ZN9twiliosdk17ConversationEvent30notifySessionObserverForTracksEPNS_10TSCSessionEPNS_18TSCSessionObserverEPNS_21ConversationEventInfoE
  3122: 003d32d5    44 FUNC    WEAK   DEFAULT    8 _ZN3rtc4BindIN9twiliosdk18TSCSessionObserverEvPNS_16RefCountedObjectINS1_17TSCVideoTrackInfoEEEEENS_14MethodFunctor1IT_MS8_FT0_T1_ES9_SA_EESC_PS8_NS_6detail8identityISA_E4typeE
  3123: 003d3301    94 FUNC    WEAK   DEFAULT    8 _ZN9twiliosdk6TSCSDK8doNotifyIN3rtc14MethodFunctor1INS_18TSCSessionObserverEMS4_FvPNS2_16RefCountedObjectINS_17TSCVideoTrackInfoEEEEvS8_EEEEvRKT_
  3124: 003d2085    24 FUNC    WEAK   DEFAULT    8 _ZN10TwilioPoco11PlaceholderINS_3Any11ValueHolderELj32EEC2Ev
  3125: 003d20c1    26 FUNC    WEAK   DEFAULT    8 _ZN10TwilioPoco11PlaceholderINS_3Any11ValueHolderELj32EE5eraseEv
  3126: 003d2085    24 FUNC    WEAK   DEFAULT    8 _ZN10TwilioPoco11PlaceholderINS_3Any11ValueHolderELj32EEC1Ev
  3127: 003d3361   284 FUNC    WEAK   DEFAULT    8 _ZNK10TwilioPoco7Dynamic9VarHolder15checkUpperLimitIiaEEvRKT_
  3128: 003d347d   156 FUNC    WEAK   DEFAULT    8 _ZNK10TwilioPoco7Dynamic9VarHolder15checkLowerLimitIiaEEvRKT_
  3129: 003d3519   288 FUNC    WEAK   DEFAULT    8 _ZNK10TwilioPoco7Dynamic9VarHolder15checkUpperLimitIisEEvRKT_
  3130: 003d3639   160 FUNC    WEAK   DEFAULT    8 _ZNK10TwilioPoco7Dynamic9VarHolder15checkLowerLimitIisEEvRKT_
  3131: 003d36d9   264 FUNC    WEAK   DEFAULT    8 _ZNK10TwilioPoco7Dynamic9VarHolder15checkUpperLimitIjhEEvRKT_
  3132: 003d37e1   268 FUNC    WEAK   DEFAULT    8 _ZNK10TwilioPoco7Dynamic9VarHolder15checkUpperLimitIjtEEvRKT_
  3133: 00756430   516 FUNC    GLOBAL DEFAULT    8 _ZN10TwilioPoco8Bugcheck11nullPointerEPKcS2_i
  3134: 003d2a21    40 FUNC    WEAK   DEFAULT    8 _ZNK10TwilioPoco11PlaceholderINS_7Dynamic9VarHolderELj32EE8setLocalEb
  3135: 003d38ed   164 FUNC    WEAK   DEFAULT    8 _ZNK10TwilioPoco7Dynamic9VarHolder20checkUpperLimitFloatIdfEEvRKT_
  3136: 003d3991   168 FUNC    WEAK   DEFAULT    8 _ZNK10TwilioPoco7Dynamic9VarHolder20checkLowerLimitFloatIdfEEvRKT_
  3137: 003d280d   496 FUNC    WEAK   DEFAULT    8 _ZNK10TwilioPoco7Dynamic3Var7extractINSt3__112basic_stringIcNS3_11char_traitsIcEENS3_9allocatorIcEEEEEERKT_v
  3138: 00760314    40 FUNC    GLOBAL DEFAULT    8 _ZN10TwilioPoco22InvalidAccessExceptionC1ERKNSt3__112basic_stringIcNS1_11char_traitsIcEENS1_9allocatorIcEEEEi
  3139: 003d3a39    36 FUNC    WEAK   DEFAULT    8 _ZN10TwilioPoco3AnyC1IPKcEERKT_
  3140: 0079aa44    60 FUNC    GLOBAL DEFAULT    8 _ZN10TwilioPoco6formatERKNSt3__112basic_stringIcNS0_11char_traitsIcEENS0_9allocatorIcEEEERKNS_3AnyESB_
  3141: 009cc0dc    63 OBJECT  WEAK   DEFAULT   11 _ZTSNSt3__112basic_stringIcNS_11char_traitsIcEENS_9allocatorIcEEEE
  3142: 00a8b0b0    12 OBJECT  GLOBAL DEFAULT   14 _ZTIN10TwilioPoco22InvalidAccessExceptionE
  3143: 0075ef60    40 FUNC    GLOBAL DEFAULT    8 _ZN10TwilioPoco22InvalidAccessExceptionD1Ev
  3144: 003d2a65    36 FUNC    WEAK   DEFAULT    8 _ZNK10TwilioPoco11PlaceholderINS_7Dynamic9VarHolderELj32EE7isLocalEv
  3145: 003d2a49    26 FUNC    WEAK   DEFAULT    8 _ZN10TwilioPoco11PlaceholderINS_7Dynamic9VarHolderELj32EE5eraseEv
  3146: 003d2b9d    36 FUNC    WEAK   DEFAULT    8 _ZN10TwilioPoco7Dynamic3VarC2INSt3__112basic_stringIcNS3_11char_traitsIcEENS3_9allocatorIcEEEEEERKT_
  3147: 003d3a5d    24 FUNC    WEAK   DEFAULT    8 _ZN10TwilioPoco11PlaceholderINS_7Dynamic9VarHolderELj32EEC1Ev
  3148: 003d3a75    58 FUNC    WEAK   DEFAULT    8 _ZN10TwilioPoco7Dynamic3Var9constructINSt3__112basic_stringIcNS3_11char_traitsIcEENS3_9allocatorIcEEEEEEvRKT_
  3149: 003d3ab1   500 FUNC    WEAK   DEFAULT    8 _ZNK10TwilioPoco7Dynamic3Var7extractIbEERKT_v
  3150: 003d2c9d    60 FUNC    WEAK   DEFAULT    8 _ZN10TwilioPoco9SharedPtrINS_4JSON5ArrayENS_16ReferenceCounterENS_13ReleasePolicyIS2_EEED2Ev
  3151: 003d3f91   116 FUNC    WEAK   DEFAULT    8 _ZN10TwilioPoco9SharedPtrINS_4JSON5ArrayENS_16ReferenceCounterENS_13ReleasePolicyIS2_EEE7releaseEv
  3152: 00755c4c     4 FUNC    GLOBAL DEFAULT    8 _ZN10TwilioPoco8Bugcheck10unexpectedEPKci
  3153: 003d2d39    46 FUNC    WEAK   DEFAULT    8 _ZN10TwilioPoco9SharedPtrINS_4JSON6ObjectENS_16ReferenceCounterENS_13ReleasePolicyIS2_EEEC2ERKS6_
  3154: 003d2d69    60 FUNC    WEAK   DEFAULT    8 _ZN10TwilioPoco9SharedPtrINS_4JSON6ObjectENS_16ReferenceCounterENS_13ReleasePolicyIS2_EEED2Ev
  3155: 003d45bd   116 FUNC    WEAK   DEFAULT    8 _ZN10TwilioPoco9SharedPtrINS_4JSON6ObjectENS_16ReferenceCounterENS_13ReleasePolicyIS2_EEE7releaseEv
  3156: 003d2e09    36 FUNC    WEAK   DEFAULT    8 _ZN10TwilioPoco7Dynamic3VarC2IbEERKT_
  3157: 003d468d    62 FUNC    WEAK   DEFAULT    8 _ZN10TwilioPoco7Dynamic3Var9constructIbEEvRKT_
  3158: 003d4631    92 FUNC    WEAK   DEFAULT    8 _ZNK10TwilioPoco9SharedPtrINS_4JSON6ObjectENS_16ReferenceCounterENS_13ReleasePolicyIS2_EEE5derefEv
  3159: 003d2e49    36 FUNC    WEAK   DEFAULT    8 _ZN10TwilioPoco7Dynamic3VarC2INS_4JSON6ObjectEEERKT_
  3160: 003d46cd    58 FUNC    WEAK   DEFAULT    8 _ZN10TwilioPoco7Dynamic3Var9constructINS_4JSON6ObjectEEEvRKT_
  3161: 003d2e6d   186 FUNC    WEAK   DEFAULT    8 _ZNSt3__113__vector_baseIPN9twiliosdk9TrackInfoENS_9allocatorIS3_EEED1Ev
  3162: 003d4005    92 FUNC    WEAK   DEFAULT    8 _ZNK10TwilioPoco9SharedPtrINS_4JSON5ArrayENS_16ReferenceCounterENS_13ReleasePolicyIS2_EEE5derefEv
  3163: 003d2f75    36 FUNC    WEAK   DEFAULT    8 _ZN10TwilioPoco7Dynamic3VarC2INS_4JSON5ArrayEEERKT_
  3164: 003d4709    58 FUNC    WEAK   DEFAULT    8 _ZN10TwilioPoco7Dynamic3Var9constructINS_4JSON5ArrayEEEvRKT_
  3165: 003d2f99   186 FUNC    WEAK   DEFAULT    8 _ZNSt3__113__vector_baseIPN9twiliosdk21ConversationEventInfoENS_9allocatorIS3_EEED1Ev
  3166: 003d3055    84 FUNC    WEAK   DEFAULT    8 _ZN10TwilioPoco9SharedPtrINS_4JSON7HandlerENS_16ReferenceCounterENS_13ReleasePolicyIS2_EEEC2EPS2_
  3167: 003d4745    32 FUNC    WEAK   DEFAULT    8 _ZN10TwilioPoco13ReleasePolicyINS_4JSON7HandlerEE7releaseEPS2_
  3168: 003d30a9    60 FUNC    WEAK   DEFAULT    8 _ZN10TwilioPoco9SharedPtrINS_4JSON7HandlerENS_16ReferenceCounterENS_13ReleasePolicyIS2_EEED2Ev
  3169: 003d4765   116 FUNC    WEAK   DEFAULT    8 _ZN10TwilioPoco9SharedPtrINS_4JSON7HandlerENS_16ReferenceCounterENS_13ReleasePolicyIS2_EEE7releaseEv
  3170: 009cc048    89 OBJECT  WEAK   DEFAULT   11 _ZTSN10TwilioPoco9SharedPtrINS_4JSON6ObjectENS_16ReferenceCounterENS_13ReleasePolicyIS2_EEEE
  3171: 003d47d9    58 FUNC    WEAK   DEFAULT    8 _ZN3rtc14MethodFunctor1IN9twiliosdk18TSCSessionObserverEMS2_FvPNS_16RefCountedObjectINS1_17TSCVideoTrackInfoEEEEvS6_EC1ES8_PS2_S6_
  3172: 003d4815   120 FUNC    WEAK   DEFAULT    8 _ZN3rtc12AsyncInvoker11AsyncInvokeIvNS_14MethodFunctor1IN9twiliosdk18TSCSessionObserverEMS4_FvPNS_16RefCountedObjectINS3_17TSCVideoTrackInfoEEEEvS8_EEEEvPNS_6ThreadERKT0_j
  3173: 007602c4    40 FUNC    GLOBAL DEFAULT    8 _ZN10TwilioPoco14RangeExceptionC1ERKNSt3__112basic_stringIcNS1_11char_traitsIcEENS1_9allocatorIcEEEEi
  3174: 00a8b098    12 OBJECT  GLOBAL DEFAULT   14 _ZTIN10TwilioPoco14RangeExceptionE
  3175: 0075ef10    40 FUNC    GLOBAL DEFAULT    8 _ZN10TwilioPoco14RangeExceptionD1Ev
  3176: 003d3a39    36 FUNC    WEAK   DEFAULT    8 _ZN10TwilioPoco3AnyC2IPKcEERKT_
  3177: 003d488d    58 FUNC    WEAK   DEFAULT    8 _ZN10TwilioPoco3Any9constructIPKcEEvRKT_
  3178: 003d3a5d    24 FUNC    WEAK   DEFAULT    8 _ZN10TwilioPoco11PlaceholderINS_7Dynamic9VarHolderELj32EEC2Ev
  3179: 003d48c9    24 FUNC    WEAK   DEFAULT    8 _ZNSt3__16vectorIN10TwilioPoco7Dynamic3VarENS_9allocatorIS3_EEE31__annotate_contiguous_containerEPKvS8_S8_S8_
  3180: 003d51a1   120 FUNC    WEAK   DEFAULT    8 _ZNKSt3__16vectorIN10TwilioPoco7Dynamic3VarENS_9allocatorIS3_EEE8max_sizeEv
  3181: 003d48e1   214 FUNC    WEAK   DEFAULT    8 _ZNSt3__114__split_bufferIN10TwilioPoco7Dynamic3VarERNS_9allocatorIS3_EEEC1EjjS6_
  3182: 003d4aa1   488 FUNC    WEAK   DEFAULT    8 _ZNSt3__16vectorIN10TwilioPoco7Dynamic3VarENS_9allocatorIS3_EEE26__swap_out_circular_bufferERNS_14__split_bufferIS3_RS5_EE
  3183: 003d49b9   230 FUNC    WEAK   DEFAULT    8 _ZNSt3__114__split_bufferIN10TwilioPoco7Dynamic3VarERNS_9allocatorIS3_EEED1Ev
  3184: 003d3f75    28 FUNC    WEAK   DEFAULT    8 _ZN10TwilioPoco16ReferenceCounterD2Ev
  3185: 0079de90     4 FUNC    GLOBAL DEFAULT    8 _ZN10TwilioPoco13AtomicCounterD1Ev
  3186: 003d3f75    28 FUNC    WEAK   DEFAULT    8 _ZN10TwilioPoco16ReferenceCounterD1Ev
  3187: 00756094   332 FUNC    GLOBAL DEFAULT    8 _ZN10TwilioPoco8Bugcheck9assertionEPKcS2_iS2_
  3188: 003d4c89    32 FUNC    WEAK   DEFAULT    8 _ZN10TwilioPoco13ReleasePolicyINS_4JSON5ArrayEE7releaseEPS2_
  3189: 003d4ca9   918 FUNC    WEAK   DEFAULT    8 _ZNKSt3__16__treeINS_12__value_typeINS_12basic_stringIcNS_11char_traitsIcEENS_9allocatorIcEEEEN10TwilioPoco7Dynamic3VarEEENS_19__map_value_compareIS7_SB_NS_4lessIS7_EELb1EEENS5_ISB_EEE13__lower_boundIS7_EENS_21__tree_const_iteratorISB_PNS_11__tree_nodeISB_PvEEiEERKT_SN_SN_
  3190: 003d5041    32 FUNC    WEAK   DEFAULT    8 _ZN10TwilioPoco13ReleasePolicyINS_4JSON6ObjectEE7releaseEPS2_
  3191: 003d47d9    58 FUNC    WEAK   DEFAULT    8 _ZN3rtc14MethodFunctor1IN9twiliosdk18TSCSessionObserverEMS2_FvPNS_16RefCountedObjectINS1_17TSCVideoTrackInfoEEEEvS6_EC2ES8_PS2_S6_
  3192: 003d50c1    76 FUNC    WEAK   DEFAULT    8 _ZN3rtc16RefCountedObjectINS_25FireAndForgetAsyncClosureINS_14MethodFunctor1IN9twiliosdk18TSCSessionObserverEMS4_FvPNS0_INS3_17TSCVideoTrackInfoEEEEvS7_EEEEEC1ISA_EET_
  3193: 003d513d    60 FUNC    WEAK   DEFAULT    8 _ZN10TwilioPoco3Any6HolderIPKcEC1ERKS3_
  3194: 003d5179    40 FUNC    WEAK   DEFAULT    8 _ZNK10TwilioPoco11PlaceholderINS_3Any11ValueHolderELj32EE8setLocalEb
  3195: 003d48e1   214 FUNC    WEAK   DEFAULT    8 _ZNSt3__114__split_bufferIN10TwilioPoco7Dynamic3VarERNS_9allocatorIS3_EEEC2EjjS6_
  3196: 003d49b9   230 FUNC    WEAK   DEFAULT    8 _ZNSt3__114__split_bufferIN10TwilioPoco7Dynamic3VarERNS_9allocatorIS3_EEED2Ev
  3197: 003d5219   238 FUNC    WEAK   DEFAULT    8 _ZNSt3__16vectorIN10TwilioPoco7Dynamic3VarENS_9allocatorIS3_EEE17__annotate_deleteEv
  3198: 003d5309   210 FUNC    WEAK   DEFAULT    8 _ZNSt3__16vectorIN10TwilioPoco7Dynamic3VarENS_9allocatorIS3_EEE14__annotate_newEj
  3199: 003d5061    64 FUNC    WEAK   DEFAULT    8 _ZN3rtc25FireAndForgetAsyncClosureINS_14MethodFunctor1IN9twiliosdk18TSCSessionObserverEMS3_FvPNS_16RefCountedObjectINS2_17TSCVideoTrackInfoEEEEvS7_EEED2Ev
  3200: 00a7d390    28 OBJECT  WEAK   DEFAULT   14 _ZTVN3rtc25FireAndForgetAsyncClosureINS_14MethodFunctor1IN9twiliosdk18TSCSessionObserverEMS3_FvPNS_16RefCountedObjectINS2_17TSCVideoTrackInfoEEEEvS7_EEEE
  3201: 003d5061    64 FUNC    WEAK   DEFAULT    8 _ZN3rtc25FireAndForgetAsyncClosureINS_14MethodFunctor1IN9twiliosdk18TSCSessionObserverEMS3_FvPNS_16RefCountedObjectINS2_17TSCVideoTrackInfoEEEEvS7_EEED1Ev
  3202: 003d50a1    32 FUNC    WEAK   DEFAULT    8 _ZN3rtc25FireAndForgetAsyncClosureINS_14MethodFunctor1IN9twiliosdk18TSCSessionObserverEMS3_FvPNS_16RefCountedObjectINS2_17TSCVideoTrackInfoEEEEvS7_EEED0Ev
  3203: 003d50c1    76 FUNC    WEAK   DEFAULT    8 _ZN3rtc16RefCountedObjectINS_25FireAndForgetAsyncClosureINS_14MethodFunctor1IN9twiliosdk18TSCSessionObserverEMS4_FvPNS0_INS3_17TSCVideoTrackInfoEEEEvS7_EEEEEC2ISA_EET_
  3204: 003d53dd    68 FUNC    WEAK   DEFAULT    8 _ZN3rtc25FireAndForgetAsyncClosureINS_14MethodFunctor1IN9twiliosdk18TSCSessionObserverEMS3_FvPNS_16RefCountedObjectINS2_17TSCVideoTrackInfoEEEEvS7_EEEC2ERKSA_
  3205: 00a7d370    32 OBJECT  WEAK   DEFAULT   14 _ZTVN3rtc16RefCountedObjectINS_25FireAndForgetAsyncClosureINS_14MethodFunctor1IN9twiliosdk18TSCSessionObserverEMS4_FvPNS0_INS3_17TSCVideoTrackInfoEEEEvS7_EEEEEE
  3206: 003d510d    48 FUNC    WEAK   DEFAULT    8 _ZN10TwilioPoco3Any11ValueHolderC2Ev
  3207: 003d510d    48 FUNC    WEAK   DEFAULT    8 _ZN10TwilioPoco3Any11ValueHolderC1Ev
  3208: 003d513d    60 FUNC    WEAK   DEFAULT    8 _ZN10TwilioPoco3Any6HolderIPKcEC2ERKS3_
  3209: 00a7d358    24 OBJECT  WEAK   DEFAULT   14 _ZTVN10TwilioPoco3Any6HolderIPKcEE
  3210: 003d53dd    68 FUNC    WEAK   DEFAULT    8 _ZN3rtc25FireAndForgetAsyncClosureINS_14MethodFunctor1IN9twiliosdk18TSCSessionObserverEMS3_FvPNS_16RefCountedObjectINS2_17TSCVideoTrackInfoEEEEvS7_EEEC1ERKSA_
  3211: 00a7d600    12 OBJECT  WEAK   DEFAULT   14 _ZTIN10TwilioPoco3Any6HolderIPKcEE
  3212: 003d5421    64 FUNC    WEAK   DEFAULT    8 _ZN10TwilioPoco3Any6HolderIPKcED1Ev
  3213: 003d5461    32 FUNC    WEAK   DEFAULT    8 _ZN10TwilioPoco3Any6HolderIPKcED0Ev
  3214: 003d5481    36 FUNC    WEAK   DEFAULT    8 _ZNK10TwilioPoco3Any6HolderIPKcE4typeEv
  3215: 003d54a5    50 FUNC    WEAK   DEFAULT    8 _ZNK10TwilioPoco3Any6HolderIPKcE5cloneEPNS_11PlaceholderINS0_11ValueHolderELj32EEE
  3216: 003d5421    64 FUNC    WEAK   DEFAULT    8 _ZN10TwilioPoco3Any6HolderIPKcED2Ev
  3217: 00a7d60c    12 OBJECT  WEAK   DEFAULT   14 _ZTIN3rtc16RefCountedObjectINS_25FireAndForgetAsyncClosureINS_14MethodFunctor1IN9twiliosdk18TSCSessionObserverEMS4_FvPNS0_INS3_17TSCVideoTrackInfoEEEEvS7_EEEEEE
  3218: 003d54d9    30 FUNC    WEAK   DEFAULT    8 _ZNK3rtc16RefCountedObjectINS_25FireAndForgetAsyncClosureINS_14MethodFunctor1IN9twiliosdk18TSCSessionObserverEMS4_FvPNS0_INS3_17TSCVideoTrackInfoEEEEvS7_EEEEE6AddRefEv
  3219: 003d54f9    56 FUNC    WEAK   DEFAULT    8 _ZNK3rtc16RefCountedObjectINS_25FireAndForgetAsyncClosureINS_14MethodFunctor1IN9twiliosdk18TSCSessionObserverEMS4_FvPNS0_INS3_17TSCVideoTrackInfoEEEEvS7_EEEEE7ReleaseEv
  3220: 003d5531    64 FUNC    WEAK   DEFAULT    8 _ZN3rtc16RefCountedObjectINS_25FireAndForgetAsyncClosureINS_14MethodFunctor1IN9twiliosdk18TSCSessionObserverEMS4_FvPNS0_INS3_17TSCVideoTrackInfoEEEEvS7_EEEEED1Ev
  3221: 003d5571    32 FUNC    WEAK   DEFAULT    8 _ZN3rtc16RefCountedObjectINS_25FireAndForgetAsyncClosureINS_14MethodFunctor1IN9twiliosdk18TSCSessionObserverEMS4_FvPNS0_INS3_17TSCVideoTrackInfoEEEEvS7_EEEEED0Ev
  3222: 003d5591    24 FUNC    WEAK   DEFAULT    8 _ZN3rtc25FireAndForgetAsyncClosureINS_14MethodFunctor1IN9twiliosdk18TSCSessionObserverEMS3_FvPNS_16RefCountedObjectINS2_17TSCVideoTrackInfoEEEEvS7_EEE7ExecuteEv
  3223: 003d55a9    38 FUNC    WEAK   DEFAULT    8 _ZNK3rtc16RefCountedObjectINS_25FireAndForgetAsyncClosureINS_14MethodFunctor1IN9twiliosdk18TSCSessionObserverEMS4_FvPNS0_INS3_17TSCVideoTrackInfoEEEEvS7_EEEEE9HasOneRefEv
  3224: 00a7d618    12 OBJECT  WEAK   DEFAULT   14 _ZTIN3rtc25FireAndForgetAsyncClosureINS_14MethodFunctor1IN9twiliosdk18TSCSessionObserverEMS3_FvPNS_16RefCountedObjectINS2_17TSCVideoTrackInfoEEEEvS7_EEEE
  3225: 00a7d3c0     8 OBJECT  GLOBAL DEFAULT   14 _ZTIN9twiliosdk21ConversationEventInfoE
  3226: 00a7d624    12 OBJECT  WEAK   DEFAULT   14 _ZTIN10TwilioPoco7Dynamic13VarHolderImplINS_4JSON6ObjectEEE
  3227: 00a7d630    12 OBJECT  WEAK   DEFAULT   14 _ZTIN10TwilioPoco7Dynamic13VarHolderImplINS_4JSON5ArrayEEE
  3228: 00a7d654    12 OBJECT  WEAK   DEFAULT   14 _ZTIN10TwilioPoco7Dynamic13VarHolderImplINSt3__112basic_stringIcNS2_11char_traitsIcEENS2_9allocatorIcEEEEEE
  3229: 00a7d660    12 OBJECT  WEAK   DEFAULT   14 _ZTIN10TwilioPoco7Dynamic13VarHolderImplIbEE
  3230: 00a7d66c     8 OBJECT  WEAK   DEFAULT   14 _ZTIN10TwilioPoco3Any11ValueHolderE
  3231: 009cbeb8    31 OBJECT  WEAK   DEFAULT   11 _ZTSN10TwilioPoco3Any6HolderIPKcEE
  3232: 009cbed8   157 OBJECT  WEAK   DEFAULT   11 _ZTSN3rtc16RefCountedObjectINS_25FireAndForgetAsyncClosureINS_14MethodFunctor1IN9twiliosdk18TSCSessionObserverEMS4_FvPNS0_INS3_17TSCVideoTrackInfoEEEEvS7_EEEEEE
  3233: 009cbf78   150 OBJECT  WEAK   DEFAULT   11 _ZTSN3rtc25FireAndForgetAsyncClosureINS_14MethodFunctor1IN9twiliosdk18TSCSessionObserverEMS3_FvPNS_16RefCountedObjectINS2_17TSCVideoTrackInfoEEEEvS7_EEEE
  3234: 009cbc04    36 OBJECT  GLOBAL DEFAULT   11 _ZTSN9twiliosdk21ConversationEventInfoE
  3235: 009cc010    56 OBJECT  WEAK   DEFAULT   11 _ZTSN10TwilioPoco7Dynamic13VarHolderImplINS_4JSON6ObjectEEE
  3236: 00a8bf80     8 OBJECT  GLOBAL DEFAULT   14 _ZTIN10TwilioPoco7Dynamic9VarHolderE
  3237: 009cc0a4    55 OBJECT  WEAK   DEFAULT   11 _ZTSN10TwilioPoco7Dynamic13VarHolderImplINS_4JSON5ArrayEEE
  3238: 00a7d674     8 OBJECT  WEAK   DEFAULT   14 _ZTINSt3__121__basic_string_commonILb1EEE
  3239: 009cc11c   104 OBJECT  WEAK   DEFAULT   11 _ZTSN10TwilioPoco7Dynamic13VarHolderImplINSt3__112basic_stringIcNS2_11char_traitsIcEENS2_9allocatorIcEEEEEE
  3240: 009cc184    41 OBJECT  WEAK   DEFAULT   11 _ZTSN10TwilioPoco7Dynamic13VarHolderImplIbEE
  3241: 009cc1b0    32 OBJECT  WEAK   DEFAULT   11 _ZTSN10TwilioPoco3Any11ValueHolderE
  3242: 00a8fd6c    16 OBJECT  GLOBAL DEFAULT   14 _ZTIPKc
  3243: 003d5531    64 FUNC    WEAK   DEFAULT    8 _ZN3rtc16RefCountedObjectINS_25FireAndForgetAsyncClosureINS_14MethodFunctor1IN9twiliosdk18TSCSessionObserverEMS4_FvPNS0_INS3_17TSCVideoTrackInfoEEEEvS7_EEEEED2Ev
  3244: 003d55d1    78 FUNC    WEAK   DEFAULT    8 _ZNK3rtc14MethodFunctor1IN9twiliosdk18TSCSessionObserverEMS2_FvPNS_16RefCountedObjectINS1_17TSCVideoTrackInfoEEEEvS6_EclEv
  3245: 009cc1d0    38 OBJECT  WEAK   DEFAULT   11 _ZTSNSt3__121__basic_string_commonILb1EEE
  3246: 00000000     0 FUNC    GLOBAL DEFAULT  UND bsd_signal
  3247: 003d573d   104 FUNC    GLOBAL DEFAULT    8 _ZN9twiliosdk13TSCStackTraceC2Ev
  3248: 00a7d680    16 OBJECT  GLOBAL DEFAULT   14 _ZTVN9twiliosdk13TSCStackTraceE
  3249: 003d57a5    56 FUNC    GLOBAL DEFAULT    8 _ZN9twiliosdk13TSCStackTraceD2Ev
  3250: 003d57a5    56 FUNC    GLOBAL DEFAULT    8 _ZN9twiliosdk13TSCStackTraceD1Ev
  3251: 003d57dd    32 FUNC    GLOBAL DEFAULT    8 _ZN9twiliosdk13TSCStackTraceD0Ev
  3252: 00a7d690     8 OBJECT  GLOBAL DEFAULT   14 _ZTIN9twiliosdk13TSCStackTraceE
  3253: 009cc280    28 OBJECT  GLOBAL DEFAULT   11 _ZTSN9twiliosdk13TSCStackTraceE
  3254: 003d80f5    48 FUNC    WEAK   DEFAULT    8 _ZN3rtc14MessageHandlerC2Ev
  3255: 003d80f5    48 FUNC    WEAK   DEFAULT    8 _ZN3rtc14MessageHandlerC1Ev
  3256: 003d8125    56 FUNC    WEAK   DEFAULT    8 _ZN3rtc8RunnableD2Ev
  3257: 00a7d6b8    20 OBJECT  WEAK   DEFAULT   14 _ZTVN3rtc8RunnableE
  3258: 003d8125    56 FUNC    WEAK   DEFAULT    8 _ZN3rtc8RunnableD1Ev
  3259: 003d815d    32 FUNC    WEAK   DEFAULT    8 _ZN3rtc8RunnableD0Ev
  3260: 003d817d    48 FUNC    WEAK   DEFAULT    8 _ZN3rtc8RunnableC2Ev
  3261: 003d817d    48 FUNC    WEAK   DEFAULT    8 _ZN3rtc8RunnableC1Ev
  3262: 003d81ad    76 FUNC    WEAK   DEFAULT    8 _ZN5resip5FdSetC2Ev
  3263: 003d81ad    76 FUNC    WEAK   DEFAULT    8 _ZN5resip5FdSetC1Ev
  3264: 003d81f9    62 FUNC    WEAK   DEFAULT    8 _ZN5resip5FdSet6selectER7timeval
  3265: 003d8239    96 FUNC    WEAK   DEFAULT    8 _ZN5resip5FdSet18selectMilliSecondsEm
  3266: 003d8299    32 FUNC    WEAK   DEFAULT    8 _ZN9twiliosdk11Resiprocate19getPendingRefreshesEv
  3267: 00a9b71c     4 OBJECT  GLOBAL DEFAULT   19 _ZN9twiliosdk11Resiprocate17pendingRefreshes_E
  3268: 003d82b9    44 FUNC    WEAK   DEFAULT    8 _ZN9twiliosdk12ResipAccount16stackInitializedEv
  3269: 00a9b76c     1 OBJECT  GLOBAL DEFAULT   19 _ZN9twiliosdk12ResipAccount18tlsTransportAdded_E
  3270: 00a9b76d     1 OBJECT  GLOBAL DEFAULT   19 _ZN9twiliosdk12ResipAccount18tcpTransportAdded_E
  3271: 003d82e5    94 FUNC    WEAK   DEFAULT    8 _ZN9twiliosdk12ResipAccount7getCallEi
  3272: 003d8345    64 FUNC    WEAK   DEFAULT    8 _ZNK9twiliosdk12ResipAccount24registerRefereshRequiredEi
  3273: 003d8385    50 FUNC    WEAK   DEFAULT    8 _ZN9twiliosdk12ResipAccount20forceRegisterRefreshEv
  3274: 003d83b9    40 FUNC    WEAK   DEFAULT    8 _ZN9twiliosdk12ResipAccount12updatePongTsEi
  3275: 003d83e1    48 FUNC    WEAK   DEFAULT    8 _ZN3rtc13SocketFactoryC2Ev
  3276: 003d83e1    48 FUNC    WEAK   DEFAULT    8 _ZN3rtc13SocketFactoryC1Ev
  3277: 003d8411    52 FUNC    WEAK   DEFAULT    8 _ZN3rtc12SocketServerC2Ev
  3278: 003d8411    52 FUNC    WEAK   DEFAULT    8 _ZN3rtc12SocketServerC1Ev
  3279: 003d8445    52 FUNC    WEAK   DEFAULT    8 _ZN9twiliosdk16FakeSocketServerC2Ev
  3280: 00a86348    44 OBJECT  GLOBAL DEFAULT   14 _ZTVN9twiliosdk16FakeSocketServerE
  3281: 003d8445    52 FUNC    WEAK   DEFAULT    8 _ZN9twiliosdk16FakeSocketServerC1Ev
  3282: 003d8479    52 FUNC    WEAK   DEFAULT    8 _ZN9twiliosdk12ResipMessageC2Ev
  3283: 00a86330    24 OBJECT  GLOBAL DEFAULT   14 _ZTVN9twiliosdk12ResipMessageE
  3284: 003d8479    52 FUNC    WEAK   DEFAULT    8 _ZN9twiliosdk12ResipMessageC1Ev
  3285: 003d84ad    60 FUNC    WEAK   DEFAULT    8 _ZN9twiliosdk12AddAcountMsgC2EPNS_12ResipAccountE
  3286: 00a86318    24 OBJECT  GLOBAL DEFAULT   14 _ZTVN9twiliosdk12AddAcountMsgE
  3287: 003d84ad    60 FUNC    WEAK   DEFAULT    8 _ZN9twiliosdk12AddAcountMsgC1EPNS_12ResipAccountE
  3288: 003d84e9    68 FUNC    WEAK   DEFAULT    8 _ZN9twiliosdk17RegisterAcountMsgC2Eib
  3289: 00a86300    24 OBJECT  GLOBAL DEFAULT   14 _ZTVN9twiliosdk17RegisterAcountMsgE
  3290: 003d84e9    68 FUNC    WEAK   DEFAULT    8 _ZN9twiliosdk17RegisterAcountMsgC1Eib
  3291: 003d852d    60 FUNC    WEAK   DEFAULT    8 _ZN9twiliosdk15DeleteAcountMsgC2Ei
  3292: 00a862e8    24 OBJECT  GLOBAL DEFAULT   14 _ZTVN9twiliosdk15DeleteAcountMsgE
  3293: 003d852d    60 FUNC    WEAK   DEFAULT    8 _ZN9twiliosdk15DeleteAcountMsgC1Ei
  3294: 003d8569   220 FUNC    WEAK   DEFAULT    8 _ZN9twiliosdk11CallMessageC2EiiNS0_11MessageTypeE
  3295: 005abdd5    64 FUNC    GLOBAL DEFAULT    8 _ZN9twiliosdk12ResipMessageD2Ev
  3296: 00a862d0    24 OBJECT  GLOBAL DEFAULT   14 _ZTVN9twiliosdk11CallMessageE
  3297: 003d8569   220 FUNC    WEAK   DEFAULT    8 _ZN9twiliosdk11CallMessageC1EiiNS0_11MessageTypeE
  3298: 003d8645    26 FUNC    WEAK   DEFAULT    8 _ZN9twiliosdk11CallMessage12setVoidParamEPv
  3299: 003d8661    42 FUNC    WEAK   DEFAULT    8 _ZN9twiliosdk11CallMessage14setStringParamEiRKNSt3__112basic_stringIcNS1_11char_traitsIcEENS1_9allocatorIcEEEE
  3300: 003d868d    46 FUNC    WEAK   DEFAULT    8 _ZNK9twiliosdk11CallMessage14getStringParamEi
  3301: 003d86bd    26 FUNC    WEAK   DEFAULT    8 _ZN9twiliosdk11CallMessage11setIntParamEi
  3302: 003d86d9    60 FUNC    WEAK   DEFAULT    8 _ZN9twiliosdk14SleepWakeupMsgC2Eb
  3303: 00a862b8    24 OBJECT  GLOBAL DEFAULT   14 _ZTVN9twiliosdk14SleepWakeupMsgE
  3304: 003d86d9    60 FUNC    WEAK   DEFAULT    8 _ZN9twiliosdk14SleepWakeupMsgC1Eb
  3305: 003d8715    52 FUNC    WEAK   DEFAULT    8 _ZN9twiliosdk22RefreshRegistrationMsgC2Ev
  3306: 00a862a0    24 OBJECT  GLOBAL DEFAULT   14 _ZTVN9twiliosdk22RefreshRegistrationMsgE
  3307: 003d8715    52 FUNC    WEAK   DEFAULT    8 _ZN9twiliosdk22RefreshRegistrationMsgC1Ev
  3308: 003d8749    26 FUNC    WEAK   DEFAULT    8 _ZNK9twiliosdk9ResipCall5getIdEv
  3309: 003d8765    28 FUNC    WEAK   DEFAULT    8 _ZN9twiliosdk9ResipCall11setUserDataEPv
  3310: 003d8781    34 FUNC    WEAK   DEFAULT    8 _ZNK9twiliosdk9ResipCall12getSIPCallIdEv
  3311: 003d87a5   202 FUNC    WEAK   DEFAULT    8 _ZN9twiliosdk9ResipCall15setParticipantsERKNSt3__112basic_stringIcNS1_11char_traitsIcEENS1_9allocatorIcEEEE
  3312: 00a9b718     4 OBJECT  GLOBAL DEFAULT   19 _ZN9twiliosdk11Resiprocate10timestamp_E
  3313: 00a9b720     1 OBJECT  GLOBAL DEFAULT   19 _ZN9twiliosdk11Resiprocate15isInBackground_E
  3314: 00a9b721     1 OBJECT  GLOBAL DEFAULT   19 _ZN9twiliosdk11Resiprocate14inShortWakeup_E
  3315: 003d8871    26 FUNC    WEAK   DEFAULT    8 _ZN17ResiprocateWorker8canSleepEv
  3316: 003d888d    24 FUNC    WEAK   DEFAULT    8 _ZN17ResiprocateWorker7onSleepEv
  3317: 003d88a5    46 FUNC    WEAK   DEFAULT    8 _ZN17ResiprocateWorker6onLoopEv
  3318: 00a9b724     4 OBJECT  GLOBAL DEFAULT   19 _ZN9twiliosdk11Resiprocate17resiprocateStack_E
  3319: 00a9b728     4 OBJECT  GLOBAL DEFAULT   19 _ZN9twiliosdk11Resiprocate24resiprocateWorkerThread_E
  3320: 00a9b72c     1 OBJECT  GLOBAL DEFAULT   19 _ZN9twiliosdk11Resiprocate9instance_E
  3321: 003d5871    22 FUNC    GLOBAL DEFAULT    8 _ZN9twiliosdk11ResiprocateC2Ev
  3322: 003d5871    22 FUNC    GLOBAL DEFAULT    8 _ZN9twiliosdk11ResiprocateC1Ev
  3323: 003d5889    24 FUNC    GLOBAL DEFAULT    8 _ZN9twiliosdk11ResiprocateD2Ev
  3324: 003d5889    24 FUNC    GLOBAL DEFAULT    8 _ZN9twiliosdk11ResiprocateD1Ev
  3325: 003d72ad   244 FUNC    GLOBAL DEFAULT    8 _ZN17ResiprocateWorker4stopEv
  3326: 003d6da9    72 FUNC    GLOBAL DEFAULT    8 _ZN17ResiprocateWorkerC1Ev
  3327: 003d5981  4664 FUNC    GLOBAL DEFAULT    8 _ZN9twiliosdk11Resiprocate10addAccountEbPNS_11TSCEndpointENSt3__112basic_stringIcNS3_11char_traitsIcEENS3_9allocatorIcEEEERKS9_SB_SB_SB_SB_SB_SB_SB_b
  3328: 003dc6cd  1824 FUNC    GLOBAL DEFAULT    8 _ZN9twiliosdk12ResipAccountC1EbPNS_11TSCEndpointENSt3__112basic_stringIcNS3_11char_traitsIcEENS3_9allocatorIcEEEERKS9_SB_SB_SB_SB_SB_b
  3329: 005abe71   112 FUNC    GLOBAL DEFAULT    8 _ZN9twiliosdk12ResipMessage11sendAndWaitEv
  3330: 005abf29    64 FUNC    GLOBAL DEFAULT    8 _ZN9twiliosdk12AddAcountMsgD1Ev
  3331: 003d6bb9    42 FUNC    GLOBAL DEFAULT    8 _ZN9twiliosdk11Resiprocate18registerSIPAccountEi
  3332: 005abee1    72 FUNC    GLOBAL DEFAULT    8 _ZN9twiliosdk12ResipMessage10sendAsynchEv
  3333: 003d6be5    42 FUNC    GLOBAL DEFAULT    8 _ZN9twiliosdk11Resiprocate20unregisterSIPAccountEi
  3334: 003d6c11    40 FUNC    GLOBAL DEFAULT    8 _ZN9twiliosdk11Resiprocate16deleteSIPAccountEi
  3335: 003d6c39   216 FUNC    GLOBAL DEFAULT    8 _ZN9twiliosdk11Resiprocate20setPendingRefereshesEv
  3336: 003d6d11   152 FUNC    GLOBAL DEFAULT    8 _ZN9twiliosdk11Resiprocate9reconnectEv
  3337: 004caedd    16 FUNC    GLOBAL DEFAULT    8 _ZN5resip8SipStack16closeConnectionsEv
  3338: 003df3ad    66 FUNC    GLOBAL DEFAULT    8 _ZN9twiliosdk12ResipAccount9reconnectEb
  3339: 003d6da9    72 FUNC    GLOBAL DEFAULT    8 _ZN17ResiprocateWorkerC2Ev
  3340: 00a7d698    20 OBJECT  GLOBAL DEFAULT   14 _ZTV17ResiprocateWorker
  3341: 003d6df1    64 FUNC    GLOBAL DEFAULT    8 _ZN17ResiprocateWorkerD2Ev
  3342: 003d6df1    64 FUNC    GLOBAL DEFAULT    8 _ZN17ResiprocateWorkerD1Ev
  3343: 003d6e31    32 FUNC    GLOBAL DEFAULT    8 _ZN17ResiprocateWorkerD0Ev
  3344: 003d6e51   492 FUNC    GLOBAL DEFAULT    8 _ZN17ResiprocateWorker15backgroundSleepEv
  3345: 003d703d   624 FUNC    GLOBAL DEFAULT    8 _ZN17ResiprocateWorker3RunEPN3rtc6ThreadE
  3346: 004874c5   188 FUNC    GLOBAL DEFAULT    8 _ZN5resip8SecurityC1ERKNS_12BaseSecurity10CipherListE
  3347: 004821b9    32 FUNC    GLOBAL DEFAULT    8 _ZN5resip12BaseSecurity14addRootCertPEMERKNS_4DataE
  3348: 004cedb9   872 FUNC    GLOBAL DEFAULT    8 _ZN5resip8SipStackC1EPNS_8SecurityERKNSt3__16vectorINS_16GenericIPAddressENS3_9allocatorIS5_EEEEPNS_19AsyncProcessHandlerEbPFviiPKciEPNS_11CompressionEPNS_9FdPollGrpE
  3349: 003dd5d5   576 FUNC    GLOBAL DEFAULT    8 _ZN9twiliosdk12ResipAccount7processEi
  3350: 00a9d164    32 OBJECT  GLOBAL DEFAULT   19 _ZN5resip12BaseSecurity15ExportableSuiteE
  3351: 00aa1e60    12 OBJECT  GLOBAL DEFAULT   19 _ZN5resip7DnsStub19EmptyNameserverListE
  3352: 003d73a1   136 FUNC    GLOBAL DEFAULT    8 _ZN9twiliosdk11Resiprocate4callEiRKNSt3__112basic_stringIcNS1_11char_traitsIcEENS1_9allocatorIcEEEES9_PvS9_
  3353: 005ac049   100 FUNC    GLOBAL DEFAULT    8 _ZN9twiliosdk11CallMessageD1Ev
  3354: 003d7429    82 FUNC    GLOBAL DEFAULT    8 _ZN9twiliosdk11Resiprocate15setCallUserDataEiiPv
  3355: 003d747d    58 FUNC    GLOBAL DEFAULT    8 _ZN9twiliosdk11Resiprocate10deleteCallEii
  3356: 003d74b9    80 FUNC    GLOBAL DEFAULT    8 _ZN9twiliosdk11Resiprocate11acceptOfferEiiiRKNSt3__112basic_stringIcNS1_11char_traitsIcEENS1_9allocatorIcEEEE
  3357: 003d7509    70 FUNC    GLOBAL DEFAULT    8 _ZN9twiliosdk11Resiprocate11updateOfferEiiRKNSt3__112basic_stringIcNS1_11char_traitsIcEENS1_9allocatorIcEEEE
  3358: 003d7551    58 FUNC    GLOBAL DEFAULT    8 _ZN9twiliosdk11Resiprocate10hangupCallEii
  3359: 003d758d    90 FUNC    GLOBAL DEFAULT    8 _ZN9twiliosdk11Resiprocate12getSIPCallIdEii
  3360: 003d75e9    70 FUNC    GLOBAL DEFAULT    8 _ZN9twiliosdk11Resiprocate8xferCallEiiRKNSt3__112basic_stringIcNS1_11char_traitsIcEENS1_9allocatorIcEEEE
  3361: 003d7631    70 FUNC    GLOBAL DEFAULT    8 _ZN9twiliosdk11Resiprocate12publishEventEiiRKNSt3__112basic_stringIcNS1_11char_traitsIcEENS1_9allocatorIcEEEE
  3362: 003d7679   344 FUNC    GLOBAL DEFAULT    8 _ZN9twiliosdk12AddAcountMsg14processMessageEv
  3363: 003d8991   166 FUNC    WEAK   DEFAULT    8 _ZNSt3__16vectorIPN9twiliosdk12ResipAccountENS_9allocatorIS3_EEE19__annotate_increaseEj
  3364: 003d8a39   434 FUNC    WEAK   DEFAULT    8 _ZNSt3__16vectorIPN9twiliosdk12ResipAccountENS_9allocatorIS3_EEE21__push_back_slow_pathIRKS3_EEvOT_
  3365: 003d77d1   144 FUNC    GLOBAL DEFAULT    8 _ZN9twiliosdk17RegisterAcountMsg14processMessageEv
  3366: 003dd4e5   240 FUNC    GLOBAL DEFAULT    8 _ZN9twiliosdk12ResipAccount14updateRegisterEb
  3367: 003d7861   164 FUNC    GLOBAL DEFAULT    8 _ZN9twiliosdk15DeleteAcountMsg14processMessageEv
  3368: 003dcf81    64 FUNC    GLOBAL DEFAULT    8 _ZN9twiliosdk12ResipAccount8shutdownEv
  3369: 003e0615   520 FUNC    GLOBAL DEFAULT    8 _ZNK9twiliosdk12ResipAccount14getFullAddressERKNSt3__112basic_stringIcNS1_11char_traitsIcEENS1_9allocatorIcEEEE
  3370: 003d793d   936 FUNC    GLOBAL DEFAULT    8 _ZN9twiliosdk11CallMessage14processMessageEv
  3371: 003e0419   422 FUNC    GLOBAL DEFAULT    8 _ZN9twiliosdk12ResipAccount10createCallEv
  3372: 003d9c45   112 FUNC    GLOBAL DEFAULT    8 _ZN9twiliosdk9ResipCall9startCallERKNSt3__112basic_stringIcNS1_11char_traitsIcEENS1_9allocatorIcEEEES9_Pv
  3373: 003d94ad   480 FUNC    GLOBAL DEFAULT    8 _ZN9twiliosdk9ResipCall10answerCallEiRKNSt3__112basic_stringIcNS1_11char_traitsIcEENS1_9allocatorIcEEEE
  3374: 003d96c9    56 FUNC    GLOBAL DEFAULT    8 _ZN9twiliosdk9ResipCall6hangupEv
  3375: 003d9701   110 FUNC    GLOBAL DEFAULT    8 _ZN9twiliosdk9ResipCall11updateOfferERKNSt3__112basic_stringIcNS1_11char_traitsIcEENS1_9allocatorIcEEEE
  3376: 003d9439   116 FUNC    GLOBAL DEFAULT    8 _ZN9twiliosdk9ResipCall10deleteCallEv
  3377: 003d9771   552 FUNC    GLOBAL DEFAULT    8 _ZN9twiliosdk9ResipCall8xferCallERKNSt3__112basic_stringIcNS1_11char_traitsIcEENS1_9allocatorIcEEEE
  3378: 003dac99    96 FUNC    GLOBAL DEFAULT    8 _ZN9twiliosdk9ResipCall12publishEventERKNSt3__112basic_stringIcNS1_11char_traitsIcEENS1_9allocatorIcEEEE
  3379: 005ac0cd    64 FUNC    GLOBAL DEFAULT    8 _ZN9twiliosdk14SleepWakeupMsgD1Ev
  3380: 005ac12d    64 FUNC    GLOBAL DEFAULT    8 _ZN9twiliosdk22RefreshRegistrationMsgD1Ev
  3381: 003d7f7d    48 FUNC    GLOBAL DEFAULT    8 _ZN9twiliosdk14SleepWakeupMsg14processMessageEv
  3382: 003d7fad    22 FUNC    GLOBAL DEFAULT    8 _ZN9twiliosdk22RefreshRegistrationMsg14processMessageEv
  3383: 003d88d5   186 FUNC    WEAK   DEFAULT    8 _ZNSt3__113__vector_baseIPN9twiliosdk12ResipAccountENS_9allocatorIS3_EEED2Ev
  3384: 003d88d5   186 FUNC    WEAK   DEFAULT    8 _ZNSt3__113__vector_baseIPN9twiliosdk12ResipAccountENS_9allocatorIS3_EEED1Ev
  3385: 003d8bed    24 FUNC    WEAK   DEFAULT    8 _ZNSt3__16vectorIPN9twiliosdk12ResipAccountENS_9allocatorIS3_EEE31__annotate_contiguous_containerEPKvS8_S8_S8_
  3386: 003d8ecd   116 FUNC    WEAK   DEFAULT    8 _ZNKSt3__16vectorIPN9twiliosdk12ResipAccountENS_9allocatorIS3_EEE8max_sizeEv
  3387: 003d8c05   196 FUNC    WEAK   DEFAULT    8 _ZNSt3__114__split_bufferIPN9twiliosdk12ResipAccountERNS_9allocatorIS3_EEEC1EjjS6_
  3388: 003d8d9d   302 FUNC    WEAK   DEFAULT    8 _ZNSt3__16vectorIPN9twiliosdk12ResipAccountENS_9allocatorIS3_EEE26__swap_out_circular_bufferERNS_14__split_bufferIS3_RS5_EE
  3389: 003d8cc9   210 FUNC    WEAK   DEFAULT    8 _ZNSt3__114__split_bufferIPN9twiliosdk12ResipAccountERNS_9allocatorIS3_EEED1Ev
  3390: 003d8c05   196 FUNC    WEAK   DEFAULT    8 _ZNSt3__114__split_bufferIPN9twiliosdk12ResipAccountERNS_9allocatorIS3_EEEC2EjjS6_
  3391: 003d8cc9   210 FUNC    WEAK   DEFAULT    8 _ZNSt3__114__split_bufferIPN9twiliosdk12ResipAccountERNS_9allocatorIS3_EEED2Ev
  3392: 003d8f41   176 FUNC    WEAK   DEFAULT    8 _ZNSt3__16vectorIPN9twiliosdk12ResipAccountENS_9allocatorIS3_EEE17__annotate_deleteEv
  3393: 003d8ff1   162 FUNC    WEAK   DEFAULT    8 _ZNSt3__16vectorIPN9twiliosdk12ResipAccountENS_9allocatorIS3_EEE14__annotate_newEj
  3394: 00a7d6ac    12 OBJECT  GLOBAL DEFAULT   14 _ZTI17ResiprocateWorker
  3395: 00a7d6d0     8 OBJECT  WEAK   DEFAULT   14 _ZTIN3rtc8RunnableE
  3396: 00a7d6d8    12 OBJECT  WEAK   DEFAULT   14 _ZTIN3rtc12SocketServerE
  3397: 00a7d6e4     8 OBJECT  WEAK   DEFAULT   14 _ZTIN3rtc13SocketFactoryE
  3398: 009cc454    20 OBJECT  GLOBAL DEFAULT   11 _ZTS17ResiprocateWorker
  3399: 009ccab8    16 OBJECT  WEAK   DEFAULT   11 _ZTSN3rtc8RunnableE
  3400: 009ccac8    21 OBJECT  WEAK   DEFAULT   11 _ZTSN3rtc12SocketServerE
  3401: 009ccae0    22 OBJECT  WEAK   DEFAULT   11 _ZTSN3rtc13SocketFactoryE
  3402: 003d9095    28 FUNC    WEAK   DEFAULT    8 _ZNSt3__16vectorIPN9twiliosdk12ResipAccountENS_9allocatorIS3_EEED2Ev
  3403: 003d9095    28 FUNC    WEAK   DEFAULT    8 _ZNSt3__16vectorIPN9twiliosdk12ResipAccountENS_9allocatorIS3_EEED1Ev
  3404: 004e1d61   136 FUNC    GLOBAL DEFAULT    8 _ZN5resip11SdpContents4initEv
  3405: 003dbb49    64 FUNC    WEAK   DEFAULT    8 _ZN5resip4DataC2Ev
  3406: 003dbb49    64 FUNC    WEAK   DEFAULT    8 _ZN5resip4DataC1Ev
  3407: 003dbb89    52 FUNC    WEAK   DEFAULT    8 _ZN5resip4DataaSERKS0_
  3408: 003dbbbd    24 FUNC    WEAK   DEFAULT    8 _ZNK5resip16HeaderFieldValue9getBufferEv
  3409: 003dbbd5    24 FUNC    WEAK   DEFAULT    8 _ZNK5resip16HeaderFieldValue9getLengthEv
  3410: 003dbbed    30 FUNC    WEAK   DEFAULT    8 _ZN5resip20HeaderFieldValueList5frontEv
  3411: 003dbc0d    28 FUNC    WEAK   DEFAULT    8 _ZNK5resip3Uri4userEv
  3412: 003dbc29    24 FUNC    WEAK   DEFAULT    8 _ZNK5resip8Contents7getTypeEv
  3413: 003dbc41    26 FUNC    WEAK   DEFAULT    8 _ZNK5resip10SipMessage9isRequestEv
  3414: 003dbc5d    26 FUNC    WEAK   DEFAULT    8 _ZNK5resip10SipMessage10isResponseEv
  3415: 003dbc79    26 FUNC    WEAK   DEFAULT    8 _ZNK5resip10SipMessage20getRawUnknownHeadersEv
  3416: 003dbc95    56 FUNC    WEAK   DEFAULT    8 _ZN5resip20InviteSessionHandlerC2Eb
  3417: 00a7f298   184 OBJECT  GLOBAL DEFAULT   14 _ZTVN5resip20InviteSessionHandlerE
  3418: 003dbc95    56 FUNC    WEAK   DEFAULT    8 _ZN5resip20InviteSessionHandlerC1Eb
  3419: 003dbccd    56 FUNC    WEAK   DEFAULT    8 _ZN5resip20InviteSessionHandlerD2Ev
  3420: 003dbccd    56 FUNC    WEAK   DEFAULT    8 _ZN5resip20InviteSessionHandlerD1Ev
  3421: 003dbd05    32 FUNC    WEAK   DEFAULT    8 _ZN5resip20InviteSessionHandlerD0Ev
  3422: 003dbd25    24 FUNC    WEAK   DEFAULT    8 _ZN5resip20InviteSessionHandler20isGenericOfferAnswerEv
  3423: 003dbd3d   188 FUNC    WEAK   DEFAULT    8 _ZN9twiliosdk19CallStateChangeInfoC2Ei
  3424: 003dbd3d   188 FUNC    WEAK   DEFAULT    8 _ZN9twiliosdk19CallStateChangeInfoC1Ei
  3425: 003dbdf9    78 FUNC    WEAK   DEFAULT    8 _ZN9twiliosdk19CallStateChangeInfoD2Ev
  3426: 003dbdf9    78 FUNC    WEAK   DEFAULT    8 _ZN9twiliosdk19CallStateChangeInfoD1Ev
  3427: 003dbe49    26 FUNC    WEAK   DEFAULT    8 _ZN9twiliosdk19CallStateChangeInfo12setRemoteSdpERKNSt3__112basic_stringIcNS1_11char_traitsIcEENS1_9allocatorIcEEEE
  3428: 003dbe65    28 FUNC    WEAK   DEFAULT    8 _ZN9twiliosdk19CallStateChangeInfo10setCallSidERKNSt3__112basic_stringIcNS1_11char_traitsIcEENS1_9allocatorIcEEEE
  3429: 003dbe81    28 FUNC    WEAK   DEFAULT    8 _ZN9twiliosdk19CallStateChangeInfo18setConversationSidERKNSt3__112basic_stringIcNS1_11char_traitsIcEENS1_9allocatorIcEEEE
  3430: 003dbe9d    28 FUNC    WEAK   DEFAULT    8 _ZN9twiliosdk19CallStateChangeInfo9setCookieERKNSt3__112basic_stringIcNS1_11char_traitsIcEENS1_9allocatorIcEEEE
  3431: 003dbeb9    28 FUNC    WEAK   DEFAULT    8 _ZN9twiliosdk19CallStateChangeInfo9setReasonERKNSt3__112basic_stringIcNS1_11char_traitsIcEENS1_9allocatorIcEEEE
  3432: 003dbed5    28 FUNC    WEAK   DEFAULT    8 _ZN9twiliosdk19CallStateChangeInfo17setParticipantSidERKNSt3__112basic_stringIcNS1_11char_traitsIcEENS1_9allocatorIcEEEE
  3433: 003dbef1    30 FUNC    WEAK   DEFAULT    8 _ZN9twiliosdk9ResipCall12setSipCallIdERKNSt3__112basic_stringIcNS1_11char_traitsIcEENS1_9allocatorIcEEEE
  3434: 003dbf11    26 FUNC    WEAK   DEFAULT    8 _ZNK9twiliosdk9ResipCall10getAccountEv
  3435: 003dbf2d    24 FUNC    WEAK   DEFAULT    8 _ZN9twiliosdk12ResipAccount11getEndpointEv
  3436: 003dbf45   172 FUNC    WEAK   DEFAULT    8 _ZN9twiliosdk12ResipAccount10removeCallEib
  3437: 003dbff1    52 FUNC    WEAK   DEFAULT    8 _ZN9twiliosdk12ResipAccount15incPendingCallsEv
  3438: 003dc025    24 FUNC    WEAK   DEFAULT    8 _ZNK9twiliosdk12ResipAccount12getLocalUserEv
  3439: 003dc03d    26 FUNC    WEAK   DEFAULT    8 _ZNK9twiliosdk12ResipAccount21useConversationEventsEv
  3440: 003dc059    28 FUNC    WEAK   DEFAULT    8 _ZNK5resip22MultipartMixedContents5partsEv
  3441: 003dc075    52 FUNC    WEAK   DEFAULT    8 _ZN18ResipInviteHandlerC2Ev
  3442: 00a7d6f0   184 OBJECT  GLOBAL DEFAULT   14 _ZTV18ResipInviteHandler
  3443: 003dc075    52 FUNC    WEAK   DEFAULT    8 _ZN18ResipInviteHandlerC1Ev
  3444: 003d9115   440 FUNC    GLOBAL DEFAULT    8 _ZN9twiliosdk9ResipCallC2ERN5resip18DialogUsageManagerEPNS_12ResipAccountEi
  3445: 00470f9d    36 FUNC    GLOBAL DEFAULT    8 _ZN5resip12AppDialogSetC2ERNS_18DialogUsageManagerE
  3446: 0048e759    84 FUNC    GLOBAL DEFAULT    8 _ZN5resip8NameAddrC1Ev
  3447: 003dc0a9    34 FUNC    WEAK   DEFAULT    8 _ZN5resip6HandleINS_19ClientInviteSessionEEC1Ev
  3448: 003dc0cd    34 FUNC    WEAK   DEFAULT    8 _ZN5resip6HandleINS_19ServerInviteSessionEEC1Ev
  3449: 00470eed    28 FUNC    GLOBAL DEFAULT    8 _ZN5resip12AppDialogSetD2Ev
  3450: 00a7d7a8    48 OBJECT  GLOBAL DEFAULT   14 _ZTVN9twiliosdk9ResipCallE
  3451: 003d9115   440 FUNC    GLOBAL DEFAULT    8 _ZN9twiliosdk9ResipCallC1ERN5resip18DialogUsageManagerEPNS_12ResipAccountEi
  3452: 003d92cd   332 FUNC    GLOBAL DEFAULT    8 _ZN9twiliosdk9ResipCallD2Ev
  3453: 004c7f69    20 FUNC    GLOBAL DEFAULT    8 _ZN5resip16HeaderFieldValueD1Ev
  3454: 003d92cd   332 FUNC    GLOBAL DEFAULT    8 _ZN9twiliosdk9ResipCallD1Ev
  3455: 003d9419    32 FUNC    GLOBAL DEFAULT    8 _ZN9twiliosdk9ResipCallD0Ev
  3456: 003d9abd   392 FUNC    GLOBAL DEFAULT    8 _ZN9twiliosdk9ResipCall8buildSdpERKNSt3__112basic_stringIcNS1_11char_traitsIcEENS1_9allocatorIcEEEE
  3457: 003dc0f1    26 FUNC    WEAK   DEFAULT    8 _ZN5resip6HandleINS_19ServerInviteSessionEEptEv
  3458: 00404905   780 FUNC    GLOBAL DEFAULT    8 _ZN5resip19ServerInviteSession11provisionalEib
  3459: 00404d4d   948 FUNC    GLOBAL DEFAULT    8 _ZN5resip19ServerInviteSession6acceptEi
  3460: 003dc10d    26 FUNC    WEAK   DEFAULT    8 _ZN5resip6HandleINS_19ClientInviteSessionEEptEv
  3461: 003d968d    58 FUNC    GLOBAL DEFAULT    8 _ZN9twiliosdk9ResipCall12provideOfferEN5resip6HandleINS1_13InviteSessionEEE
  3462: 003dc129    26 FUNC    WEAK   DEFAULT    8 _ZN5resip6HandleINS_13InviteSessionEEptEv
  3463: 00494f01    92 FUNC    GLOBAL DEFAULT    8 _ZN5resip8NameAddrC1ERKS0_PNS_8PoolBaseE
  3464: 0048e8e5    22 FUNC    GLOBAL DEFAULT    8 _ZN5resip8NameAddr11displayNameEv
  3465: 003d9999    48 FUNC    GLOBAL DEFAULT    8 _ZN9twiliosdk9ResipCall12onNewSessionEN5resip6HandleINS1_19ClientInviteSessionEEE
  3466: 003d99c9   116 FUNC    GLOBAL DEFAULT    8 _ZN9twiliosdk9ResipCall12onNewSessionEN5resip6HandleINS1_19ServerInviteSessionEEERKNSt3__112basic_stringIcNS5_11char_traitsIcEENS5_9allocatorIcEEEEb
  3467: 003d9cb5   330 FUNC    GLOBAL DEFAULT    8 _ZN9twiliosdk9ResipCall13setRemoteUserERKNSt3__112basic_stringIcNS1_11char_traitsIcEENS1_9allocatorIcEEEE
  3468: 003da535   274 FUNC    GLOBAL DEFAULT    8 _ZN9twiliosdk9ResipCall14notifyIncomingEv
  3469: 003d9a3d    24 FUNC    GLOBAL DEFAULT    8 _ZN9twiliosdk9ResipCall16getInviteHandlerEv
  3470: 003d9a55   104 FUNC    GLOBAL DEFAULT    8 _ZN9twiliosdk9ResipCall7processEv
  3471: 003e01e1   516 FUNC    GLOBAL DEFAULT    8 _ZN9twiliosdk12ResipAccount10sendInviteEPNS_9ResipCallE
  3472: 004c7f7d    16 FUNC    GLOBAL DEFAULT    8 _ZN5resip16HeaderFieldValueC1EPKcj
  3473: 004ea691   412 FUNC    GLOBAL DEFAULT    8 _ZN5resip11SdpContentsC1ERKNS_16HeaderFieldValueERKNS_4MimeE
  3474: 00a9b770   124 OBJECT  GLOBAL DEFAULT   19 _ZN9twiliosdk12ResipAccount8mimeSdp_E
  3475: 0048e85d    62 FUNC    GLOBAL DEFAULT    8 _ZN5resip8NameAddraSERKS0_
  3476: 003d9e01  1480 FUNC    GLOBAL DEFAULT    8 _ZN9twiliosdk9ResipCall7setSidsERKN5resip10SipMessageE
  3477: 004d0c9d    30 FUNC    GLOBAL DEFAULT    8 _ZNK5resip10SipMessage6existsERKNS_10HeaderBaseE
  3478: 004d99f5   304 FUNC    GLOBAL DEFAULT    8 _ZNK5resip10SipMessage6headerERKNS_10H_ContactsE
  3479: 003dc145    38 FUNC    WEAK   DEFAULT    8 _ZNK5resip15ParserContainerINS_8NameAddrEE5frontEv
  3480: 0048e89d    18 FUNC    GLOBAL DEFAULT    8 _ZNK5resip8NameAddr3uriEv
  3481: 00a9e508     4 OBJECT  GLOBAL DEFAULT   19 _ZN5resip10h_ContactsE
  3482: 00a95514     4 OBJECT  GLOBAL DEFAULT   18 _ZN9twiliosdk20kTSCSIPHeaderCallSidE
  3483: 00a95538     4 OBJECT  GLOBAL DEFAULT   18 _ZN9twiliosdk27kTSCSIPHeaderParticipantSidE
  3484: 003da3c9   364 FUNC    GLOBAL DEFAULT    8 _ZN9twiliosdk9ResipCall12onTerminatedEN5resip20InviteSessionHandler16TerminatedReasonEiRKNSt3__112basic_stringIcNS4_11char_traitsIcEENS4_9allocatorIcEEEE
  3485: 003da649    76 FUNC    GLOBAL DEFAULT    8 _ZN9twiliosdk9ResipCall8onAnswerERKNSt3__112basic_stringIcNS1_11char_traitsIcEENS1_9allocatorIcEEEE
  3486: 003da695    94 FUNC    GLOBAL DEFAULT    8 _ZN9twiliosdk9ResipCall7onOfferERKNSt3__112basic_stringIcNS1_11char_traitsIcEENS1_9allocatorIcEEEE
  3487: 003da6f5    60 FUNC    GLOBAL DEFAULT    8 _ZN9twiliosdk9ResipCall15onOfferRejectedEv
  3488: 003da731   492 FUNC    GLOBAL DEFAULT    8 _ZN9twiliosdk9ResipCall11onConnectedEv
  3489: 003da91d   112 FUNC    GLOBAL DEFAULT    8 _ZN9twiliosdk9ResipCall23notifyConversationEventERKNSt3__112basic_stringIcNS1_11char_traitsIcEENS1_9allocatorIcEEEE
  3490: 003da98d    50 FUNC    GLOBAL DEFAULT    8 _ZN9twiliosdk9ResipCall25processConversationEventsERKNSt3__112basic_stringIcNS1_11char_traitsIcEENS1_9allocatorIcEEEE
  3491: 003da9c1   464 FUNC    GLOBAL DEFAULT    8 _ZN9twiliosdk9ResipCall22processContentsWithSdpEPKN5resip8ContentsE
  3492: 0089690d   188 FUNC    GLOBAL DEFAULT    8 __dynamic_cast
  3493: 004a46c1    86 FUNC    GLOBAL DEFAULT    8 _ZNK5resip4MimeeqERKS0_
  3494: 00a81560    12 OBJECT  GLOBAL DEFAULT   14 _ZTIN5resip8ContentsE
  3495: 00a7fc48    12 OBJECT  GLOBAL DEFAULT   14 _ZTIN5resip22MultipartMixedContentsE
  3496: 00a9b868   124 OBJECT  GLOBAL DEFAULT   19 _ZN9twiliosdk12ResipAccount21mimeConversationInfo_E
  3497: 003dab91   264 FUNC    GLOBAL DEFAULT    8 _ZN9twiliosdk9ResipCall15processContentsEPKN5resip8ContentsE
  3498: 0045fac1   728 FUNC    GLOBAL DEFAULT    8 _ZN5resip13InviteSession21sendConversationEventERKNSt3__112basic_stringIcNS1_11char_traitsIcEENS1_9allocatorIcEEEERKNS_4MimeE
  3499: 003dacf9    88 FUNC    GLOBAL DEFAULT    8 _ZN18ResipInviteHandler12onNewSessionEN5resip6HandleINS0_19ClientInviteSessionEEENS0_13InviteSession15OfferAnswerTypeERKNS0_10SipMessageE
  3500: 0041d629    20 FUNC    GLOBAL DEFAULT    8 _ZN5resip11DialogUsage15getAppDialogSetEv
  3501: 003dc1cd   204 FUNC    WEAK   DEFAULT    8 _ZN5resip6HandleINS_12AppDialogSetEE3getEv
  3502: 004ddb0d  1364 FUNC    GLOBAL DEFAULT    8 _ZNK5resip10SipMessage11getContentsEv
  3503: 003dad51   688 FUNC    GLOBAL DEFAULT    8 _ZN18ResipInviteHandler12onNewSessionEN5resip6HandleINS0_19ServerInviteSessionEEENS0_13InviteSession15OfferAnswerTypeERKNS0_10SipMessageE
  3504: 004d9b25   172 FUNC    GLOBAL DEFAULT    8 _ZNK5resip10SipMessage6headerERKNS_6H_FromE
  3505: 004db619   348 FUNC    GLOBAL DEFAULT    8 _ZNK5resip10SipMessage6headerERKNS_8H_CallIDE
  3506: 004f3c15    18 FUNC    GLOBAL DEFAULT    8 _ZNK5resip6CallID5valueEv
  3507: 00a9e504     4 OBJECT  GLOBAL DEFAULT   19 _ZN5resip6h_FromE
  3508: 00a9e484     4 OBJECT  GLOBAL DEFAULT   19 _ZN5resip8h_CallIdE
  3509: 003db001    72 FUNC    GLOBAL DEFAULT    8 _ZN18ResipInviteHandler9onFailureEN5resip6HandleINS0_19ClientInviteSessionEEERKNS0_10SipMessageE
  3510: 003db049    26 FUNC    GLOBAL DEFAULT    8 _ZN18ResipInviteHandler12onEarlyMediaEN5resip6HandleINS0_19ClientInviteSessionEEERKNS0_10SipMessageERKNS0_11SdpContentsE
  3511: 003db065   104 FUNC    GLOBAL DEFAULT    8 _ZN9twiliosdk9ResipCall13onProvisionalEi
  3512: 003db0cd   160 FUNC    GLOBAL DEFAULT    8 _ZN18ResipInviteHandler13onProvisionalEN5resip6HandleINS0_19ClientInviteSessionEEERKNS0_10SipMessageE
  3513: 004d0c95     6 FUNC    GLOBAL DEFAULT    8 _ZNK5resip10SipMessage6headerERKNS_14StatusLineTypeE
  3514: 004c9571    16 FUNC    GLOBAL DEFAULT    8 _ZNK5resip10StatusLine12responseCodeEv
  3515: 00a9e440     1 OBJECT  GLOBAL DEFAULT   19 _ZN5resip12h_StatusLineE
  3516: 003db16d   140 FUNC    GLOBAL DEFAULT    8 _ZN18ResipInviteHandler11onConnectedEN5resip6HandleINS0_19ClientInviteSessionEEERKNS0_10SipMessageE
  3517: 003db1f9   116 FUNC    GLOBAL DEFAULT    8 _ZN18ResipInviteHandler11onConnectedEN5resip6HandleINS0_13InviteSessionEEERKNS0_10SipMessageE
  3518: 003db26d    76 FUNC    GLOBAL DEFAULT    8 _ZN18ResipInviteHandler8onNotifyEN5resip6HandleINS0_13InviteSessionEEERKNS0_10SipMessageE
  3519: 003db2b9   316 FUNC    GLOBAL DEFAULT    8 _ZN18ResipInviteHandler12onTerminatedEN5resip6HandleINS0_13InviteSessionEEENS0_20InviteSessionHandler16TerminatedReasonEPKNS0_10SipMessageE
  3520: 004c95d5    18 FUNC    GLOBAL DEFAULT    8 _ZNK5resip10StatusLine6reasonEv
  3521: 003db3f5    24 FUNC    GLOBAL DEFAULT    8 _ZN18ResipInviteHandler15onForkDestroyedEN5resip6HandleINS0_19ClientInviteSessionEEE
  3522: 003db40d    26 FUNC    GLOBAL DEFAULT    8 _ZN18ResipInviteHandler12onRedirectedEN5resip6HandleINS0_19ClientInviteSessionEEERKNS0_10SipMessageE
  3523: 003db429   384 FUNC    GLOBAL DEFAULT    8 _ZN18ResipInviteHandler13onReadyToSendEN5resip6HandleINS0_13InviteSessionEEERNS0_10SipMessageE
  3524: 003e00b5   300 FUNC    GLOBAL DEFAULT    8 _ZN9twiliosdk12ResipAccount20updateContactHeadersEPN5resip10SipMessageE
  3525: 004d0c6d    40 FUNC    GLOBAL DEFAULT    8 _ZN5resip10SipMessage6headerERKNS_14StatusLineTypeE
  3526: 003dfd89   340 FUNC    GLOBAL DEFAULT    8 _ZN9twiliosdk12ResipAccount13updateHeadersEPN5resip10SipMessageE
  3527: 004d0c3d    40 FUNC    GLOBAL DEFAULT    8 _ZN5resip10SipMessage6headerERKNS_15RequestLineTypeE
  3528: 004eef49    18 FUNC    GLOBAL DEFAULT    8 _ZNK5resip11RequestLine9getMethodEv
  3529: 003e03e5    52 FUNC    GLOBAL DEFAULT    8 _ZN9twiliosdk12ResipAccount13removeHeadersEPN5resip10SipMessageE
  3530: 004eef31    22 FUNC    GLOBAL DEFAULT    8 _ZN5resip11RequestLine3uriEv
  3531: 004d1921   772 FUNC    GLOBAL DEFAULT    8 _ZN5resip10SipMessage9addHeaderENS_7Headers4TypeEPKciS4_i
  3532: 00a9e444     1 OBJECT  GLOBAL DEFAULT   19 _ZN5resip13h_RequestLineE
  3533: 003db5a9   256 FUNC    GLOBAL DEFAULT    8 _ZN18ResipInviteHandler8onAnswerEN5resip6HandleINS0_13InviteSessionEEERKNS0_10SipMessageERKNS0_11SdpContentsE
  3534: 003db6a9   256 FUNC    GLOBAL DEFAULT    8 _ZN18ResipInviteHandler7onOfferEN5resip6HandleINS0_13InviteSessionEEERKNS0_10SipMessageERKNS0_11SdpContentsE
  3535: 003db7a9    96 FUNC    GLOBAL DEFAULT    8 _ZN18ResipInviteHandler8onAnswerEN5resip6HandleINS0_13InviteSessionEEERKNS0_10SipMessageERKNS0_8ContentsE
  3536: 00459bfd    88 FUNC    GLOBAL DEFAULT    8 _ZN5resip20InviteSessionHandler8onAnswerENS_6HandleINS_13InviteSessionEEERKNS_10SipMessageERKNS_8ContentsE
  3537: 003db809    96 FUNC    GLOBAL DEFAULT    8 _ZN18ResipInviteHandler7onOfferEN5resip6HandleINS0_13InviteSessionEEERKNS0_10SipMessageERKNS0_8ContentsE
  3538: 00459c55    88 FUNC    GLOBAL DEFAULT    8 _ZN5resip20InviteSessionHandler7onOfferENS_6HandleINS_13InviteSessionEEERKNS_10SipMessageERKNS_8ContentsE
  3539: 003db869    26 FUNC    GLOBAL DEFAULT    8 _ZN18ResipInviteHandler18onRemoteSdpChangedEN5resip6HandleINS0_13InviteSessionEEERKNS0_10SipMessageERKNS0_11SdpContentsE
  3540: 003db885    26 FUNC    GLOBAL DEFAULT    8 _ZN18ResipInviteHandler22onOfferRequestRejectedEN5resip6HandleINS0_13InviteSessionEEERKNS0_10SipMessageE
  3541: 003db8a1   124 FUNC    GLOBAL DEFAULT    8 _ZN18ResipInviteHandler15onOfferRequiredEN5resip6HandleINS0_13InviteSessionEEERKNS0_10SipMessageE
  3542: 003db91d    66 FUNC    GLOBAL DEFAULT    8 _ZN18ResipInviteHandler15onOfferRejectedEN5resip6HandleINS0_13InviteSessionEEEPKNS0_10SipMessageE
  3543: 003db961    26 FUNC    GLOBAL DEFAULT    8 _ZN18ResipInviteHandler6onInfoEN5resip6HandleINS0_13InviteSessionEEERKNS0_10SipMessageE
  3544: 003db97d    26 FUNC    GLOBAL DEFAULT    8 _ZN18ResipInviteHandler13onInfoSuccessEN5resip6HandleINS0_13InviteSessionEEERKNS0_10SipMessageE
  3545: 003db999    26 FUNC    GLOBAL DEFAULT    8 _ZN18ResipInviteHandler13onInfoFailureEN5resip6HandleINS0_13InviteSessionEEERKNS0_10SipMessageE
  3546: 003db9b5    26 FUNC    GLOBAL DEFAULT    8 _ZN18ResipInviteHandler9onMessageEN5resip6HandleINS0_13InviteSessionEEERKNS0_10SipMessageE
  3547: 003db9d1    26 FUNC    GLOBAL DEFAULT    8 _ZN18ResipInviteHandler16onMessageSuccessEN5resip6HandleINS0_13InviteSessionEEERKNS0_10SipMessageE
  3548: 003db9ed    26 FUNC    GLOBAL DEFAULT    8 _ZN18ResipInviteHandler16onMessageFailureEN5resip6HandleINS0_13InviteSessionEEERKNS0_10SipMessageE
  3549: 003dba09    30 FUNC    GLOBAL DEFAULT    8 _ZN18ResipInviteHandler7onReferEN5resip6HandleINS0_13InviteSessionEEENS1_INS0_18ServerSubscriptionEEERKNS0_10SipMessageE
  3550: 003dba29    26 FUNC    GLOBAL DEFAULT    8 _ZN18ResipInviteHandler12onReferNoSubEN5resip6HandleINS0_13InviteSessionEEERKNS0_10SipMessageE
  3551: 003dba45    26 FUNC    GLOBAL DEFAULT    8 _ZN18ResipInviteHandler15onReferRejectedEN5resip6HandleINS0_13InviteSessionEEERKNS0_10SipMessageE
  3552: 003dba61    30 FUNC    GLOBAL DEFAULT    8 _ZN18ResipInviteHandler15onReferAcceptedEN5resip6HandleINS0_13InviteSessionEEENS1_INS0_18ClientSubscriptionEEERKNS0_10SipMessageE
  3553: 003dba81    26 FUNC    GLOBAL DEFAULT    8 _ZN18ResipInviteHandler20onIllegalNegotiationEN5resip6HandleINS0_13InviteSessionEEERKNS0_10SipMessageE
  3554: 003dc0a9    34 FUNC    WEAK   DEFAULT    8 _ZN5resip6HandleINS_19ClientInviteSessionEEC2Ev
  3555: 003dc0cd    34 FUNC    WEAK   DEFAULT    8 _ZN5resip6HandleINS_19ServerInviteSessionEEC2Ev
  3556: 003dc299   204 FUNC    WEAK   DEFAULT    8 _ZN5resip6HandleINS_19ServerInviteSessionEE3getEv
  3557: 003dc365   204 FUNC    WEAK   DEFAULT    8 _ZN5resip6HandleINS_19ClientInviteSessionEE3getEv
  3558: 003dc431   204 FUNC    WEAK   DEFAULT    8 _ZN5resip6HandleINS_13InviteSessionEE3getEv
  3559: 003dc4fd   142 FUNC    WEAK   DEFAULT    8 _ZN5resip15ParserContainerINS_8NameAddrEE17ensureInitializedERKNS_19ParserContainerBase9HeaderKitEPKS2_
  3560: 003dc16d    64 FUNC    WEAK   DEFAULT    8 _ZN5resip15HandleExceptionD2Ev
  3561: 00a7df40    24 OBJECT  GLOBAL DEFAULT   14 _ZTVN5resip15HandleExceptionE
  3562: 003dc16d    64 FUNC    WEAK   DEFAULT    8 _ZN5resip15HandleExceptionD1Ev
  3563: 003dc1ad    32 FUNC    WEAK   DEFAULT    8 _ZN5resip15HandleExceptionD0Ev
  3564: 00400341    28 FUNC    GLOBAL DEFAULT    8 _ZN5resip15HandleExceptionC1ERKNS_4DataES3_i
  3565: 003ff69d  2204 FUNC    GLOBAL DEFAULT    8 _ZNK5resip13HandleManager10getHandledEm
  3566: 00a7df30    12 OBJECT  GLOBAL DEFAULT   14 _ZTIN5resip15HandleExceptionE
  3567: 0050c6cd    20 FUNC    GLOBAL DEFAULT    8 _ZnwjPN5resip8PoolBaseE
  3568: 0048e7ad    88 FUNC    GLOBAL DEFAULT    8 _ZN5resip8NameAddrC1ERKNS_16HeaderFieldValueENS_7Headers4TypeEPNS_8PoolBaseE
  3569: 0050c6e1    20 FUNC    GLOBAL DEFAULT    8 _ZdlPvPN5resip8PoolBaseE
  3570: 00a7d7d8    12 OBJECT  GLOBAL DEFAULT   14 _ZTI18ResipInviteHandler
  3571: 003dc58d    64 FUNC    WEAK   DEFAULT    8 _ZN18ResipInviteHandlerD1Ev
  3572: 003dc5cd    32 FUNC    WEAK   DEFAULT    8 _ZN18ResipInviteHandlerD0Ev
  3573: 00459ba5    88 FUNC    GLOBAL DEFAULT    8 _ZN5resip20InviteSessionHandler12onEarlyMediaENS_6HandleINS_19ClientInviteSessionEEERKNS_10SipMessageERKNS_8ContentsE
  3574: 00459b99    12 FUNC    GLOBAL DEFAULT    8 _ZN5resip20InviteSessionHandler20onConnectedConfirmedENS_6HandleINS_13InviteSessionEEERKNS_10SipMessageE
  3575: 00459e21   620 FUNC    GLOBAL DEFAULT    8 _ZN5resip20InviteSessionHandler18onStaleCallTimeoutENS_6HandleINS_19ClientInviteSessionEEE
  3576: 00459cad   276 FUNC    GLOBAL DEFAULT    8 _ZN5resip20InviteSessionHandler9terminateENS_6HandleINS_19ClientInviteSessionEEE
  3577: 00459dc1    96 FUNC    GLOBAL DEFAULT    8 _ZN5resip20InviteSessionHandler21onRemoteAnswerChangedENS_6HandleINS_13InviteSessionEEERKNS_10SipMessageERKNS_8ContentsE
  3578: 00459b69    12 FUNC    GLOBAL DEFAULT    8 _ZN5resip20InviteSessionHandler13onAckReceivedENS_6HandleINS_13InviteSessionEEERKNS_10SipMessageE
  3579: 0045a08d   812 FUNC    GLOBAL DEFAULT    8 _ZN5resip20InviteSessionHandler16onAckNotReceivedENS_6HandleINS_13InviteSessionEEE
  3580: 0045a3b9   812 FUNC    GLOBAL DEFAULT    8 _ZN5resip20InviteSessionHandler22onStaleReInviteTimeoutENS_6HandleINS_13InviteSessionEEE
  3581: 0045a959   816 FUNC    GLOBAL DEFAULT    8 _ZN5resip20InviteSessionHandler16onSessionExpiredENS_6HandleINS_13InviteSessionEEE
  3582: 0045ac89   628 FUNC    GLOBAL DEFAULT    8 _ZN5resip20InviteSessionHandler16onFlowTerminatedENS_6HandleINS_13InviteSessionEEE
  3583: 003dc58d    64 FUNC    WEAK   DEFAULT    8 _ZN18ResipInviteHandlerD2Ev
  3584: 00a7d7e4    12 OBJECT  GLOBAL DEFAULT   14 _ZTIN9twiliosdk9ResipCallE
  3585: 00471061   296 FUNC    GLOBAL DEFAULT    8 _ZNK5resip12AppDialogSet4dumpERNSt3__113basic_ostreamIcNS1_11char_traitsIcEEEE
  3586: 00470f75    40 FUNC    GLOBAL DEFAULT    8 _ZN5resip12AppDialogSet7destroyEv
  3587: 00470f1d    10 FUNC    GLOBAL DEFAULT    8 _ZN5resip12AppDialogSet3endEv
  3588: 00470fd1    80 FUNC    GLOBAL DEFAULT    8 _ZN5resip12AppDialogSet10endCommandEv
  3589: 00470f3d    24 FUNC    GLOBAL DEFAULT    8 _ZN5resip12AppDialogSet14getUserProfileEv
  3590: 00470f55    32 FUNC    GLOBAL DEFAULT    8 _ZN5resip12AppDialogSet15createAppDialogERKNS_10SipMessageE
  3591: 00470f29    20 FUNC    GLOBAL DEFAULT    8 _ZN5resip12AppDialogSet12getClassNameEv
  3592: 00471189    52 FUNC    GLOBAL DEFAULT    8 _ZN5resip12AppDialogSet20selectUASUserProfileERKNS_10SipMessageE
  3593: 009ccdd0    21 OBJECT  GLOBAL DEFAULT   11 _ZTS18ResipInviteHandler
  3594: 00a7f290     8 OBJECT  GLOBAL DEFAULT   14 _ZTIN5resip20InviteSessionHandlerE
  3595: 009ccde8    23 OBJECT  GLOBAL DEFAULT   11 _ZTSN9twiliosdk9ResipCallE
  3596: 00a7f7f8    12 OBJECT  GLOBAL DEFAULT   14 _ZTIN5resip12AppDialogSetE
  3597: 004a1e35   136 FUNC    GLOBAL DEFAULT    8 _ZN5resip22MultipartMixedContents4initEv
  3598: 003e15e5    40 FUNC    WEAK   DEFAULT    8 _ZN5resip4DataaSEPKc
  3599: 003e160d    34 FUNC    WEAK   DEFAULT    8 _ZNK5resip4Data5emptyEv
  3600: 003e1631    56 FUNC    WEAK   DEFAULT    8 _ZN5resip8PostableD2Ev
  3601: 00a7da38    20 OBJECT  WEAK   DEFAULT   14 _ZTVN5resip8PostableE
  3602: 003e1631    56 FUNC    WEAK   DEFAULT    8 _ZN5resip8PostableD1Ev
  3603: 003e1669    32 FUNC    WEAK   DEFAULT    8 _ZN5resip8PostableD0Ev
  3604: 003e1689    64 FUNC    WEAK   DEFAULT    8 _ZN5resip15sp_counted_baseC2Ev
  3605: 003feff5    32 FUNC    GLOBAL DEFAULT    8 _ZN5resip5MutexC1Ev
  3606: 00a7da18    28 OBJECT  WEAK   DEFAULT   14 _ZTVN5resip15sp_counted_baseE
  3607: 003e1689    64 FUNC    WEAK   DEFAULT    8 _ZN5resip15sp_counted_baseC1Ev
  3608: 003e16c9    64 FUNC    WEAK   DEFAULT    8 _ZN5resip15sp_counted_baseD2Ev
  3609: 003fefb5    28 FUNC    GLOBAL DEFAULT    8 _ZN5resip5MutexD1Ev
  3610: 003e16c9    64 FUNC    WEAK   DEFAULT    8 _ZN5resip15sp_counted_baseD1Ev
  3611: 003e1709    32 FUNC    WEAK   DEFAULT    8 _ZN5resip15sp_counted_baseD0Ev
  3612: 003e1729    32 FUNC    WEAK   DEFAULT    8 _ZN5resip15sp_counted_base8destructEv
  3613: 003e1749    52 FUNC    WEAK   DEFAULT    8 _ZN5resip15sp_counted_base12add_ref_copyEv
  3614: 00506e69    96 FUNC    GLOBAL DEFAULT    8 _ZN5resip4LockC1ERNS_8LockableENS_8LockTypeE
  3615: 00506e01    32 FUNC    GLOBAL DEFAULT    8 _ZN5resip4LockD1Ev
  3616: 003e177d    94 FUNC    WEAK   DEFAULT    8 _ZN5resip15sp_counted_base7releaseEv
  3617: 003e17dd    76 FUNC    WEAK   DEFAULT    8 _ZN5resip15sp_counted_base12weak_releaseEv
  3618: 003e1829    28 FUNC    WEAK   DEFAULT    8 _ZN5resip12shared_countC2Ev
  3619: 003e1829    28 FUNC    WEAK   DEFAULT    8 _ZN5resip12shared_countC1Ev
  3620: 003e1845    38 FUNC    WEAK   DEFAULT    8 _ZN5resip12shared_countD2Ev
  3621: 003e1845    38 FUNC    WEAK   DEFAULT    8 _ZN5resip12shared_countD1Ev
  3622: 003e186d    46 FUNC    WEAK   DEFAULT    8 _ZN5resip12shared_countC2ERKS0_
  3623: 003e186d    46 FUNC    WEAK   DEFAULT    8 _ZN5resip12shared_countC1ERKS0_
  3624: 003e189d    62 FUNC    WEAK   DEFAULT    8 _ZN5resip12shared_countaSERKS0_
  3625: 003e18dd    16 FUNC    WEAK   DEFAULT    8 _ZN5resip26sp_enable_shared_from_thisERKNS_12shared_countEz
  3626: 003e18ed    24 FUNC    WEAK   DEFAULT    8 _ZNK5resip14RportParameter4portEv
  3627: 003e1905    24 FUNC    WEAK   DEFAULT    8 _ZNK5resip14RportParameter8hasValueEv
  3628: 003e191d    46 FUNC    WEAK   DEFAULT    8 _ZNK5resip19ParserContainerBase5emptyEv
  3629: 003e194d    44 FUNC    WEAK   DEFAULT    8 _ZN5resip19ParserContainerBase9HeaderKitC2ERKS1_
  3630: 004c7f8d    38 FUNC    GLOBAL DEFAULT    8 _ZN5resip16HeaderFieldValueC1ERKS0_
  3631: 003e194d    44 FUNC    WEAK   DEFAULT    8 _ZN5resip19ParserContainerBase9HeaderKitC1ERKS1_
  3632: 003e1979    30 FUNC    WEAK   DEFAULT    8 _ZN5resip19ParserContainerBase9HeaderKitD2Ev
  3633: 003e1979    30 FUNC    WEAK   DEFAULT    8 _ZN5resip19ParserContainerBase9HeaderKitD1Ev
  3634: 003e1999    40 FUNC    WEAK   DEFAULT    8 _ZN5resip19ParserContainerBase10makeParserERKNS_14ParserCategoryE
  3635: 003e19c1    36 FUNC    WEAK   DEFAULT    8 _ZN5resip3Uri4hostEv
  3636: 003e19e5    28 FUNC    WEAK   DEFAULT    8 _ZNK5resip3Uri4hostEv
  3637: 003e1a01    28 FUNC    WEAK   DEFAULT    8 _ZN5resip3Uri4portEv
  3638: 003e1a1d    24 FUNC    WEAK   DEFAULT    8 _ZNK5resip5Tuple11getSockaddrEv
  3639: 003e1a35    56 FUNC    WEAK   DEFAULT    8 _ZN5resip25ClientRegistrationHandlerD2Ev
  3640: 00a7e5c0    36 OBJECT  GLOBAL DEFAULT   14 _ZTVN5resip25ClientRegistrationHandlerE
  3641: 003e1a35    56 FUNC    WEAK   DEFAULT    8 _ZN5resip25ClientRegistrationHandlerD1Ev
  3642: 003e1a6d    32 FUNC    WEAK   DEFAULT    8 _ZN5resip25ClientRegistrationHandlerD0Ev
  3643: 003e1a8d    56 FUNC    WEAK   DEFAULT    8 _ZN5resip18OutOfDialogHandlerD2Ev
  3644: 00a7d9f8    28 OBJECT  WEAK   DEFAULT   14 _ZTVN5resip18OutOfDialogHandlerE
  3645: 003e1a8d    56 FUNC    WEAK   DEFAULT    8 _ZN5resip18OutOfDialogHandlerD1Ev
  3646: 003e1ac5    32 FUNC    WEAK   DEFAULT    8 _ZN5resip18OutOfDialogHandlerD0Ev
  3647: 003e1ae5    30 FUNC    WEAK   DEFAULT    8 _ZN5resip5TupleD2Ev
  3648: 003e1ae5    30 FUNC    WEAK   DEFAULT    8 _ZN5resip5TupleD1Ev
  3649: 003e1b05    46 FUNC    WEAK   DEFAULT    8 _ZN5resip9SharedPtrINS_10SipMessageEEC2ERKS2_
  3650: 003e1b05    46 FUNC    WEAK   DEFAULT    8 _ZN5resip9SharedPtrINS_10SipMessageEEC1ERKS2_
  3651: 003e1b35    30 FUNC    WEAK   DEFAULT    8 _ZN5resip9SharedPtrINS_10SipMessageEED2Ev
  3652: 003e1b35    30 FUNC    WEAK   DEFAULT    8 _ZN5resip9SharedPtrINS_10SipMessageEED1Ev
  3653: 003e1b55   104 FUNC    WEAK   DEFAULT    8 _ZN5resip5TupleC2ERKS0_
  3654: 003e1b55   104 FUNC    WEAK   DEFAULT    8 _ZN5resip5TupleC1ERKS0_
  3655: 003e1bbd    86 FUNC    WEAK   DEFAULT    8 _ZN5resip15TransactionUser20setCongestionManagerEPNS_17CongestionManagerE
  3656: 003e1c15    30 FUNC    WEAK   DEFAULT    8 _ZNK5resip15TransactionUser15getExpectedWaitEv
  3657: 003e2711    50 FUNC    WEAK   DEFAULT    8 _ZNK5resip12AbstractFifoINS_11TimestampedIPNS_7MessageEEEE24expectedWaitTimeMilliSecEv
  3658: 003e1c35    22 FUNC    WEAK   DEFAULT    8 _ZNK5resip15TransactionUser18responsesMandatoryEv
  3659: 003e1c4d    56 FUNC    WEAK   DEFAULT    8 _ZN5resip25ClientSubscriptionHandlerD2Ev
  3660: 00a7df90    52 OBJECT  GLOBAL DEFAULT   14 _ZTVN5resip25ClientSubscriptionHandlerE
  3661: 003e1c4d    56 FUNC    WEAK   DEFAULT    8 _ZN5resip25ClientSubscriptionHandlerD1Ev
  3662: 003e1c85    32 FUNC    WEAK   DEFAULT    8 _ZN5resip25ClientSubscriptionHandlerD0Ev
  3663: 003e1ca5    56 FUNC    WEAK   DEFAULT    8 _ZN5resip18DumShutdownHandlerD2Ev
  3664: 00a7d9e0    20 OBJECT  WEAK   DEFAULT   14 _ZTVN5resip18DumShutdownHandlerE
  3665: 003e1ca5    56 FUNC    WEAK   DEFAULT    8 _ZN5resip18DumShutdownHandlerD1Ev
  3666: 003e1cdd    32 FUNC    WEAK   DEFAULT    8 _ZN5resip18DumShutdownHandlerD0Ev
  3667: 003e1cfd    56 FUNC    WEAK   DEFAULT    8 _ZN5resip15RedirectHandlerD2Ev
  3668: 00a7d9c8    24 OBJECT  WEAK   DEFAULT   14 _ZTVN5resip15RedirectHandlerE
  3669: 003e1cfd    56 FUNC    WEAK   DEFAULT    8 _ZN5resip15RedirectHandlerD1Ev
  3670: 003e1d35    32 FUNC    WEAK   DEFAULT    8 _ZN5resip15RedirectHandlerD0Ev
  3671: 003e1d55    64 FUNC    WEAK   DEFAULT    8 _ZN9twiliosdk30ResipClientSubscriptionHandlerD2Ev
  3672: 00a7d990    52 OBJECT  WEAK   DEFAULT   14 _ZTVN9twiliosdk30ResipClientSubscriptionHandlerE
  3673: 003e1d55    64 FUNC    WEAK   DEFAULT    8 _ZN9twiliosdk30ResipClientSubscriptionHandlerD1Ev
  3674: 003e1d95    32 FUNC    WEAK   DEFAULT    8 _ZN9twiliosdk30ResipClientSubscriptionHandlerD0Ev
  3675: 003e1db5    26 FUNC    WEAK   DEFAULT    8 _ZN9twiliosdk30ResipClientSubscriptionHandler15onUpdatePendingEN5resip6HandleINS1_18ClientSubscriptionEEERKNS1_10SipMessageEb
  3676: 003e1dd1    26 FUNC    WEAK   DEFAULT    8 _ZN9twiliosdk30ResipClientSubscriptionHandler14onUpdateActiveEN5resip6HandleINS1_18ClientSubscriptionEEERKNS1_10SipMessageEb
  3677: 003e1ded    26 FUNC    WEAK   DEFAULT    8 _ZN9twiliosdk30ResipClientSubscriptionHandler17onUpdateExtensionEN5resip6HandleINS1_18ClientSubscriptionEEERKNS1_10SipMessageEb
  3678: 003e1e09    32 FUNC    WEAK   DEFAULT    8 _ZN9twiliosdk30ResipClientSubscriptionHandler14onRequestRetryEN5resip6HandleINS1_18ClientSubscriptionEEEiRKNS1_10SipMessageE
  3679: 003e1e29    26 FUNC    WEAK   DEFAULT    8 _ZN9twiliosdk30ResipClientSubscriptionHandler12onTerminatedEN5resip6HandleINS1_18ClientSubscriptionEEEPKNS1_10SipMessageE
  3680: 003e1e45    42 FUNC    WEAK   DEFAULT    8 _ZN9twiliosdk30ResipClientSubscriptionHandler17onNewSubscriptionEN5resip6HandleINS1_18ClientSubscriptionEEERKNS1_10SipMessageE
  3681: 003e2745    26 FUNC    WEAK   DEFAULT    8 _ZN5resip6HandleINS_18ClientSubscriptionEEptEv
  3682: 00437d09   988 FUNC    GLOBAL DEFAULT    8 _ZN5resip18ClientSubscription12acceptUpdateEiPKc
  3683: 003e1e71    26 FUNC    WEAK   DEFAULT    8 _ZN9twiliosdk30ResipClientSubscriptionHandler13onReadyToSendEN5resip6HandleINS1_18ClientSubscriptionEEERNS1_10SipMessageE
  3684: 003e1e8d    24 FUNC    WEAK   DEFAULT    8 _ZN9twiliosdk30ResipClientSubscriptionHandler19onNotifyNotReceivedEN5resip6HandleINS1_18ClientSubscriptionEEE
  3685: 003e1ea5    24 FUNC    WEAK   DEFAULT    8 _ZN9twiliosdk30ResipClientSubscriptionHandler16onFlowTerminatedEN5resip6HandleINS1_18ClientSubscriptionEEE
  3686: 003e1ebd    30 FUNC    WEAK   DEFAULT    8 _ZN9twiliosdk12ResipAccount12updatePongTsEv
  3687: 003e1edd   664 FUNC    WEAK   DEFAULT    8 _ZNK9twiliosdk12ResipAccount13wasRedirectedEv
  3688: 003e2175    32 FUNC    WEAK   DEFAULT    8 _ZN9twiliosdk11Resiprocate12getTimestampEv
  3689: 003e2195    60 FUNC    WEAK   DEFAULT    8 _ZN9twiliosdk11Resiprocate19decPendingRefreshesEv
  3690: 003e21d1    26 FUNC    WEAK   DEFAULT    8 _ZNK9twiliosdk9ResipCall11getLocalSdpEv
  3691: 003e21ed    24 FUNC    WEAK   DEFAULT    8 _ZNK9twiliosdk9ResipCall13getRemoteUserEv
  3692: 003e2205    26 FUNC    WEAK   DEFAULT    8 _ZNK9twiliosdk9ResipCall15getParticipantsEv
  3693: 003e2221    24 FUNC    WEAK   DEFAULT    8 _ZNK5resip20ConnectionTerminated7getFlowEv
  3694: 003e2239    28 FUNC    WEAK   DEFAULT    8 _ZNSt3__13mapIN5resip5TupleENS1_16KeepAliveManager22NetworkAssociationInfoENS2_14FlowKeyCompareENS_9allocatorINS_4pairIKS2_S4_EEEEED2Ev
  3695: 003e2761    58 FUNC    WEAK   DEFAULT    8 _ZNSt3__16__treeINS_12__value_typeIN5resip5TupleENS2_16KeepAliveManager22NetworkAssociationInfoEEENS_19__map_value_compareIS3_S6_NS3_14FlowKeyCompareELb1EEENS_9allocatorIS6_EEED1Ev
  3696: 003e2239    28 FUNC    WEAK   DEFAULT    8 _ZNSt3__13mapIN5resip5TupleENS1_16KeepAliveManager22NetworkAssociationInfoENS2_14FlowKeyCompareENS_9allocatorINS_4pairIKS2_S4_EEEEED1Ev
  3697: 003e2255    72 FUNC    WEAK   DEFAULT    8 _ZN5resip16KeepAliveManagerC2Ev
  3698: 003e2ce1   114 FUNC    WEAK   DEFAULT    8 _ZNSt3__16__treeINS_12__value_typeIN5resip5TupleENS2_16KeepAliveManager22NetworkAssociationInfoEEENS_19__map_value_compareIS3_S6_NS3_14FlowKeyCompareELb1EEENS_9allocatorIS6_EEEC1ERKS9_
  3699: 00a7f1d8    36 OBJECT  GLOBAL DEFAULT   14 _ZTVN5resip16KeepAliveManagerE
  3700: 003e2255    72 FUNC    WEAK   DEFAULT    8 _ZN5resip16KeepAliveManagerC1Ev
  3701: 003e229d    64 FUNC    WEAK   DEFAULT    8 _ZN5resip16KeepAliveManagerD2Ev
  3702: 003e229d    64 FUNC    WEAK   DEFAULT    8 _ZN5resip16KeepAliveManagerD1Ev
  3703: 003e22dd    32 FUNC    WEAK   DEFAULT    8 _ZN5resip16KeepAliveManagerD0Ev
  3704: 003e22fd    56 FUNC    WEAK   DEFAULT    8 _ZN5resip19AppDialogSetFactoryD2Ev
  3705: 00a7f778    20 OBJECT  GLOBAL DEFAULT   14 _ZTVN5resip19AppDialogSetFactoryE
  3706: 003e22fd    56 FUNC    WEAK   DEFAULT    8 _ZN5resip19AppDialogSetFactoryD1Ev
  3707: 003e2335    32 FUNC    WEAK   DEFAULT    8 _ZN5resip19AppDialogSetFactoryD0Ev
  3708: 00a9b7ec   124 OBJECT  GLOBAL DEFAULT   19 _ZN9twiliosdk12ResipAccount14mimeMultipart_E
  3709: 00a9b8e4   124 OBJECT  GLOBAL DEFAULT   19 _ZN9twiliosdk12ResipAccount13mimeAuthInfo_E
  3710: 003e2355    60 FUNC    WEAK   DEFAULT    8 _ZN9twiliosdk21ResipKeepAliveManagerC2EPNS_12ResipAccountE
  3711: 00a7d968    36 OBJECT  WEAK   DEFAULT   14 _ZTVN9twiliosdk21ResipKeepAliveManagerE
  3712: 003e2355    60 FUNC    WEAK   DEFAULT    8 _ZN9twiliosdk21ResipKeepAliveManagerC1EPNS_12ResipAccountE
  3713: 003e2391    36 FUNC    WEAK   DEFAULT    8 _ZN9twiliosdk21ResipKeepAliveManager12receivedPongERKN5resip5TupleE
  3714: 004576b9    78 FUNC    GLOBAL DEFAULT    8 _ZN5resip16KeepAliveManager12receivedPongERKNS_5TupleE
  3715: 003e23b5    48 FUNC    WEAK   DEFAULT    8 _ZN5resip19AppDialogSetFactoryC2Ev
  3716: 003e23b5    48 FUNC    WEAK   DEFAULT    8 _ZN5resip19AppDialogSetFactoryC1Ev
  3717: 003e23e5    56 FUNC    WEAK   DEFAULT    8 _ZN9twiliosdk23AppDialogSetFactoryImplC2EPNS_12ResipAccountE
  3718: 00a7d860    20 OBJECT  GLOBAL DEFAULT   14 _ZTVN9twiliosdk23AppDialogSetFactoryImplE
  3719: 003e23e5    56 FUNC    WEAK   DEFAULT    8 _ZN9twiliosdk23AppDialogSetFactoryImplC1EPNS_12ResipAccountE
  3720: 003e241d    64 FUNC    WEAK   DEFAULT    8 _ZN9twiliosdk23AppDialogSetFactoryImplD2Ev
  3721: 003e241d    64 FUNC    WEAK   DEFAULT    8 _ZN9twiliosdk23AppDialogSetFactoryImplD1Ev
  3722: 003e245d    32 FUNC    WEAK   DEFAULT    8 _ZN9twiliosdk23AppDialogSetFactoryImplD0Ev
  3723: 003e247d    96 FUNC    WEAK   DEFAULT    8 _ZN9twiliosdk8ResipDUMC2ERKN5resip4DataERNS1_8SipStackE
  3724: 0040e441  1660 FUNC    GLOBAL DEFAULT    8 _ZN5resip18DialogUsageManagerC2ERNS_8SipStackEb
